
/Users/chipmc/Documents/Maker/Particle/Projects/Boron-MBTA-Monitor/target/2.0.1/boron/Boron-MBTA-Monitor.elf:     file format elf32-littlearm

Sections:
Idx Name          Size      VMA       LMA       File off  Algn
  0 .module_info  00000018  000d4000  000d4000  00004000  2**0
                  CONTENTS, ALLOC, LOAD, READONLY, DATA
  1 .dynalib      00000004  000d4018  000d4018  00004018  2**2
                  CONTENTS, ALLOC, LOAD, READONLY, DATA
  2 .text         00007cb0  000d4020  000d4020  00004020  2**3
                  CONTENTS, ALLOC, LOAD, READONLY, CODE
  3 .backup       0000081c  2003f400  000dbcd0  0000f400  2**2
                  CONTENTS, ALLOC, LOAD, DATA
  4 .data         0000011c  2003e0d8  000dc4ec  0001e0d8  2**3
                  CONTENTS, ALLOC, LOAD, DATA
  5 .bss          000005fc  2003e1f8  2003e1f8  0002e1f8  2**3
                  ALLOC
  6 .module_info_suffix 0000002c  000dc608  000dc608  0002c608  2**1
                  CONTENTS, ALLOC, LOAD, DATA
  7 .module_info_crc 00000004  000dc634  000dc634  0002c634  2**0
                  CONTENTS, ALLOC, LOAD, READONLY, DATA
  8 .debug_info   00260a62  00000000  00000000  0002c638  2**0
                  CONTENTS, READONLY, DEBUGGING
  9 .debug_abbrev 00023c9e  00000000  00000000  0028d09a  2**0
                  CONTENTS, READONLY, DEBUGGING
 10 .debug_loc    00044c2c  00000000  00000000  002b0d38  2**0
                  CONTENTS, READONLY, DEBUGGING
 11 .debug_aranges 00003a50  00000000  00000000  002f5964  2**0
                  CONTENTS, READONLY, DEBUGGING
 12 .debug_ranges 0000c150  00000000  00000000  002f93b4  2**0
                  CONTENTS, READONLY, DEBUGGING
 13 .debug_macro  00047003  00000000  00000000  00305504  2**0
                  CONTENTS, READONLY, DEBUGGING
 14 .debug_line   0005e156  00000000  00000000  0034c507  2**0
                  CONTENTS, READONLY, DEBUGGING
 15 .debug_str    00131265  00000000  00000000  003aa65d  2**0
                  CONTENTS, READONLY, DEBUGGING
 16 .debug_frame  0000a524  00000000  00000000  004db8c4  2**2
                  CONTENTS, READONLY, DEBUGGING

Disassembly of section .text:

000d4020 <module_user_pre_init>:
/**
 * Initializes this user module. Returns the start of the heap.
 */
void* module_user_pre_init() {

    if ( (&link_global_data_start!=&link_global_data_initial_values) && (link_global_data_size != 0))
   d4020:	4809      	ldr	r0, [pc, #36]	; (d4048 <module_user_pre_init+0x28>)
   d4022:	490a      	ldr	r1, [pc, #40]	; (d404c <module_user_pre_init+0x2c>)
   d4024:	4288      	cmp	r0, r1
void* module_user_pre_init() {
   d4026:	b508      	push	{r3, lr}
    if ( (&link_global_data_start!=&link_global_data_initial_values) && (link_global_data_size != 0))
   d4028:	d005      	beq.n	d4036 <module_user_pre_init+0x16>
   d402a:	4a09      	ldr	r2, [pc, #36]	; (d4050 <module_user_pre_init+0x30>)
   d402c:	4282      	cmp	r2, r0
   d402e:	d002      	beq.n	d4036 <module_user_pre_init+0x16>
    {
        memcpy(&link_global_data_start, &link_global_data_initial_values, link_global_data_size);
   d4030:	1a12      	subs	r2, r2, r0
   d4032:	f006 febf 	bl	dadb4 <memcpy>
    }

    memset(&link_bss_location, 0, link_bss_size );
   d4036:	4807      	ldr	r0, [pc, #28]	; (d4054 <module_user_pre_init+0x34>)
   d4038:	4a07      	ldr	r2, [pc, #28]	; (d4058 <module_user_pre_init+0x38>)
   d403a:	2100      	movs	r1, #0
   d403c:	1a12      	subs	r2, r2, r0
   d403e:	f006 fee1 	bl	dae04 <memset>
    return &link_global_data_start;
}
   d4042:	4801      	ldr	r0, [pc, #4]	; (d4048 <module_user_pre_init+0x28>)
   d4044:	bd08      	pop	{r3, pc}
   d4046:	bf00      	nop
   d4048:	2003e0d8 	.word	0x2003e0d8
   d404c:	000dc4ec 	.word	0x000dc4ec
   d4050:	2003e1f4 	.word	0x2003e1f4
   d4054:	2003e1f8 	.word	0x2003e1f8
   d4058:	2003e7f4 	.word	0x2003e7f4

000d405c <module_user_init>:
extern constructor_ptr_t link_constructors_location[];
extern constructor_ptr_t link_constructors_end;
#define link_constructors_size   ((unsigned long)&link_constructors_end  -  (unsigned long)&link_constructors_location )

void module_user_init()
{
   d405c:	b570      	push	{r4, r5, r6, lr}
    module_user_init_hook();

    // invoke constructors
    int ctor_num;
    for (ctor_num=0; ctor_num < link_constructors_size/sizeof(constructor_ptr_t); ctor_num++ )
   d405e:	4e07      	ldr	r6, [pc, #28]	; (d407c <module_user_init+0x20>)
   d4060:	4c07      	ldr	r4, [pc, #28]	; (d4080 <module_user_init+0x24>)
    module_user_init_hook();
   d4062:	f006 f8d3 	bl	da20c <module_user_init_hook>
    for (ctor_num=0; ctor_num < link_constructors_size/sizeof(constructor_ptr_t); ctor_num++ )
   d4066:	1ba4      	subs	r4, r4, r6
   d4068:	08a4      	lsrs	r4, r4, #2
   d406a:	2500      	movs	r5, #0
   d406c:	42a5      	cmp	r5, r4
   d406e:	d100      	bne.n	d4072 <module_user_init+0x16>
    {
        link_constructors_location[ctor_num]();
    }
}
   d4070:	bd70      	pop	{r4, r5, r6, pc}
        link_constructors_location[ctor_num]();
   d4072:	f856 3b04 	ldr.w	r3, [r6], #4
   d4076:	4798      	blx	r3
    for (ctor_num=0; ctor_num < link_constructors_size/sizeof(constructor_ptr_t); ctor_num++ )
   d4078:	3501      	adds	r5, #1
   d407a:	e7f7      	b.n	d406c <module_user_init+0x10>
   d407c:	000dbc9c 	.word	0x000dbc9c
   d4080:	000dbcd0 	.word	0x000dbcd0

000d4084 <module_user_setup>:

/**
 * Export these functions with a fuller name so they don't clash with the setup/loop wrappers in the system module.
 */
void module_user_setup() {
    setup();
   d4084:	f001 b9b4 	b.w	d53f0 <setup>

000d4088 <module_user_loop>:
}

void module_user_loop() {
   d4088:	b508      	push	{r3, lr}
    loop();
   d408a:	f000 ffa9 	bl	d4fe0 <loop>
    _post_loop();
}
   d408e:	e8bd 4008 	ldmia.w	sp!, {r3, lr}
    _post_loop();
   d4092:	f006 b87d 	b.w	da190 <_post_loop>

000d4096 <_Znwj>:
 * Implement C++ new/delete operators using the heap
 */

void *operator new(size_t size)
{
	return malloc(size);
   d4096:	f004 bb6d 	b.w	d8774 <malloc>

000d409a <_Znaj>:
   d409a:	f004 bb6b 	b.w	d8774 <malloc>

000d409e <_ZdlPv>:
	return malloc(size);
}

void operator delete(void *p)
{
	free(p);
   d409e:	f004 bb71 	b.w	d8784 <free>
	...

000d40a4 <__cxa_pure_virtual>:
char* strerror(int errnum) {
    return (char*)"";
}

/* Default implementation for call made to pure virtual function. */
void __cxa_pure_virtual() {
   d40a4:	b508      	push	{r3, lr}
  PANIC(PureVirtualCall,"Call on pure virtual");
   d40a6:	4a03      	ldr	r2, [pc, #12]	; (d40b4 <__cxa_pure_virtual+0x10>)
   d40a8:	2100      	movs	r1, #0
   d40aa:	200c      	movs	r0, #12
   d40ac:	f004 f9fe 	bl	d84ac <panic_>
  while (1);
   d40b0:	e7fe      	b.n	d40b0 <__cxa_pure_virtual+0xc>
   d40b2:	bf00      	nop
   d40b4:	000d815d 	.word	0x000d815d

000d40b8 <__cxa_guard_acquire>:

/* Provide default implemenation for __cxa_guard_acquire() and
 * __cxa_guard_release(). Note: these must be revisited if a multitasking
 * OS is ported to this platform. */
__extension__ typedef int __guard __attribute__((mode (__DI__)));
int __cxa_guard_acquire(__guard *g) {return !*(char *)(g);};
   d40b8:	7800      	ldrb	r0, [r0, #0]
   d40ba:	fab0 f080 	clz	r0, r0
   d40be:	0940      	lsrs	r0, r0, #5
   d40c0:	4770      	bx	lr

000d40c2 <__cxa_guard_release>:
void __cxa_guard_release (__guard *g) {*(char *)g = 1;};
   d40c2:	2301      	movs	r3, #1
   d40c4:	7003      	strb	r3, [r0, #0]
   d40c6:	4770      	bx	lr

000d40c8 <_Z18outOfMemoryHandleryi>:
  return 1;
}

// Here are the various hardware and timer interrupt service routines
void outOfMemoryHandler(system_event_t event, int param) {
  outOfMemory = param;
   d40c8:	4b01      	ldr	r3, [pc, #4]	; (d40d0 <_Z18outOfMemoryHandleryi+0x8>)
   d40ca:	601a      	str	r2, [r3, #0]
}
   d40cc:	4770      	bx	lr
   d40ce:	bf00      	nop
   d40d0:	2003e0ec 	.word	0x2003e0ec

000d40d4 <_ZN8particle24SystemSleepConfigurationD1Ev>:
        config.config_.wakeup_sources = nullptr;
        return *this;
    }

    // Destructor
    ~SystemSleepConfiguration() {
   d40d4:	b538      	push	{r3, r4, r5, lr}
   d40d6:	4604      	mov	r4, r0
        // Free memory
        auto wakeupSource = config_.wakeup_sources;
   d40d8:	6900      	ldr	r0, [r0, #16]
        while (wakeupSource) {
   d40da:	b128      	cbz	r0, d40e8 <_ZN8particle24SystemSleepConfigurationD1Ev+0x14>
            auto next = wakeupSource->next;
   d40dc:	6885      	ldr	r5, [r0, #8]
            delete wakeupSource;
   d40de:	210c      	movs	r1, #12
   d40e0:	f006 f99f 	bl	da422 <_ZdlPvj>
            wakeupSource = next;
   d40e4:	4628      	mov	r0, r5
        while (wakeupSource) {
   d40e6:	e7f8      	b.n	d40da <_ZN8particle24SystemSleepConfigurationD1Ev+0x6>
        }
    }
   d40e8:	4620      	mov	r0, r4
   d40ea:	bd38      	pop	{r3, r4, r5, pc}

000d40ec <_Z9resetFRAM6String>:
{
   d40ec:	b508      	push	{r3, lr}
	operator StringIfHelperType() const { return buffer ? &String::StringIfHelper : 0; }
	int compareTo(const String &s) const;
	unsigned char equals(const String &s) const;
	unsigned char equals(const char *cstr) const;
	unsigned char operator == (const String &rhs) const {return equals(rhs);}
	unsigned char operator == (const char *cstr) const {return equals(cstr);}
   d40ee:	4904      	ldr	r1, [pc, #16]	; (d4100 <_Z9resetFRAM6String+0x14>)
   d40f0:	f005 fba7 	bl	d9842 <_ZNK6String6equalsEPKc>
  if (command == "1")
   d40f4:	b118      	cbz	r0, d40fe <_Z9resetFRAM6String+0x12>
    fram.erase();
   d40f6:	4803      	ldr	r0, [pc, #12]	; (d4104 <_Z9resetFRAM6String+0x18>)
   d40f8:	f003 f960 	bl	d73bc <_ZN6MB85RC5eraseEv>
    return 1;
   d40fc:	2001      	movs	r0, #1
}
   d40fe:	bd08      	pop	{r3, pc}
   d4100:	000db050 	.word	0x000db050
   d4104:	2003e30c 	.word	0x2003e30c

000d4108 <_Z7sendNow6String>:
{
   d4108:	b508      	push	{r3, lr}
   d410a:	4904      	ldr	r1, [pc, #16]	; (d411c <_Z7sendNow6String+0x14>)
   d410c:	f005 fb99 	bl	d9842 <_ZNK6String6equalsEPKc>
  if (command == "1")
   d4110:	b118      	cbz	r0, d411a <_Z7sendNow6String+0x12>
    state = MEASURING_STATE;
   d4112:	4b03      	ldr	r3, [pc, #12]	; (d4120 <_Z7sendNow6String+0x18>)
   d4114:	2203      	movs	r2, #3
   d4116:	701a      	strb	r2, [r3, #0]
    return 1;
   d4118:	2001      	movs	r0, #1
}
   d411a:	bd08      	pop	{r3, pc}
   d411c:	000db050 	.word	0x000db050
   d4120:	2003e370 	.word	0x2003e370

000d4124 <_ZN17PublishQueueAsyncD1Ev>:
	PublishQueueAsync(uint8_t *retainedBuffer, uint16_t retainedBufferSize) : PublishQueueAsyncRetained(retainedBuffer, retainedBufferSize) {};

	/**
	 * @brief You normally allocate this as a global object and never delete it
	 */
	virtual ~PublishQueueAsync() {};
   d4124:	b510      	push	{r4, lr}
   d4126:	4b03      	ldr	r3, [pc, #12]	; (d4134 <_ZN17PublishQueueAsyncD1Ev+0x10>)
   d4128:	6003      	str	r3, [r0, #0]
   d412a:	4604      	mov	r4, r0
   d412c:	f003 fd4a 	bl	d7bc4 <_ZN25PublishQueueAsyncRetainedD1Ev>
   d4130:	4620      	mov	r0, r4
   d4132:	bd10      	pop	{r4, pc}
   d4134:	000db42c 	.word	0x000db42c

000d4138 <_ZN17PublishQueueAsyncD0Ev>:
   d4138:	b510      	push	{r4, lr}
   d413a:	4604      	mov	r4, r0
   d413c:	f7ff fff2 	bl	d4124 <_ZN17PublishQueueAsyncD1Ev>
   d4140:	4620      	mov	r0, r4
   d4142:	2138      	movs	r1, #56	; 0x38
   d4144:	f006 f96d 	bl	da422 <_ZdlPvj>
   d4148:	4620      	mov	r0, r4
   d414a:	bd10      	pop	{r4, pc}

000d414c <_ZN8MB85RC64D1Ev>:
	size_t memorySize;
	int addr; // This is just 0-7, the (0b1010000 of the 7-bit address is ORed in later)

};

class MB85RC64 : public MB85RC {
   d414c:	b510      	push	{r4, lr}
   d414e:	4b03      	ldr	r3, [pc, #12]	; (d415c <_ZN8MB85RC64D1Ev+0x10>)
   d4150:	6003      	str	r3, [r0, #0]
   d4152:	4604      	mov	r4, r0
   d4154:	f003 f912 	bl	d737c <_ZN6MB85RCD1Ev>
   d4158:	4620      	mov	r0, r4
   d415a:	bd10      	pop	{r4, pc}
   d415c:	000db410 	.word	0x000db410

000d4160 <_ZN8MB85RC64D0Ev>:
   d4160:	b510      	push	{r4, lr}
   d4162:	4604      	mov	r4, r0
   d4164:	f7ff fff2 	bl	d414c <_ZN8MB85RC64D1Ev>
   d4168:	4620      	mov	r0, r4
   d416a:	2110      	movs	r1, #16
   d416c:	f006 f959 	bl	da422 <_ZdlPvj>
   d4170:	4620      	mov	r0, r4
   d4172:	bd10      	pop	{r4, pc}

000d4174 <_ZN10CloudClass8syncTimeEv.isra.0>:
    void unsubscribe()
    {
        spark_unsubscribe(NULL);
    }

    bool syncTime(void)
   d4174:	b508      	push	{r3, lr}
    static void sleep(Spark_Sleep_TypeDef sleepMode, long seconds=0) __attribute__ ((deprecated("Please use System.sleep() instead.")))
    { SystemClass::sleep(sleepMode, seconds); }
    static void sleep(uint16_t wakeUpPin, InterruptMode edgeTriggerMode, long seconds=0) __attribute__ ((deprecated("Please use System.sleep() instead.")))
    { SystemClass::sleep(wakeUpPin, edgeTriggerMode, seconds); }

    static bool connected(void) { return spark_cloud_flag_connected(); }
   d4176:	f004 fa5d 	bl	d8634 <spark_cloud_flag_connected>
        if (!connected()) {
   d417a:	b120      	cbz	r0, d4186 <_ZN10CloudClass8syncTimeEv.isra.0+0x12>
    }
   d417c:	e8bd 4008 	ldmia.w	sp!, {r3, lr}
        return spark_sync_time(NULL);
   d4180:	2000      	movs	r0, #0
   d4182:	f004 ba77 	b.w	d8674 <spark_sync_time>
    }
   d4186:	bd08      	pop	{r3, pc}

000d4188 <_ZN10CloudClass12syncTimeDoneEv.isra.0>:
    bool syncTimeDone(void)
   d4188:	b508      	push	{r3, lr}
        return !spark_sync_time_pending(nullptr) || disconnected();
   d418a:	2000      	movs	r0, #0
   d418c:	f004 fa7a 	bl	d8684 <spark_sync_time_pending>
   d4190:	b128      	cbz	r0, d419e <_ZN10CloudClass12syncTimeDoneEv.isra.0+0x16>
    static bool connected(void) { return spark_cloud_flag_connected(); }
   d4192:	f004 fa4f 	bl	d8634 <spark_cloud_flag_connected>
        return !spark_sync_time_pending(nullptr) || disconnected();
   d4196:	f080 0001 	eor.w	r0, r0, #1
   d419a:	b2c0      	uxtb	r0, r0
    }
   d419c:	bd08      	pop	{r3, pc}
        return !spark_sync_time_pending(nullptr) || disconnected();
   d419e:	2001      	movs	r0, #1
   d41a0:	e7fc      	b.n	d419c <_ZN10CloudClass12syncTimeDoneEv.isra.0+0x14>

000d41a2 <_ZN10CloudClass9_variableI17CloudVariableTypeIPKcvEEEbS3_NT_11PointerTypeERKS5_.isra.0>:
        return spark_variable(varKey, (const void*)userVar, T::TYPE_ID, NULL);
   d41a2:	2300      	movs	r3, #0
   d41a4:	2204      	movs	r2, #4
   d41a6:	f004 ba25 	b.w	d85f4 <spark_variable>

000d41aa <_ZNK13LegacyAdapter13getSatellitesEv.isra.0>:
	}

	/**
	 * @brief Gets the number of satellites found
	 */
	uint8_t getSatellites() const {
   d41aa:	b510      	push	{r4, lr}
typedef std::function<os_thread_return_t(void)> wiring_thread_fn_t;

class SingleThreadedSection {
public:
    SingleThreadedSection() {
        os_thread_scheduling(false, NULL);
   d41ac:	2100      	movs	r1, #0
   d41ae:	4604      	mov	r4, r0
   d41b0:	4608      	mov	r0, r1
   d41b2:	f003 ff73 	bl	d809c <os_thread_scheduling>
	/**
	 * @brief Get the number of satellites
	 */
	TinyGPSInteger getSatellites() const {
	    SINGLE_THREADED_BLOCK() {
	    	return satellites;
   d41b6:	f8d4 40a0 	ldr.w	r4, [r4, #160]	; 0xa0
    }

    ~SingleThreadedSection() {
        os_thread_scheduling(true, NULL);
   d41ba:	2100      	movs	r1, #0
   d41bc:	2001      	movs	r0, #1
   d41be:	f003 ff6d 	bl	d809c <os_thread_scheduling>
		return (uint8_t) gpsData.getSatellites().value();
	}
   d41c2:	b2e0      	uxtb	r0, r4
   d41c4:	bd10      	pop	{r4, pc}

000d41c6 <_ZN11SystemClassD1Ev>:
    system_error_t error_;
    SleepResult compatResult_;
};


class SystemClass {
   d41c6:	b510      	push	{r4, lr}
   d41c8:	4604      	mov	r4, r0
        if (wakeupSource_) {
   d41ca:	6800      	ldr	r0, [r0, #0]
   d41cc:	b108      	cbz	r0, d41d2 <_ZN11SystemClassD1Ev+0xc>
            free(wakeupSource_);
   d41ce:	f004 fad9 	bl	d8784 <free>
class SystemClass {
   d41d2:	4620      	mov	r0, r4
   d41d4:	bd10      	pop	{r4, pc}

000d41d6 <_ZNK13LegacyAdapter10readLonDegEv.isra.0>:
	float readLonDeg(void) const {
   d41d6:	b530      	push	{r4, r5, lr}
        os_thread_scheduling(false, NULL);
   d41d8:	2100      	movs	r1, #0
   d41da:	b08f      	sub	sp, #60	; 0x3c
   d41dc:	4604      	mov	r4, r0
   d41de:	4608      	mov	r0, r1
   d41e0:	f003 ff5c 	bl	d809c <os_thread_scheduling>
	    	return location;
   d41e4:	cc0f      	ldmia	r4!, {r0, r1, r2, r3}
   d41e6:	466d      	mov	r5, sp
   d41e8:	c50f      	stmia	r5!, {r0, r1, r2, r3}
   d41ea:	cc0f      	ldmia	r4!, {r0, r1, r2, r3}
   d41ec:	c50f      	stmia	r5!, {r0, r1, r2, r3}
   d41ee:	cc0f      	ldmia	r4!, {r0, r1, r2, r3}
   d41f0:	c50f      	stmia	r5!, {r0, r1, r2, r3}
   d41f2:	e894 0003 	ldmia.w	r4, {r0, r1}
   d41f6:	e885 0003 	stmia.w	r5, {r0, r1}
        os_thread_scheduling(true, NULL);
   d41fa:	2100      	movs	r1, #0
   d41fc:	2001      	movs	r0, #1
   d41fe:	f003 ff4d 	bl	d809c <os_thread_scheduling>
		return (float) gpsData.getLocation().lng();
   d4202:	4668      	mov	r0, sp
   d4204:	f002 fcc4 	bl	d6b90 <_ZN15TinyGPSLocation3lngEv>
   d4208:	ec51 0b10 	vmov	r0, r1, d0
   d420c:	f006 fd00 	bl	dac10 <__aeabi_d2f>
	}
   d4210:	ee00 0a10 	vmov	s0, r0
   d4214:	b00f      	add	sp, #60	; 0x3c
   d4216:	bd30      	pop	{r4, r5, pc}

000d4218 <_ZNK13LegacyAdapter10readLatDegEv.isra.0>:
	float readLatDeg(void) const {
   d4218:	b530      	push	{r4, r5, lr}
        os_thread_scheduling(false, NULL);
   d421a:	2100      	movs	r1, #0
   d421c:	b08f      	sub	sp, #60	; 0x3c
   d421e:	4604      	mov	r4, r0
   d4220:	4608      	mov	r0, r1
   d4222:	f003 ff3b 	bl	d809c <os_thread_scheduling>
   d4226:	cc0f      	ldmia	r4!, {r0, r1, r2, r3}
   d4228:	466d      	mov	r5, sp
   d422a:	c50f      	stmia	r5!, {r0, r1, r2, r3}
   d422c:	cc0f      	ldmia	r4!, {r0, r1, r2, r3}
   d422e:	c50f      	stmia	r5!, {r0, r1, r2, r3}
   d4230:	cc0f      	ldmia	r4!, {r0, r1, r2, r3}
   d4232:	c50f      	stmia	r5!, {r0, r1, r2, r3}
   d4234:	e894 0003 	ldmia.w	r4, {r0, r1}
   d4238:	e885 0003 	stmia.w	r5, {r0, r1}
        os_thread_scheduling(true, NULL);
   d423c:	2100      	movs	r1, #0
   d423e:	2001      	movs	r0, #1
   d4240:	f003 ff2c 	bl	d809c <os_thread_scheduling>
		return (float) gpsData.getLocation().lat();
   d4244:	4668      	mov	r0, sp
   d4246:	f002 fc7f 	bl	d6b48 <_ZN15TinyGPSLocation3latEv>
   d424a:	ec51 0b10 	vmov	r0, r1, d0
   d424e:	f006 fcdf 	bl	dac10 <__aeabi_d2f>
	}
   d4252:	ee00 0a10 	vmov	s0, r0
   d4256:	b00f      	add	sp, #60	; 0x3c
   d4258:	bd30      	pop	{r4, r5, pc}
	...

000d425c <_ZN8particle24SystemSleepConfiguration4gpioEt13InterruptMode>:
            config_.flags |= f.value();
        }
        return *this;
    }

    SystemSleepConfiguration& gpio(pin_t pin, InterruptMode mode) {
   d425c:	b5f8      	push	{r3, r4, r5, r6, r7, lr}
        if (valid_) {
   d425e:	7d03      	ldrb	r3, [r0, #20]
    SystemSleepConfiguration& gpio(pin_t pin, InterruptMode mode) {
   d4260:	4605      	mov	r5, r0
   d4262:	460f      	mov	r7, r1
   d4264:	4616      	mov	r6, r2
        if (valid_) {
   d4266:	b18b      	cbz	r3, d428c <_ZN8particle24SystemSleepConfiguration4gpioEt13InterruptMode+0x30>
        return wakeupSourceFeatured(type, config_->wakeup_sources);
   d4268:	6803      	ldr	r3, [r0, #0]
   d426a:	68db      	ldr	r3, [r3, #12]
        if (!start) {
   d426c:	b183      	cbz	r3, d4290 <_ZN8particle24SystemSleepConfiguration4gpioEt13InterruptMode+0x34>
            if (start->type == type) {
   d426e:	889a      	ldrh	r2, [r3, #4]
   d4270:	2a01      	cmp	r2, #1
   d4272:	d006      	beq.n	d4282 <_ZN8particle24SystemSleepConfiguration4gpioEt13InterruptMode+0x26>
            start = start->next;
   d4274:	689b      	ldr	r3, [r3, #8]
        while (start) {
   d4276:	e7f9      	b.n	d426c <_ZN8particle24SystemSleepConfiguration4gpioEt13InterruptMode+0x10>
                auto gpioWakeup = reinterpret_cast<hal_wakeup_source_gpio_t*>(wakeup);
                if (gpioWakeup->pin == pin) {
                    gpioWakeup->mode = mode;
                    return *this;
                }
                wakeup = wakeupSourceFeatured(HAL_WAKEUP_SOURCE_TYPE_GPIO, wakeup->next);
   d4278:	689b      	ldr	r3, [r3, #8]
        if (!start) {
   d427a:	b14b      	cbz	r3, d4290 <_ZN8particle24SystemSleepConfiguration4gpioEt13InterruptMode+0x34>
            if (start->type == type) {
   d427c:	889a      	ldrh	r2, [r3, #4]
   d427e:	2a01      	cmp	r2, #1
   d4280:	d1fa      	bne.n	d4278 <_ZN8particle24SystemSleepConfiguration4gpioEt13InterruptMode+0x1c>
            while (wakeup) {
   d4282:	b12b      	cbz	r3, d4290 <_ZN8particle24SystemSleepConfiguration4gpioEt13InterruptMode+0x34>
                if (gpioWakeup->pin == pin) {
   d4284:	899a      	ldrh	r2, [r3, #12]
   d4286:	42ba      	cmp	r2, r7
   d4288:	d1f6      	bne.n	d4278 <_ZN8particle24SystemSleepConfiguration4gpioEt13InterruptMode+0x1c>
                    gpioWakeup->mode = mode;
   d428a:	739e      	strb	r6, [r3, #14]
            wakeupSource->pin = pin;
            wakeupSource->mode = mode;
            config_.wakeup_sources = reinterpret_cast<hal_wakeup_source_base_t*>(wakeupSource);
        }
        return *this;
    }
   d428c:	4628      	mov	r0, r5
   d428e:	bdf8      	pop	{r3, r4, r5, r6, r7, pc}
            auto wakeupSource = new(std::nothrow) hal_wakeup_source_gpio_t();
   d4290:	490a      	ldr	r1, [pc, #40]	; (d42bc <_ZN8particle24SystemSleepConfiguration4gpioEt13InterruptMode+0x60>)
   d4292:	2010      	movs	r0, #16
   d4294:	f006 f8c7 	bl	da426 <_ZnwjRKSt9nothrow_t>
   d4298:	4604      	mov	r4, r0
   d429a:	b168      	cbz	r0, d42b8 <_ZN8particle24SystemSleepConfiguration4gpioEt13InterruptMode+0x5c>
   d429c:	2210      	movs	r2, #16
   d429e:	2100      	movs	r1, #0
   d42a0:	f006 fdb0 	bl	dae04 <memset>
            wakeupSource->base.size = sizeof(hal_wakeup_source_gpio_t);
   d42a4:	4b06      	ldr	r3, [pc, #24]	; (d42c0 <_ZN8particle24SystemSleepConfiguration4gpioEt13InterruptMode+0x64>)
   d42a6:	6023      	str	r3, [r4, #0]
            wakeupSource->base.type = HAL_WAKEUP_SOURCE_TYPE_GPIO;
   d42a8:	2301      	movs	r3, #1
   d42aa:	80a3      	strh	r3, [r4, #4]
            wakeupSource->base.next = config_.wakeup_sources;
   d42ac:	692b      	ldr	r3, [r5, #16]
   d42ae:	60a3      	str	r3, [r4, #8]
            wakeupSource->pin = pin;
   d42b0:	81a7      	strh	r7, [r4, #12]
            wakeupSource->mode = mode;
   d42b2:	73a6      	strb	r6, [r4, #14]
            config_.wakeup_sources = reinterpret_cast<hal_wakeup_source_base_t*>(wakeupSource);
   d42b4:	612c      	str	r4, [r5, #16]
   d42b6:	e7e9      	b.n	d428c <_ZN8particle24SystemSleepConfiguration4gpioEt13InterruptMode+0x30>
                valid_ = false;
   d42b8:	7528      	strb	r0, [r5, #20]
                return *this;
   d42ba:	e7e7      	b.n	d428c <_ZN8particle24SystemSleepConfiguration4gpioEt13InterruptMode+0x30>
   d42bc:	000dbb40 	.word	0x000dbb40
   d42c0:	00030010 	.word	0x00030010

000d42c4 <_ZN11SystemClass6millisEv>:
        HAL_Core_Button_Mirror_Pin_Disable((uint8_t)bootloader, 0, NULL);
    }

    // This function is similar to the global millis() but returns a 64-bit value
    static uint64_t millis() {
        return hal_timer_millis(nullptr);
   d42c4:	2000      	movs	r0, #0
   d42c6:	f003 bf71 	b.w	d81ac <hal_timer_millis>

000d42ca <_ZNK5spark6Logger4infoEPKcz>:
    va_start(args, fmt);
    log(LOG_LEVEL_TRACE, fmt, args);
    va_end(args);
}

inline void spark::Logger::info(const char *fmt, ...) const {
   d42ca:	b40e      	push	{r1, r2, r3}
   d42cc:	b510      	push	{r4, lr}
   d42ce:	b08d      	sub	sp, #52	; 0x34
   d42d0:	aa0f      	add	r2, sp, #60	; 0x3c
    va_list args;
    va_start(args, fmt);
    log(LOG_LEVEL_INFO, fmt, args);
   d42d2:	6801      	ldr	r1, [r0, #0]
inline void spark::Logger::info(const char *fmt, ...) const {
   d42d4:	f852 4b04 	ldr.w	r4, [r2], #4
    va_start(args, fmt);
   d42d8:	9203      	str	r2, [sp, #12]
}

inline void spark::Logger::log(LogLevel level, const char *fmt, va_list args) const {
    LogAttributes attr;
    attr.size = sizeof(LogAttributes);
    attr.flags = 0;
   d42da:	2300      	movs	r3, #0
   d42dc:	2020      	movs	r0, #32
   d42de:	e9cd 0304 	strd	r0, r3, [sp, #16]
    log_message_v(level, name_, &attr, nullptr, fmt, args);
   d42e2:	e9cd 4200 	strd	r4, r2, [sp]
   d42e6:	201e      	movs	r0, #30
   d42e8:	aa04      	add	r2, sp, #16
   d42ea:	f004 f8ef 	bl	d84cc <log_message_v>
}
   d42ee:	b00d      	add	sp, #52	; 0x34
   d42f0:	e8bd 4010 	ldmia.w	sp!, {r4, lr}
   d42f4:	b003      	add	sp, #12
   d42f6:	4770      	bx	lr

000d42f8 <_ZN21PublishQueueAsyncBase7publishEPKcS1_N8particle5FlagsI15PublishFlagTypehEES5_>:
	inline  bool publish(const char *eventName, const char *data, PublishFlags flags1, PublishFlags flags2 = PublishFlags()) {
   d42f8:	b537      	push	{r0, r1, r2, r4, r5, lr}
		return publishCommon(eventName, data, 60, flags1, flags2);
   d42fa:	6804      	ldr	r4, [r0, #0]
	inline  bool publish(const char *eventName, const char *data, PublishFlags flags1, PublishFlags flags2 = PublishFlags()) {
   d42fc:	f89d 5018 	ldrb.w	r5, [sp, #24]
		return publishCommon(eventName, data, 60, flags1, flags2);
   d4300:	f88d 3000 	strb.w	r3, [sp]
   d4304:	f88d 5004 	strb.w	r5, [sp, #4]
   d4308:	68e4      	ldr	r4, [r4, #12]
   d430a:	233c      	movs	r3, #60	; 0x3c
   d430c:	47a0      	blx	r4
	}
   d430e:	b003      	add	sp, #12
   d4310:	bd30      	pop	{r4, r5, pc}
	...

000d4314 <_Z14UbidotsHandlerPKcS0_>:
void UbidotsHandler(const char *event, const char *data) {            // Looks at the response from Ubidots - Will reset Photon if no successful response
   d4314:	b510      	push	{r4, lr}
  if (!strlen(data)) {                                                // No data in response - Error
   d4316:	780b      	ldrb	r3, [r1, #0]
void UbidotsHandler(const char *event, const char *data) {            // Looks at the response from Ubidots - Will reset Photon if no successful response
   d4318:	b092      	sub	sp, #72	; 0x48
   d431a:	460c      	mov	r4, r1
  if (!strlen(data)) {                                                // No data in response - Error
   d431c:	b97b      	cbnz	r3, d433e <_Z14UbidotsHandlerPKcS0_+0x2a>
    snprintf(responseString, sizeof(responseString),"No Data");
   d431e:	4919      	ldr	r1, [pc, #100]	; (d4384 <_Z14UbidotsHandlerPKcS0_+0x70>)
   d4320:	a802      	add	r0, sp, #8
   d4322:	f006 fda5 	bl	dae70 <strcpy>
}

// particle::Flags<TagT, ValueT>
template<typename TagT, typename ValueT>
inline particle::Flags<TagT, ValueT>::Flags() :
        val_(0) {
   d4326:	2300      	movs	r3, #0
  publishQueue.publish("Ubidots Hook", responseString, PRIVATE);
   d4328:	f88d 3000 	strb.w	r3, [sp]
   d432c:	4b16      	ldr	r3, [pc, #88]	; (d4388 <_Z14UbidotsHandlerPKcS0_+0x74>)
   d432e:	4917      	ldr	r1, [pc, #92]	; (d438c <_Z14UbidotsHandlerPKcS0_+0x78>)
   d4330:	781b      	ldrb	r3, [r3, #0]
   d4332:	4817      	ldr	r0, [pc, #92]	; (d4390 <_Z14UbidotsHandlerPKcS0_+0x7c>)
   d4334:	aa02      	add	r2, sp, #8
   d4336:	f7ff ffdf 	bl	d42f8 <_ZN21PublishQueueAsyncBase7publishEPKcS1_N8particle5FlagsI15PublishFlagTypehEES5_>
}
   d433a:	b012      	add	sp, #72	; 0x48
   d433c:	bd10      	pop	{r4, pc}
  else if (atoi(data) == 200 || atoi(data) == 201) {
   d433e:	4608      	mov	r0, r1
   d4340:	f006 fd10 	bl	dad64 <atoi>
   d4344:	28c8      	cmp	r0, #200	; 0xc8
   d4346:	d10e      	bne.n	d4366 <_Z14UbidotsHandlerPKcS0_+0x52>
    snprintf(responseString, sizeof(responseString),"Response Received");
   d4348:	4912      	ldr	r1, [pc, #72]	; (d4394 <_Z14UbidotsHandlerPKcS0_+0x80>)
   d434a:	a802      	add	r0, sp, #8
   d434c:	f006 fd90 	bl	dae70 <strcpy>
    sysStatus.lastHookResponse = Time.now();                          // Record the last successful Webhook Response
   d4350:	f005 fd9d 	bl	d9e8e <_ZN9TimeClass3nowEv>
   d4354:	4b10      	ldr	r3, [pc, #64]	; (d4398 <_Z14UbidotsHandlerPKcS0_+0x84>)
   d4356:	61d8      	str	r0, [r3, #28]
    systemStatusWriteNeeded = true;
   d4358:	4b10      	ldr	r3, [pc, #64]	; (d439c <_Z14UbidotsHandlerPKcS0_+0x88>)
   d435a:	2201      	movs	r2, #1
   d435c:	701a      	strb	r2, [r3, #0]
    dataInFlight = false;                                             // Data has been received
   d435e:	4b10      	ldr	r3, [pc, #64]	; (d43a0 <_Z14UbidotsHandlerPKcS0_+0x8c>)
   d4360:	2200      	movs	r2, #0
   d4362:	701a      	strb	r2, [r3, #0]
   d4364:	e7df      	b.n	d4326 <_Z14UbidotsHandlerPKcS0_+0x12>
  else if (atoi(data) == 200 || atoi(data) == 201) {
   d4366:	4620      	mov	r0, r4
   d4368:	f006 fcfc 	bl	dad64 <atoi>
   d436c:	28c9      	cmp	r0, #201	; 0xc9
   d436e:	d0eb      	beq.n	d4348 <_Z14UbidotsHandlerPKcS0_+0x34>
    snprintf(responseString, sizeof(responseString), "Unknown response recevied %i",atoi(data));
   d4370:	4620      	mov	r0, r4
   d4372:	f006 fcf7 	bl	dad64 <atoi>
   d4376:	4a0b      	ldr	r2, [pc, #44]	; (d43a4 <_Z14UbidotsHandlerPKcS0_+0x90>)
   d4378:	4603      	mov	r3, r0
   d437a:	2140      	movs	r1, #64	; 0x40
   d437c:	a802      	add	r0, sp, #8
   d437e:	f004 fa19 	bl	d87b4 <snprintf>
   d4382:	e7d0      	b.n	d4326 <_Z14UbidotsHandlerPKcS0_+0x12>
   d4384:	000db090 	.word	0x000db090
   d4388:	2003e258 	.word	0x2003e258
   d438c:	000db0c7 	.word	0x000db0c7
   d4390:	2003e330 	.word	0x2003e330
   d4394:	000db098 	.word	0x000db098
   d4398:	2003e374 	.word	0x2003e374
   d439c:	2003e394 	.word	0x2003e394
   d43a0:	2003e2ee 	.word	0x2003e2ee
   d43a4:	000db0aa 	.word	0x000db0aa

000d43a8 <_Z14setverboseMode6String>:
{
   d43a8:	b537      	push	{r0, r1, r2, r4, r5, lr}
   d43aa:	4919      	ldr	r1, [pc, #100]	; (d4410 <_Z14setverboseMode6String+0x68>)
   d43ac:	4604      	mov	r4, r0
   d43ae:	f005 fa48 	bl	d9842 <_ZNK6String6equalsEPKc>
  if (command == "1")
   d43b2:	4605      	mov	r5, r0
   d43b4:	b1b0      	cbz	r0, d43e4 <_Z14setverboseMode6String+0x3c>
    sysStatus.verboseMode = true;
   d43b6:	4b17      	ldr	r3, [pc, #92]	; (d4414 <_Z14setverboseMode6String+0x6c>)
   d43b8:	2401      	movs	r4, #1
   d43ba:	711c      	strb	r4, [r3, #4]
    systemStatusWriteNeeded = true;
   d43bc:	4b16      	ldr	r3, [pc, #88]	; (d4418 <_Z14setverboseMode6String+0x70>)
   d43be:	701c      	strb	r4, [r3, #0]
    static bool connected(void) { return spark_cloud_flag_connected(); }
   d43c0:	f004 f938 	bl	d8634 <spark_cloud_flag_connected>
    if (Particle.connected()) publishQueue.publish("Mode","Set Verbose Mode", PRIVATE);
   d43c4:	b910      	cbnz	r0, d43cc <_Z14setverboseMode6String+0x24>
    return 1;
   d43c6:	2001      	movs	r0, #1
}
   d43c8:	b003      	add	sp, #12
   d43ca:	bd30      	pop	{r4, r5, pc}
   d43cc:	2300      	movs	r3, #0
    if (Particle.connected()) publishQueue.publish("Mode","Set Verbose Mode", PRIVATE);
   d43ce:	f88d 3000 	strb.w	r3, [sp]
   d43d2:	4b12      	ldr	r3, [pc, #72]	; (d441c <_Z14setverboseMode6String+0x74>)
   d43d4:	4a12      	ldr	r2, [pc, #72]	; (d4420 <_Z14setverboseMode6String+0x78>)
   d43d6:	781b      	ldrb	r3, [r3, #0]
    if (Particle.connected()) publishQueue.publish("Mode","Cleared Verbose Mode", PRIVATE);
   d43d8:	4912      	ldr	r1, [pc, #72]	; (d4424 <_Z14setverboseMode6String+0x7c>)
   d43da:	4813      	ldr	r0, [pc, #76]	; (d4428 <_Z14setverboseMode6String+0x80>)
   d43dc:	f7ff ff8c 	bl	d42f8 <_ZN21PublishQueueAsyncBase7publishEPKcS1_N8particle5FlagsI15PublishFlagTypehEES5_>
   d43e0:	4620      	mov	r0, r4
   d43e2:	e7f1      	b.n	d43c8 <_Z14setverboseMode6String+0x20>
   d43e4:	4911      	ldr	r1, [pc, #68]	; (d442c <_Z14setverboseMode6String+0x84>)
   d43e6:	4620      	mov	r0, r4
   d43e8:	f005 fa2b 	bl	d9842 <_ZNK6String6equalsEPKc>
  else if (command == "0")
   d43ec:	2800      	cmp	r0, #0
   d43ee:	d0eb      	beq.n	d43c8 <_Z14setverboseMode6String+0x20>
    sysStatus.verboseMode = false;
   d43f0:	4b08      	ldr	r3, [pc, #32]	; (d4414 <_Z14setverboseMode6String+0x6c>)
   d43f2:	711d      	strb	r5, [r3, #4]
    systemStatusWriteNeeded = true;
   d43f4:	4b08      	ldr	r3, [pc, #32]	; (d4418 <_Z14setverboseMode6String+0x70>)
   d43f6:	2401      	movs	r4, #1
   d43f8:	701c      	strb	r4, [r3, #0]
   d43fa:	f004 f91b 	bl	d8634 <spark_cloud_flag_connected>
    if (Particle.connected()) publishQueue.publish("Mode","Cleared Verbose Mode", PRIVATE);
   d43fe:	2800      	cmp	r0, #0
   d4400:	d0e1      	beq.n	d43c6 <_Z14setverboseMode6String+0x1e>
   d4402:	4b06      	ldr	r3, [pc, #24]	; (d441c <_Z14setverboseMode6String+0x74>)
   d4404:	f88d 5000 	strb.w	r5, [sp]
   d4408:	781b      	ldrb	r3, [r3, #0]
   d440a:	4a09      	ldr	r2, [pc, #36]	; (d4430 <_Z14setverboseMode6String+0x88>)
   d440c:	e7e4      	b.n	d43d8 <_Z14setverboseMode6String+0x30>
   d440e:	bf00      	nop
   d4410:	000db050 	.word	0x000db050
   d4414:	2003e374 	.word	0x2003e374
   d4418:	2003e394 	.word	0x2003e394
   d441c:	2003e258 	.word	0x2003e258
   d4420:	000db0d4 	.word	0x000db0d4
   d4424:	000db0f7 	.word	0x000db0f7
   d4428:	2003e330 	.word	0x2003e330
   d442c:	000db0e5 	.word	0x000db0e5
   d4430:	000db0e7 	.word	0x000db0e7
   d4434:	00000000 	.word	0x00000000

000d4438 <_Z11setTimeZone6String>:
{
   d4438:	e92d 47f0 	stmdb	sp!, {r4, r5, r6, r7, r8, r9, sl, lr}
   d443c:	b0c8      	sub	sp, #288	; 0x120
   d443e:	4680      	mov	r8, r0
  Particle.syncTime();                                                        // Set the clock each day
   d4440:	f7ff fe98 	bl	d4174 <_ZN10CloudClass8syncTimeEv.isra.0>
        const system_tick_t start = millis();
   d4444:	f7ff ff3e 	bl	d42c4 <_ZN11SystemClass6millisEv>
        return waitConditionWhile(_condition, [=]{ return (millis()-start)<timeout; });
   d4448:	f04f 0a00 	mov.w	sl, #0
        const system_tick_t start = millis();
   d444c:	4681      	mov	r9, r0
        while (_while() && !_condition()) {
   d444e:	f247 562f 	movw	r6, #29999	; 0x752f
   d4452:	2700      	movs	r7, #0
        return waitConditionWhile(_condition, [=]{ return (millis()-start)<timeout; });
   d4454:	f7ff ff36 	bl	d42c4 <_ZN11SystemClass6millisEv>
   d4458:	ebb0 0409 	subs.w	r4, r0, r9
   d445c:	eb61 050a 	sbc.w	r5, r1, sl
        while (_while() && !_condition()) {
   d4460:	42af      	cmp	r7, r5
   d4462:	bf08      	it	eq
   d4464:	42a6      	cmpeq	r6, r4
   d4466:	d305      	bcc.n	d4474 <_Z11setTimeZone6String+0x3c>
  waitFor(Particle.syncTimeDone,30000);                                       // Wait for up to 30 seconds for the SyncTime to complete
   d4468:	f7ff fe8e 	bl	d4188 <_ZN10CloudClass12syncTimeDoneEv.isra.0>
   d446c:	b910      	cbnz	r0, d4474 <_Z11setTimeZone6String+0x3c>
            spark_process();
   d446e:	f004 f8d1 	bl	d8614 <spark_process>
        while (_while() && !_condition()) {
   d4472:	e7ef      	b.n	d4454 <_Z11setTimeZone6String+0x1c>
   d4474:	f7ff fe88 	bl	d4188 <_ZN10CloudClass12syncTimeDoneEv.isra.0>
  int8_t tempTimeZoneOffset = strtol(command,&pEND,10);                       // Looks for the first integer and interprets it
   d4478:	f8d8 0000 	ldr.w	r0, [r8]
   d447c:	220a      	movs	r2, #10
   d447e:	a903      	add	r1, sp, #12
   d4480:	f006 fdb0 	bl	dafe4 <strtol>
  if ((tempTimeZoneOffset < -12) | (tempTimeZoneOffset > 12)) return 0;       // Make sure it falls in a valid range or send a "fail" result
   d4484:	f100 030c 	add.w	r3, r0, #12
   d4488:	b2db      	uxtb	r3, r3
   d448a:	2b18      	cmp	r3, #24
   d448c:	d848      	bhi.n	d4520 <_Z11setTimeZone6String+0xe8>
  int8_t tempTimeZoneOffset = strtol(command,&pEND,10);                       // Looks for the first integer and interprets it
   d448e:	b245      	sxtb	r5, r0
  sysStatus.timezone = (float)tempTimeZoneOffset;
   d4490:	ee07 5a90 	vmov	s15, r5
   d4494:	4b26      	ldr	r3, [pc, #152]	; (d4530 <_Z11setTimeZone6String+0xf8>)
   d4496:	eeb8 0ae7 	vcvt.f32.s32	s0, s15
  systemStatusWriteNeeded = true;                                             // Need to store to FRAM back in the main loop
   d449a:	2401      	movs	r4, #1
  sysStatus.timezone = (float)tempTimeZoneOffset;
   d449c:	ed83 0a05 	vstr	s0, [r3, #20]
  Time.zone(sysStatus.timezone);
   d44a0:	f005 fb8c 	bl	d9bbc <_ZN9TimeClass4zoneEf>
  systemStatusWriteNeeded = true;                                             // Need to store to FRAM back in the main loop
   d44a4:	4b23      	ldr	r3, [pc, #140]	; (d4534 <_Z11setTimeZone6String+0xfc>)
   d44a6:	701c      	strb	r4, [r3, #0]
  snprintf(currentOffsetStr,sizeof(currentOffsetStr),"%2.1f UTC",(Time.local() - Time.now()) / 3600.0);
   d44a8:	f005 fd36 	bl	d9f18 <_ZN9TimeClass5localEv>
   d44ac:	4606      	mov	r6, r0
   d44ae:	f005 fcee 	bl	d9e8e <_ZN9TimeClass3nowEv>
   d44b2:	1a30      	subs	r0, r6, r0
   d44b4:	f006 f910 	bl	da6d8 <__aeabi_i2d>
   d44b8:	a31b      	add	r3, pc, #108	; (adr r3, d4528 <_Z11setTimeZone6String+0xf0>)
   d44ba:	e9d3 2300 	ldrd	r2, r3, [r3]
   d44be:	f006 fa9f 	bl	daa00 <__aeabi_ddiv>
   d44c2:	4a1d      	ldr	r2, [pc, #116]	; (d4538 <_Z11setTimeZone6String+0x100>)
   d44c4:	e9cd 0100 	strd	r0, r1, [sp]
   d44c8:	210a      	movs	r1, #10
   d44ca:	481c      	ldr	r0, [pc, #112]	; (d453c <_Z11setTimeZone6String+0x104>)
   d44cc:	f004 f972 	bl	d87b4 <snprintf>
   d44d0:	f004 f8b0 	bl	d8634 <spark_cloud_flag_connected>
  if (Particle.connected()) {
   d44d4:	b310      	cbz	r0, d451c <_Z11setTimeZone6String+0xe4>
    snprintf(data, sizeof(data), "Time zone offset %i",tempTimeZoneOffset);
   d44d6:	462b      	mov	r3, r5
   d44d8:	4a19      	ldr	r2, [pc, #100]	; (d4540 <_Z11setTimeZone6String+0x108>)
   d44da:	4d1a      	ldr	r5, [pc, #104]	; (d4544 <_Z11setTimeZone6String+0x10c>)
   d44dc:	f44f 7180 	mov.w	r1, #256	; 0x100
   d44e0:	2600      	movs	r6, #0
   d44e2:	a808      	add	r0, sp, #32
   d44e4:	f004 f966 	bl	d87b4 <snprintf>
    publishQueue.publish("Time",data, PRIVATE);
   d44e8:	f88d 6000 	strb.w	r6, [sp]
   d44ec:	4916      	ldr	r1, [pc, #88]	; (d4548 <_Z11setTimeZone6String+0x110>)
   d44ee:	782b      	ldrb	r3, [r5, #0]
   d44f0:	4816      	ldr	r0, [pc, #88]	; (d454c <_Z11setTimeZone6String+0x114>)
   d44f2:	aa08      	add	r2, sp, #32
   d44f4:	f7ff ff00 	bl	d42f8 <_ZN21PublishQueueAsyncBase7publishEPKcS1_N8particle5FlagsI15PublishFlagTypehEES5_>
    publishQueue.publish("Time",Time.timeStr(Time.now()), PRIVATE);
   d44f8:	f005 fcc9 	bl	d9e8e <_ZN9TimeClass3nowEv>
   d44fc:	4602      	mov	r2, r0
   d44fe:	17c3      	asrs	r3, r0, #31
   d4500:	a804      	add	r0, sp, #16
   d4502:	f005 fbc1 	bl	d9c88 <_ZN9TimeClass7timeStrEx>
   d4506:	f88d 6000 	strb.w	r6, [sp]
   d450a:	782b      	ldrb	r3, [r5, #0]
   d450c:	9a04      	ldr	r2, [sp, #16]
   d450e:	490e      	ldr	r1, [pc, #56]	; (d4548 <_Z11setTimeZone6String+0x110>)
   d4510:	480e      	ldr	r0, [pc, #56]	; (d454c <_Z11setTimeZone6String+0x114>)
   d4512:	f7ff fef1 	bl	d42f8 <_ZN21PublishQueueAsyncBase7publishEPKcS1_N8particle5FlagsI15PublishFlagTypehEES5_>
   d4516:	a804      	add	r0, sp, #16
   d4518:	f005 f91a 	bl	d9750 <_ZN6StringD1Ev>
  return 1;
   d451c:	4620      	mov	r0, r4
   d451e:	e000      	b.n	d4522 <_Z11setTimeZone6String+0xea>
  if ((tempTimeZoneOffset < -12) | (tempTimeZoneOffset > 12)) return 0;       // Make sure it falls in a valid range or send a "fail" result
   d4520:	2000      	movs	r0, #0
}
   d4522:	b048      	add	sp, #288	; 0x120
   d4524:	e8bd 87f0 	ldmia.w	sp!, {r4, r5, r6, r7, r8, r9, sl, pc}
   d4528:	00000000 	.word	0x00000000
   d452c:	40ac2000 	.word	0x40ac2000
   d4530:	2003e374 	.word	0x2003e374
   d4534:	2003e394 	.word	0x2003e394
   d4538:	000db0fc 	.word	0x000db0fc
   d453c:	2003e2e4 	.word	0x2003e2e4
   d4540:	000db106 	.word	0x000db106
   d4544:	2003e258 	.word	0x2003e258
   d4548:	000db11a 	.word	0x000db11a
   d454c:	2003e330 	.word	0x2003e330

000d4550 <_Z17setSampleInterval6String>:
int setSampleInterval(String command) {                                      // This is the number of hours that will be added for Daylight Savings Time 0 (off) - 2
   d4550:	b530      	push	{r4, r5, lr}
   d4552:	b0c5      	sub	sp, #276	; 0x114
  int8_t tempSampleInterval = strtol(command,&pEND,10);                      // Looks for the first integer and interprets it
   d4554:	220a      	movs	r2, #10
   d4556:	6800      	ldr	r0, [r0, #0]
   d4558:	a903      	add	r1, sp, #12
   d455a:	f006 fd43 	bl	dafe4 <strtol>
  if ((tempSampleInterval <= 0) | (tempSampleInterval > 60)) return 0;              // Make sure it falls in a valid range or send a "fail" result
   d455e:	b2c3      	uxtb	r3, r0
   d4560:	1e5a      	subs	r2, r3, #1
   d4562:	2a3b      	cmp	r2, #59	; 0x3b
   d4564:	d81f      	bhi.n	d45a6 <_Z17setSampleInterval6String+0x56>
  systemStatusWriteNeeded = true;
   d4566:	4a11      	ldr	r2, [pc, #68]	; (d45ac <_Z17setSampleInterval6String+0x5c>)
  sysStatus.sampleIntervalMin = tempSampleInterval;
   d4568:	4d11      	ldr	r5, [pc, #68]	; (d45b0 <_Z17setSampleInterval6String+0x60>)
  snprintf(sampleIntervalStr, sizeof(sampleIntervalStr),"%i minutes", sysStatus.sampleIntervalMin);
   d456a:	4812      	ldr	r0, [pc, #72]	; (d45b4 <_Z17setSampleInterval6String+0x64>)
  sysStatus.sampleIntervalMin = tempSampleInterval;
   d456c:	71ab      	strb	r3, [r5, #6]
  systemStatusWriteNeeded = true;
   d456e:	2401      	movs	r4, #1
   d4570:	7014      	strb	r4, [r2, #0]
  snprintf(sampleIntervalStr, sizeof(sampleIntervalStr),"%i minutes", sysStatus.sampleIntervalMin);
   d4572:	210c      	movs	r1, #12
   d4574:	4a10      	ldr	r2, [pc, #64]	; (d45b8 <_Z17setSampleInterval6String+0x68>)
   d4576:	f004 f91d 	bl	d87b4 <snprintf>
  snprintf(data, sizeof(data), "Sample Interval is now %i minutes",sysStatus.sampleIntervalMin);
   d457a:	79ab      	ldrb	r3, [r5, #6]
   d457c:	4a0f      	ldr	r2, [pc, #60]	; (d45bc <_Z17setSampleInterval6String+0x6c>)
   d457e:	f44f 7180 	mov.w	r1, #256	; 0x100
   d4582:	a804      	add	r0, sp, #16
   d4584:	f004 f916 	bl	d87b4 <snprintf>
   d4588:	f004 f854 	bl	d8634 <spark_cloud_flag_connected>
  if (Particle.connected()) {
   d458c:	b148      	cbz	r0, d45a2 <_Z17setSampleInterval6String+0x52>
   d458e:	2300      	movs	r3, #0
    publishQueue.publish("Interval", data, PRIVATE);
   d4590:	f88d 3000 	strb.w	r3, [sp]
   d4594:	4b0a      	ldr	r3, [pc, #40]	; (d45c0 <_Z17setSampleInterval6String+0x70>)
   d4596:	490b      	ldr	r1, [pc, #44]	; (d45c4 <_Z17setSampleInterval6String+0x74>)
   d4598:	781b      	ldrb	r3, [r3, #0]
   d459a:	480b      	ldr	r0, [pc, #44]	; (d45c8 <_Z17setSampleInterval6String+0x78>)
   d459c:	aa04      	add	r2, sp, #16
   d459e:	f7ff feab 	bl	d42f8 <_ZN21PublishQueueAsyncBase7publishEPKcS1_N8particle5FlagsI15PublishFlagTypehEES5_>
  return 1;
   d45a2:	4620      	mov	r0, r4
   d45a4:	e000      	b.n	d45a8 <_Z17setSampleInterval6String+0x58>
  if ((tempSampleInterval <= 0) | (tempSampleInterval > 60)) return 0;              // Make sure it falls in a valid range or send a "fail" result
   d45a6:	2000      	movs	r0, #0
}
   d45a8:	b045      	add	sp, #276	; 0x114
   d45aa:	bd30      	pop	{r4, r5, pc}
   d45ac:	2003e394 	.word	0x2003e394
   d45b0:	2003e374 	.word	0x2003e374
   d45b4:	2003e0fc 	.word	0x2003e0fc
   d45b8:	000db136 	.word	0x000db136
   d45bc:	000db11f 	.word	0x000db11f
   d45c0:	2003e258 	.word	0x2003e258
   d45c4:	000db356 	.word	0x000db356
   d45c8:	2003e330 	.word	0x2003e330

000d45cc <_Z9sendEventv>:
void sendEvent() {
   d45cc:	e92d 4ff0 	stmdb	sp!, {r4, r5, r6, r7, r8, r9, sl, fp, lr}
  snprintf(data, sizeof(data), "{\"cabinT\":%4.2f, \"ventT\":%4.2f, \"outsideT\":%4.2f, \"battery\":%i,  \"key1\":\"%s\", \"resets\":%i, \"alerts\":%i, \"timestamp\":%lu000, \"lat\":%f, \"lng\":%f}",current.tempArray[0], current.tempArray[1], current.tempArray[2],sysStatus.stateOfCharge, batteryContextStr, sysStatus.resetCount, current.alertCount, Time.now(), current.latitude, current.longitude);
   d45d0:	4b23      	ldr	r3, [pc, #140]	; (d4660 <_Z9sendEventv+0x94>)
   d45d2:	4c24      	ldr	r4, [pc, #144]	; (d4664 <_Z9sendEventv+0x98>)
   d45d4:	689d      	ldr	r5, [r3, #8]
   d45d6:	69a2      	ldr	r2, [r4, #24]
   d45d8:	691b      	ldr	r3, [r3, #16]
void sendEvent() {
   d45da:	b0d3      	sub	sp, #332	; 0x14c
  snprintf(data, sizeof(data), "{\"cabinT\":%4.2f, \"ventT\":%4.2f, \"outsideT\":%4.2f, \"battery\":%i,  \"key1\":\"%s\", \"resets\":%i, \"alerts\":%i, \"timestamp\":%lu000, \"lat\":%f, \"lng\":%f}",current.tempArray[0], current.tempArray[1], current.tempArray[2],sysStatus.stateOfCharge, batteryContextStr, sysStatus.resetCount, current.alertCount, Time.now(), current.latitude, current.longitude);
   d45dc:	e9d4 6700 	ldrd	r6, r7, [r4]
   d45e0:	e9d4 8902 	ldrd	r8, r9, [r4, #8]
   d45e4:	e9d4 ab04 	ldrd	sl, fp, [r4, #16]
   d45e8:	9311      	str	r3, [sp, #68]	; 0x44
   d45ea:	9210      	str	r2, [sp, #64]	; 0x40
   d45ec:	f005 fc4f 	bl	d9e8e <_ZN9TimeClass3nowEv>
   d45f0:	ed94 7b0a 	vldr	d7, [r4, #40]	; 0x28
   d45f4:	9b11      	ldr	r3, [sp, #68]	; 0x44
   d45f6:	9308      	str	r3, [sp, #32]
   d45f8:	ed8d 7b0e 	vstr	d7, [sp, #56]	; 0x38
   d45fc:	ed94 7b08 	vldr	d7, [r4, #32]
   d4600:	4b19      	ldr	r3, [pc, #100]	; (d4668 <_Z9sendEventv+0x9c>)
   d4602:	9a10      	ldr	r2, [sp, #64]	; 0x40
   d4604:	900a      	str	r0, [sp, #40]	; 0x28
   d4606:	ed8d 7b0c 	vstr	d7, [sp, #48]	; 0x30
   d460a:	e9cd 5306 	strd	r5, r3, [sp, #24]
   d460e:	9209      	str	r2, [sp, #36]	; 0x24
   d4610:	e9cd ab04 	strd	sl, fp, [sp, #16]
   d4614:	e9cd 8902 	strd	r8, r9, [sp, #8]
   d4618:	e9cd 6700 	strd	r6, r7, [sp]
   d461c:	4a13      	ldr	r2, [pc, #76]	; (d466c <_Z9sendEventv+0xa0>)
   d461e:	f44f 7180 	mov.w	r1, #256	; 0x100
   d4622:	a812      	add	r0, sp, #72	; 0x48
   d4624:	f004 f8c6 	bl	d87b4 <snprintf>
  publishQueue.publish("Ubidots-MBTA-Hook-v2-Parse", data, PRIVATE);
   d4628:	2300      	movs	r3, #0
   d462a:	f88d 3000 	strb.w	r3, [sp]
   d462e:	4b10      	ldr	r3, [pc, #64]	; (d4670 <_Z9sendEventv+0xa4>)
   d4630:	4910      	ldr	r1, [pc, #64]	; (d4674 <_Z9sendEventv+0xa8>)
   d4632:	781b      	ldrb	r3, [r3, #0]
   d4634:	4810      	ldr	r0, [pc, #64]	; (d4678 <_Z9sendEventv+0xac>)
   d4636:	aa12      	add	r2, sp, #72	; 0x48
   d4638:	f7ff fe5e 	bl	d42f8 <_ZN21PublishQueueAsyncBase7publishEPKcS1_N8particle5FlagsI15PublishFlagTypehEES5_>
  dataInFlight = true;                                                // set the data inflight flag
   d463c:	4b0f      	ldr	r3, [pc, #60]	; (d467c <_Z9sendEventv+0xb0>)
   d463e:	2201      	movs	r2, #1
   d4640:	701a      	strb	r2, [r3, #0]

#ifdef __cplusplus
extern "C" {
#endif

inline system_tick_t millis(void) { return HAL_Timer_Get_Milli_Seconds(); }
   d4642:	f003 fd93 	bl	d816c <HAL_Timer_Get_Milli_Seconds>
  webhookTimeStamp = millis();
   d4646:	4b0e      	ldr	r3, [pc, #56]	; (d4680 <_Z9sendEventv+0xb4>)
   d4648:	6018      	str	r0, [r3, #0]
  currentHourlyPeriod = Time.hour();
   d464a:	f005 fc31 	bl	d9eb0 <_ZN9TimeClass4hourEv>
   d464e:	4b0d      	ldr	r3, [pc, #52]	; (d4684 <_Z9sendEventv+0xb8>)
   d4650:	6018      	str	r0, [r3, #0]
  currentMinutePeriod = Time.minute();
   d4652:	f005 fc39 	bl	d9ec8 <_ZN9TimeClass6minuteEv>
   d4656:	4b0c      	ldr	r3, [pc, #48]	; (d4688 <_Z9sendEventv+0xbc>)
   d4658:	6018      	str	r0, [r3, #0]
}
   d465a:	b053      	add	sp, #332	; 0x14c
   d465c:	e8bd 8ff0 	ldmia.w	sp!, {r4, r5, r6, r7, r8, r9, sl, fp, pc}
   d4660:	2003e374 	.word	0x2003e374
   d4664:	2003e2a8 	.word	0x2003e2a8
   d4668:	2003e27c 	.word	0x2003e27c
   d466c:	000db141 	.word	0x000db141
   d4670:	2003e258 	.word	0x2003e258
   d4674:	000db1d1 	.word	0x000db1d1
   d4678:	2003e330 	.word	0x2003e330
   d467c:	2003e2ee 	.word	0x2003e2ee
   d4680:	2003e5b4 	.word	0x2003e5b4
   d4684:	2003e2dc 	.word	0x2003e2dc
   d4688:	2003e2e0 	.word	0x2003e2e0
   d468c:	00000000 	.word	0x00000000

000d4690 <_Z7getTempPh>:
double getTemp(uint8_t addr[8]) {
   d4690:	b537      	push	{r0, r1, r2, r4, r5, lr}
   d4692:	4605      	mov	r5, r0
  int   i = 0;
   d4694:	2400      	movs	r4, #0
    _temp = ds18b20.getTemperature(addr);
   d4696:	4812      	ldr	r0, [pc, #72]	; (d46e0 <_Z7getTempPh+0x50>)
   d4698:	2200      	movs	r2, #0
   d469a:	4629      	mov	r1, r5
   d469c:	f002 fcfc 	bl	d7098 <_ZN7DS18B2014getTemperatureEPhb>
  } while (!ds18b20.crcCheck() && MAXRETRY > i++);
   d46a0:	480f      	ldr	r0, [pc, #60]	; (d46e0 <_Z7getTempPh+0x50>)
    _temp = ds18b20.getTemperature(addr);
   d46a2:	ed8d 0a01 	vstr	s0, [sp, #4]
  } while (!ds18b20.crcCheck() && MAXRETRY > i++);
   d46a6:	f002 fdd5 	bl	d7254 <_ZN7DS18B208crcCheckEv>
   d46aa:	ed9d 0a01 	vldr	s0, [sp, #4]
   d46ae:	b928      	cbnz	r0, d46bc <_Z7getTempPh+0x2c>
   d46b0:	3401      	adds	r4, #1
   d46b2:	2c04      	cmp	r4, #4
   d46b4:	d1ef      	bne.n	d4696 <_Z7getTempPh+0x6>
  else _temp = NAN;
   d46b6:	ed9f 0b08 	vldr	d0, [pc, #32]	; d46d8 <_Z7getTempPh+0x48>
  return _temp;
   d46ba:	e00a      	b.n	d46d2 <_Z7getTempPh+0x42>
  if (i < MAXRETRY) {
   d46bc:	2c03      	cmp	r4, #3
   d46be:	d0fa      	beq.n	d46b6 <_Z7getTempPh+0x26>
    _temp = ds18b20.convertToFahrenheit(_temp);
   d46c0:	4807      	ldr	r0, [pc, #28]	; (d46e0 <_Z7getTempPh+0x50>)
   d46c2:	f002 fdad 	bl	d7220 <_ZN7DS18B2019convertToFahrenheitEf>
   d46c6:	ee10 0a10 	vmov	r0, s0
   d46ca:	f006 f817 	bl	da6fc <__aeabi_f2d>
   d46ce:	ec41 0b10 	vmov	d0, r0, r1
}
   d46d2:	b003      	add	sp, #12
   d46d4:	bd30      	pop	{r4, r5, pc}
   d46d6:	bf00      	nop
   d46d8:	00000000 	.word	0x00000000
   d46dc:	7ff80000 	.word	0x7ff80000
   d46e0:	2003e2f0 	.word	0x2003e2f0

000d46e4 <_Z17getSignalStrengthv>:
void getSignalStrength() {
   d46e4:	b530      	push	{r4, r5, lr}
  const char* radioTech[10] = {"Unknown","None","WiFi","GSM","UMTS","CDMA","LTE","IEEE802154","LTE_CAT_M1","LTE_CAT_NB1"};
   d46e6:	4d19      	ldr	r5, [pc, #100]	; (d474c <_Z17getSignalStrengthv+0x68>)
   d46e8:	cd0f      	ldmia	r5!, {r0, r1, r2, r3}
void getSignalStrength() {
   d46ea:	b099      	sub	sp, #100	; 0x64
  const char* radioTech[10] = {"Unknown","None","WiFi","GSM","UMTS","CDMA","LTE","IEEE802154","LTE_CAT_M1","LTE_CAT_NB1"};
   d46ec:	ac04      	add	r4, sp, #16
   d46ee:	c40f      	stmia	r4!, {r0, r1, r2, r3}
   d46f0:	cd0f      	ldmia	r5!, {r0, r1, r2, r3}
   d46f2:	c40f      	stmia	r4!, {r0, r1, r2, r3}
   d46f4:	e895 0003 	ldmia.w	r5, {r0, r1}
   d46f8:	e884 0003 	stmia.w	r4, {r0, r1}
  CellularSignal sig = Cellular.RSSI();
   d46fc:	4914      	ldr	r1, [pc, #80]	; (d4750 <_Z17getSignalStrengthv+0x6c>)
   d46fe:	a80e      	add	r0, sp, #56	; 0x38
   d4700:	f004 f90e 	bl	d8920 <_ZN5spark13CellularClass4RSSIEv>
  auto rat = sig.getAccessTechnology();
   d4704:	a80e      	add	r0, sp, #56	; 0x38
   d4706:	f004 f95e 	bl	d89c6 <_ZNK14CellularSignal19getAccessTechnologyEv>
   d470a:	4604      	mov	r4, r0
  float strengthPercentage = sig.getStrength();
   d470c:	a80e      	add	r0, sp, #56	; 0x38
   d470e:	f004 f963 	bl	d89d8 <_ZNK14CellularSignal11getStrengthEv>
  float qualityPercentage = sig.getQuality();
   d4712:	a80e      	add	r0, sp, #56	; 0x38
  float strengthPercentage = sig.getStrength();
   d4714:	ee10 5a10 	vmov	r5, s0
  float qualityPercentage = sig.getQuality();
   d4718:	f004 f98e 	bl	d8a38 <_ZNK14CellularSignal10getQualityEv>
  snprintf(SignalString,sizeof(SignalString), "%s S:%2.0f%%, Q:%2.0f%% ", radioTech[rat], strengthPercentage, qualityPercentage);
   d471c:	ab18      	add	r3, sp, #96	; 0x60
  float qualityPercentage = sig.getQuality();
   d471e:	ee10 0a10 	vmov	r0, s0
  snprintf(SignalString,sizeof(SignalString), "%s S:%2.0f%%, Q:%2.0f%% ", radioTech[rat], strengthPercentage, qualityPercentage);
   d4722:	eb03 0484 	add.w	r4, r3, r4, lsl #2
   d4726:	f005 ffe9 	bl	da6fc <__aeabi_f2d>
   d472a:	e9cd 0102 	strd	r0, r1, [sp, #8]
   d472e:	4628      	mov	r0, r5
   d4730:	f005 ffe4 	bl	da6fc <__aeabi_f2d>
   d4734:	e9cd 0100 	strd	r0, r1, [sp]
   d4738:	4a06      	ldr	r2, [pc, #24]	; (d4754 <_Z17getSignalStrengthv+0x70>)
   d473a:	f854 3c50 	ldr.w	r3, [r4, #-80]
   d473e:	4806      	ldr	r0, [pc, #24]	; (d4758 <_Z17getSignalStrengthv+0x74>)
   d4740:	2140      	movs	r1, #64	; 0x40
   d4742:	f004 f837 	bl	d87b4 <snprintf>
}
   d4746:	b019      	add	sp, #100	; 0x64
   d4748:	bd30      	pop	{r4, r5, pc}
   d474a:	bf00      	nop
   d474c:	000db44c 	.word	0x000db44c
   d4750:	2003e5ec 	.word	0x2003e5ec
   d4754:	000db1ec 	.word	0x000db1ec
   d4758:	2003e208 	.word	0x2003e208

000d475c <_Z14setPowerConfigv>:
int setPowerConfig() {
   d475c:	b510      	push	{r4, lr}

class SystemPowerConfiguration {
public:

    SystemPowerConfiguration()
            : conf_{} {
   d475e:	2420      	movs	r4, #32
   d4760:	b090      	sub	sp, #64	; 0x40
   d4762:	4622      	mov	r2, r4
   d4764:	2100      	movs	r1, #0
   d4766:	4668      	mov	r0, sp
   d4768:	f006 fb4c 	bl	dae04 <memset>
   d476c:	4622      	mov	r2, r4
   d476e:	2100      	movs	r1, #0
   d4770:	eb0d 0004 	add.w	r0, sp, r4
        conf_.size = sizeof(conf_);
   d4774:	f88d 4005 	strb.w	r4, [sp, #5]
            : conf_{} {
   d4778:	f006 fb44 	bl	dae04 <memset>
        return (hal_timer_millis(nullptr) / 1000);
    }

#if HAL_PLATFORM_POWER_MANAGEMENT
    int setPowerConfiguration(const particle::SystemPowerConfiguration& conf) {
        return system_power_management_set_config(conf.config(), nullptr);
   d477c:	2100      	movs	r1, #0
   d477e:	eb0d 0004 	add.w	r0, sp, r4
        conf_.size = sizeof(conf_);
   d4782:	f88d 4025 	strb.w	r4, [sp, #37]	; 0x25
   d4786:	f003 ff17 	bl	d85b8 <system_power_management_set_config>

    SystemPowerConfiguration(SystemPowerConfiguration&&) = default;
    SystemPowerConfiguration& operator=(SystemPowerConfiguration&&) = default;

    SystemPowerConfiguration& powerSourceMinVoltage(uint16_t voltage) {
        conf_.vin_min_voltage = voltage;
   d478a:	f241 0370 	movw	r3, #4208	; 0x1070
   d478e:	f8ad 3006 	strh.w	r3, [sp, #6]
        return *this;
    }

    SystemPowerConfiguration& powerSourceMaxCurrent(uint16_t current) {
        conf_.vin_max_current = current;
   d4792:	4b08      	ldr	r3, [pc, #32]	; (d47b4 <_Z14setPowerConfigv+0x58>)
   d4794:	9302      	str	r3, [sp, #8]
        return *this;
    }

    SystemPowerConfiguration& batteryChargeVoltage(uint16_t voltage) {
        conf_.termination_voltage = voltage;
   d4796:	f241 0310 	movw	r3, #4112	; 0x1010
   d479a:	f8ad 300c 	strh.w	r3, [sp, #12]
        conf_.charge_current = current;
        return *this;
    }

    SystemPowerConfiguration& feature(EnumFlags<SystemPowerFeature> f) {
        conf_.flags |= f.value();
   d479e:	9b00      	ldr	r3, [sp, #0]
   d47a0:	2100      	movs	r1, #0
   d47a2:	f443 7300 	orr.w	r3, r3, #512	; 0x200
   d47a6:	4668      	mov	r0, sp
   d47a8:	9300      	str	r3, [sp, #0]
   d47aa:	f003 ff05 	bl	d85b8 <system_power_management_set_config>
}
   d47ae:	b010      	add	sp, #64	; 0x40
   d47b0:	bd10      	pop	{r4, pc}
   d47b2:	bf00      	nop
   d47b4:	03840384 	.word	0x03840384

000d47b8 <_Z17connectToParticlev>:
bool connectToParticle() {
   d47b8:	e92d 4ff8 	stmdb	sp!, {r3, r4, r5, r6, r7, r8, r9, sl, fp, lr}

    IPAddress localIP() {
        return IPAddress(((CellularConfig*)network_config(*this, 0, NULL))->nw.aucIP);
    }
    void on() {
        network_on(*this, 0, 0, NULL);
   d47bc:	481d      	ldr	r0, [pc, #116]	; (d4834 <_Z17connectToParticlev+0x7c>)
	/**
	 * Lifesign that the application is still working normally.
	 */
	static void checkin()
	{
		last_checkin = current_time();
   d47be:	f8df a080 	ldr.w	sl, [pc, #128]	; d4840 <_Z17connectToParticlev+0x88>
   d47c2:	6840      	ldr	r0, [r0, #4]
   d47c4:	2300      	movs	r3, #0
   d47c6:	461a      	mov	r2, r3
   d47c8:	4619      	mov	r1, r3
   d47ca:	f003 ffa3 	bl	d8714 <network_on>
    static bool disconnected(void) { return !connected(); }
    static void connect(void) {
        spark_cloud_flag_connect();
   d47ce:	f003 ff29 	bl	d8624 <spark_cloud_flag_connect>
   d47d2:	f44f 7496 	mov.w	r4, #300	; 0x12c
        return waitConditionWhile(_condition, [=]{ return (millis()-start)<timeout; });
   d47d6:	f04f 0b00 	mov.w	fp, #0
        while (_while() && !_condition()) {
   d47da:	f240 38e7 	movw	r8, #999	; 0x3e7
   d47de:	f04f 0900 	mov.w	r9, #0
        const system_tick_t start = millis();
   d47e2:	f7ff fd6f 	bl	d42c4 <_ZN11SystemClass6millisEv>
   d47e6:	4605      	mov	r5, r0
        return waitConditionWhile(_condition, [=]{ return (millis()-start)<timeout; });
   d47e8:	f7ff fd6c 	bl	d42c4 <_ZN11SystemClass6millisEv>
   d47ec:	1b46      	subs	r6, r0, r5
   d47ee:	eb61 070b 	sbc.w	r7, r1, fp
        while (_while() && !_condition()) {
   d47f2:	45b9      	cmp	r9, r7
   d47f4:	bf08      	it	eq
   d47f6:	45b0      	cmpeq	r8, r6
   d47f8:	d305      	bcc.n	d4806 <_Z17connectToParticlev+0x4e>
    static bool connected(void) { return spark_cloud_flag_connected(); }
   d47fa:	f003 ff1b 	bl	d8634 <spark_cloud_flag_connected>
   d47fe:	b910      	cbnz	r0, d4806 <_Z17connectToParticlev+0x4e>
            spark_process();
   d4800:	f003 ff08 	bl	d8614 <spark_process>
        while (_while() && !_condition()) {
   d4804:	e7f0      	b.n	d47e8 <_Z17connectToParticlev+0x30>
   d4806:	f003 ff15 	bl	d8634 <spark_cloud_flag_connected>
  for (int retry = 0; retry < 300 && !waitFor(Particle.connected,1000); retry++) {
   d480a:	b120      	cbz	r0, d4816 <_Z17connectToParticlev+0x5e>
   d480c:	f003 ff12 	bl	d8634 <spark_cloud_flag_connected>
  if (Particle.connected()) {
   d4810:	b950      	cbnz	r0, d4828 <_Z17connectToParticlev+0x70>
}
   d4812:	e8bd 8ff8 	ldmia.w	sp!, {r3, r4, r5, r6, r7, r8, r9, sl, fp, pc}
		return HAL_Timer_Get_Milli_Seconds();
   d4816:	f003 fca9 	bl	d816c <HAL_Timer_Get_Milli_Seconds>
		last_checkin = current_time();
   d481a:	f8ca 0000 	str.w	r0, [sl]
    }
    static void disconnect(const CloudDisconnectOptions& options = CloudDisconnectOptions());
    static void process(void) {
    		application_checkin();
    		spark_process();
   d481e:	f003 fef9 	bl	d8614 <spark_process>
  for (int retry = 0; retry < 300 && !waitFor(Particle.connected,1000); retry++) {
   d4822:	3c01      	subs	r4, #1
   d4824:	d1dd      	bne.n	d47e2 <_Z17connectToParticlev+0x2a>
   d4826:	e7f1      	b.n	d480c <_Z17connectToParticlev+0x54>
    sysStatus.connectedStatus = true;
   d4828:	4a03      	ldr	r2, [pc, #12]	; (d4838 <_Z17connectToParticlev+0x80>)
   d482a:	2301      	movs	r3, #1
   d482c:	70d3      	strb	r3, [r2, #3]
    systemStatusWriteNeeded = true;
   d482e:	4a03      	ldr	r2, [pc, #12]	; (d483c <_Z17connectToParticlev+0x84>)
   d4830:	7013      	strb	r3, [r2, #0]
    return 1;                               // Were able to connect successfully
   d4832:	e7ee      	b.n	d4812 <_Z17connectToParticlev+0x5a>
   d4834:	2003e5ec 	.word	0x2003e5ec
   d4838:	2003e374 	.word	0x2003e374
   d483c:	2003e394 	.word	0x2003e394
   d4840:	2003e7d8 	.word	0x2003e7d8

000d4844 <_Z12notConnectedv>:
bool notConnected() {                                             // Companion function for disconnectFromParticle
   d4844:	b508      	push	{r3, lr}
    static bool connected(void) { return spark_cloud_flag_connected(); }
   d4846:	f003 fef5 	bl	d8634 <spark_cloud_flag_connected>
  return !Particle.connected();
   d484a:	f080 0001 	eor.w	r0, r0, #1
}
   d484e:	b2c0      	uxtb	r0, r0
   d4850:	bd08      	pop	{r3, pc}
	...

000d4854 <_Z22disconnectFromParticlev>:
{
   d4854:	e92d 43f0 	stmdb	sp!, {r4, r5, r6, r7, r8, r9, lr}
   d4858:	b085      	sub	sp, #20
}

inline CloudDisconnectOptions::CloudDisconnectOptions(unsigned flags, system_tick_t timeout, bool graceful) :
        flags_(flags),
        timeout_(timeout),
        graceful_(graceful) {
   d485a:	2600      	movs	r6, #0
  Particle.disconnect();
   d485c:	a801      	add	r0, sp, #4
   d485e:	e9cd 6601 	strd	r6, r6, [sp, #4]
   d4862:	f88d 600c 	strb.w	r6, [sp, #12]
   d4866:	f004 f9b8 	bl	d8bda <_ZN10CloudClass10disconnectERK22CloudDisconnectOptions>
        const system_tick_t start = millis();
   d486a:	f7ff fd2b 	bl	d42c4 <_ZN11SystemClass6millisEv>
        return waitConditionWhile(_condition, [=]{ return (millis()-start)<timeout; });
   d486e:	46b1      	mov	r9, r6
        const system_tick_t start = millis();
   d4870:	4680      	mov	r8, r0
        while (_while() && !_condition()) {
   d4872:	f643 2697 	movw	r6, #14999	; 0x3a97
   d4876:	2700      	movs	r7, #0
        return waitConditionWhile(_condition, [=]{ return (millis()-start)<timeout; });
   d4878:	f7ff fd24 	bl	d42c4 <_ZN11SystemClass6millisEv>
   d487c:	ebb0 0408 	subs.w	r4, r0, r8
   d4880:	eb61 0509 	sbc.w	r5, r1, r9
        while (_while() && !_condition()) {
   d4884:	42af      	cmp	r7, r5
   d4886:	bf08      	it	eq
   d4888:	42a6      	cmpeq	r6, r4
   d488a:	d305      	bcc.n	d4898 <_Z22disconnectFromParticlev+0x44>
  waitFor(notConnected, 15000);                                   // make sure before turning off the cellular modem
   d488c:	f7ff ffda 	bl	d4844 <_Z12notConnectedv>
   d4890:	b910      	cbnz	r0, d4898 <_Z22disconnectFromParticlev+0x44>
            spark_process();
   d4892:	f003 febf 	bl	d8614 <spark_process>
        while (_while() && !_condition()) {
   d4896:	e7ef      	b.n	d4878 <_Z22disconnectFromParticlev+0x24>
   d4898:	f7ff ffd4 	bl	d4844 <_Z12notConnectedv>
    }
    void off() {
        network_off(*this, 0, 0, NULL);
   d489c:	480a      	ldr	r0, [pc, #40]	; (d48c8 <_Z22disconnectFromParticlev+0x74>)
   d489e:	2300      	movs	r3, #0
   d48a0:	4619      	mov	r1, r3
   d48a2:	461a      	mov	r2, r3
   d48a4:	6840      	ldr	r0, [r0, #4]
   d48a6:	f003 ff3d 	bl	d8724 <network_off>
  sysStatus.connectedStatus = false;
   d48aa:	4b08      	ldr	r3, [pc, #32]	; (d48cc <_Z22disconnectFromParticlev+0x78>)
   d48ac:	2200      	movs	r2, #0
   d48ae:	70da      	strb	r2, [r3, #3]
  systemStatusWriteNeeded = true;
   d48b0:	4b07      	ldr	r3, [pc, #28]	; (d48d0 <_Z22disconnectFromParticlev+0x7c>)
   d48b2:	2401      	movs	r4, #1
  delay(2000);                                                    // Bummer but only should happen once an hour
   d48b4:	f44f 60fa 	mov.w	r0, #2000	; 0x7d0
  systemStatusWriteNeeded = true;
   d48b8:	701c      	strb	r4, [r3, #0]
  delay(2000);                                                    // Bummer but only should happen once an hour
   d48ba:	f003 ffc3 	bl	d8844 <delay>
}
   d48be:	4620      	mov	r0, r4
   d48c0:	b005      	add	sp, #20
   d48c2:	e8bd 83f0 	ldmia.w	sp!, {r4, r5, r6, r7, r8, r9, pc}
   d48c6:	bf00      	nop
   d48c8:	2003e5ec 	.word	0x2003e5ec
   d48cc:	2003e374 	.word	0x2003e374
   d48d0:	2003e394 	.word	0x2003e394

000d48d4 <_Z22publishStateTransitionv>:
{
   d48d4:	b530      	push	{r4, r5, lr}
  snprintf(stateTransitionString, sizeof(stateTransitionString), "From %s to %s", stateNames[oldState],stateNames[state]);
   d48d6:	4d11      	ldr	r5, [pc, #68]	; (d491c <_Z22publishStateTransitionv+0x48>)
   d48d8:	4c11      	ldr	r4, [pc, #68]	; (d4920 <_Z22publishStateTransitionv+0x4c>)
   d48da:	4912      	ldr	r1, [pc, #72]	; (d4924 <_Z22publishStateTransitionv+0x50>)
   d48dc:	782a      	ldrb	r2, [r5, #0]
   d48de:	7820      	ldrb	r0, [r4, #0]
{
   d48e0:	b08d      	sub	sp, #52	; 0x34
  snprintf(stateTransitionString, sizeof(stateTransitionString), "From %s to %s", stateNames[oldState],stateNames[state]);
   d48e2:	230e      	movs	r3, #14
   d48e4:	fb03 1202 	mla	r2, r3, r2, r1
   d48e8:	9200      	str	r2, [sp, #0]
   d48ea:	fb03 1300 	mla	r3, r3, r0, r1
   d48ee:	4a0e      	ldr	r2, [pc, #56]	; (d4928 <_Z22publishStateTransitionv+0x54>)
   d48f0:	2128      	movs	r1, #40	; 0x28
   d48f2:	a802      	add	r0, sp, #8
   d48f4:	f003 ff5e 	bl	d87b4 <snprintf>
  oldState = state;
   d48f8:	782b      	ldrb	r3, [r5, #0]
   d48fa:	7023      	strb	r3, [r4, #0]
    static bool connected(void) { return spark_cloud_flag_connected(); }
   d48fc:	f003 fe9a 	bl	d8634 <spark_cloud_flag_connected>
  if(Particle.connected()) publishQueue.publish("State Transition",stateTransitionString, PRIVATE);
   d4900:	b148      	cbz	r0, d4916 <_Z22publishStateTransitionv+0x42>
   d4902:	2300      	movs	r3, #0
   d4904:	f88d 3000 	strb.w	r3, [sp]
   d4908:	4b08      	ldr	r3, [pc, #32]	; (d492c <_Z22publishStateTransitionv+0x58>)
   d490a:	4909      	ldr	r1, [pc, #36]	; (d4930 <_Z22publishStateTransitionv+0x5c>)
   d490c:	781b      	ldrb	r3, [r3, #0]
   d490e:	4809      	ldr	r0, [pc, #36]	; (d4934 <_Z22publishStateTransitionv+0x60>)
   d4910:	aa02      	add	r2, sp, #8
   d4912:	f7ff fcf1 	bl	d42f8 <_ZN21PublishQueueAsyncBase7publishEPKcS1_N8particle5FlagsI15PublishFlagTypehEES5_>
}
   d4916:	b00d      	add	sp, #52	; 0x34
   d4918:	bd30      	pop	{r4, r5, pc}
   d491a:	bf00      	nop
   d491c:	2003e370 	.word	0x2003e370
   d4920:	2003e32c 	.word	0x2003e32c
   d4924:	2003e108 	.word	0x2003e108
   d4928:	000db205 	.word	0x000db205
   d492c:	2003e258 	.word	0x2003e258
   d4930:	000db213 	.word	0x000db213
   d4934:	2003e330 	.word	0x2003e330

000d4938 <_Z14fullModemResetv>:
void fullModemReset() {  // Adapted form Rikkas7's https://github.com/rickkas7/electronsample
   d4938:	b530      	push	{r4, r5, lr}
   d493a:	b085      	sub	sp, #20
        graceful_(graceful) {
   d493c:	2300      	movs	r3, #0
	Particle.disconnect(); 	                                         // Disconnect from the cloud
   d493e:	a801      	add	r0, sp, #4
   d4940:	e9cd 3301 	strd	r3, r3, [sp, #4]
   d4944:	f88d 300c 	strb.w	r3, [sp, #12]
   d4948:	f004 f947 	bl	d8bda <_ZN10CloudClass10disconnectERK22CloudDisconnectOptions>
   d494c:	f003 fc0e 	bl	d816c <HAL_Timer_Get_Milli_Seconds>
	while(Particle.connected() && millis() - startTime < 15000) {
   d4950:	f643 2597 	movw	r5, #14999	; 0x3a97
   d4954:	4604      	mov	r4, r0
    static bool connected(void) { return spark_cloud_flag_connected(); }
   d4956:	f003 fe6d 	bl	d8634 <spark_cloud_flag_connected>
   d495a:	b140      	cbz	r0, d496e <_Z14fullModemResetv+0x36>
   d495c:	f003 fc06 	bl	d816c <HAL_Timer_Get_Milli_Seconds>
   d4960:	1b00      	subs	r0, r0, r4
   d4962:	42a8      	cmp	r0, r5
   d4964:	d803      	bhi.n	d496e <_Z14fullModemResetv+0x36>
		delay(100);
   d4966:	2064      	movs	r0, #100	; 0x64
   d4968:	f003 ff6c 	bl	d8844 <delay>
	while(Particle.connected() && millis() - startTime < 15000) {
   d496c:	e7f3      	b.n	d4956 <_Z14fullModemResetv+0x1e>
    }

    template<typename... Targs>
    inline int command(system_tick_t timeout_ms, const char* format, Targs... Fargs)
    {
        return cellular_command(NULL, NULL, timeout_ms, format, Fargs...);
   d496e:	2100      	movs	r1, #0
   d4970:	4b09      	ldr	r3, [pc, #36]	; (d4998 <_Z14fullModemResetv+0x60>)
   d4972:	f247 5230 	movw	r2, #30000	; 0x7530
   d4976:	4608      	mov	r0, r1
   d4978:	f003 fb78 	bl	d806c <cellular_command>
	delay(1000);
   d497c:	f44f 707a 	mov.w	r0, #1000	; 0x3e8
   d4980:	f003 ff60 	bl	d8844 <delay>
	System.sleep(SLEEP_MODE_DEEP, 10);
   d4984:	4b05      	ldr	r3, [pc, #20]	; (d499c <_Z14fullModemResetv+0x64>)
   d4986:	220a      	movs	r2, #10
   d4988:	681b      	ldr	r3, [r3, #0]
   d498a:	2101      	movs	r1, #1
   d498c:	a801      	add	r0, sp, #4
   d498e:	f005 f879 	bl	d9a84 <_ZN11SystemClass5sleepE19Spark_Sleep_TypeDeflN8particle5FlagsI19SleepOptionFlagTypemEE>
}
   d4992:	b005      	add	sp, #20
   d4994:	bd30      	pop	{r4, r5, pc}
   d4996:	bf00      	nop
   d4998:	000db224 	.word	0x000db224
   d499c:	2003e254 	.word	0x2003e254

000d49a0 <_Z12dailyCleanupv>:
void dailyCleanup() {                                                 // Called from Reporting State ONLY - clean house at the end of the day
   d49a0:	e92d 47f3 	stmdb	sp!, {r0, r1, r4, r5, r6, r7, r8, r9, sl, lr}
  publishQueue.publish("Daily Cleanup","Running", PRIVATE);               // Make sure this is being run
   d49a4:	4b17      	ldr	r3, [pc, #92]	; (d4a04 <_Z12dailyCleanupv+0x64>)
  sysStatus.verboseMode = false;
   d49a6:	4d18      	ldr	r5, [pc, #96]	; (d4a08 <_Z12dailyCleanupv+0x68>)
  publishQueue.publish("Daily Cleanup","Running", PRIVATE);               // Make sure this is being run
   d49a8:	4a18      	ldr	r2, [pc, #96]	; (d4a0c <_Z12dailyCleanupv+0x6c>)
   d49aa:	4919      	ldr	r1, [pc, #100]	; (d4a10 <_Z12dailyCleanupv+0x70>)
   d49ac:	4819      	ldr	r0, [pc, #100]	; (d4a14 <_Z12dailyCleanupv+0x74>)
   d49ae:	2400      	movs	r4, #0
   d49b0:	f88d 4000 	strb.w	r4, [sp]
   d49b4:	781b      	ldrb	r3, [r3, #0]
   d49b6:	f7ff fc9f 	bl	d42f8 <_ZN21PublishQueueAsyncBase7publishEPKcS1_N8particle5FlagsI15PublishFlagTypehEES5_>
  sysStatus.verboseMode = false;
   d49ba:	712c      	strb	r4, [r5, #4]
  Particle.syncTime();                                                // Set the clock each day
   d49bc:	f7ff fbda 	bl	d4174 <_ZN10CloudClass8syncTimeEv.isra.0>
        const system_tick_t start = millis();
   d49c0:	f7ff fc80 	bl	d42c4 <_ZN11SystemClass6millisEv>
        while (_while() && !_condition()) {
   d49c4:	f247 582f 	movw	r8, #29999	; 0x752f
        const system_tick_t start = millis();
   d49c8:	4682      	mov	sl, r0
        while (_while() && !_condition()) {
   d49ca:	f04f 0900 	mov.w	r9, #0
        return waitConditionWhile(_condition, [=]{ return (millis()-start)<timeout; });
   d49ce:	f7ff fc79 	bl	d42c4 <_ZN11SystemClass6millisEv>
   d49d2:	ebb0 060a 	subs.w	r6, r0, sl
   d49d6:	eb61 0704 	sbc.w	r7, r1, r4
        while (_while() && !_condition()) {
   d49da:	45b9      	cmp	r9, r7
   d49dc:	bf08      	it	eq
   d49de:	45b0      	cmpeq	r8, r6
   d49e0:	d305      	bcc.n	d49ee <_Z12dailyCleanupv+0x4e>
  waitFor(Particle.syncTimeDone,30000);                               // Wait for up to 30 seconds for the SyncTime to complete
   d49e2:	f7ff fbd1 	bl	d4188 <_ZN10CloudClass12syncTimeDoneEv.isra.0>
   d49e6:	b910      	cbnz	r0, d49ee <_Z12dailyCleanupv+0x4e>
            spark_process();
   d49e8:	f003 fe14 	bl	d8614 <spark_process>
        while (_while() && !_condition()) {
   d49ec:	e7ef      	b.n	d49ce <_Z12dailyCleanupv+0x2e>
   d49ee:	f7ff fbcb 	bl	d4188 <_ZN10CloudClass12syncTimeDoneEv.isra.0>
  sysStatus.resetCount = 0;
   d49f2:	2300      	movs	r3, #0
   d49f4:	612b      	str	r3, [r5, #16]
  systemStatusWriteNeeded=true;
   d49f6:	4b08      	ldr	r3, [pc, #32]	; (d4a18 <_Z12dailyCleanupv+0x78>)
   d49f8:	2201      	movs	r2, #1
   d49fa:	701a      	strb	r2, [r3, #0]
}
   d49fc:	b002      	add	sp, #8
   d49fe:	e8bd 87f0 	ldmia.w	sp!, {r4, r5, r6, r7, r8, r9, sl, pc}
   d4a02:	bf00      	nop
   d4a04:	2003e258 	.word	0x2003e258
   d4a08:	2003e374 	.word	0x2003e374
   d4a0c:	000db231 	.word	0x000db231
   d4a10:	000db239 	.word	0x000db239
   d4a14:	2003e330 	.word	0x2003e330
   d4a18:	2003e394 	.word	0x2003e394

000d4a1c <_Z8isDSTusav>:


bool isDSTusa() {
   d4a1c:	b538      	push	{r3, r4, r5, lr}
  // United States of America Summer Timer calculation (2am Local Time - 2nd Sunday in March/ 1st Sunday in November)
  // Adapted from @ScruffR's code posted here https://community.particle.io/t/daylight-savings-problem/38424/4
  // The code works in from months, days and hours in succession toward the two transitions
  int dayOfMonth = Time.day();
   d4a1e:	f005 fa5f 	bl	d9ee0 <_ZN9TimeClass3dayEv>
   d4a22:	4605      	mov	r5, r0
  int month = Time.month();
   d4a24:	f005 fa70 	bl	d9f08 <_ZN9TimeClass5monthEv>
   d4a28:	4604      	mov	r4, r0
  int dayOfWeek = Time.weekday() - 1; // make Sunday 0 .. Saturday 6
   d4a2a:	f005 fa65 	bl	d9ef8 <_ZN9TimeClass7weekdayEv>

  // By Month - inside or outside the DST window
  if (month >= 4 && month <= 10)
   d4a2e:	1f23      	subs	r3, r4, #4
   d4a30:	2b06      	cmp	r3, #6
   d4a32:	d90e      	bls.n	d4a52 <_Z8isDSTusav+0x36>
  { // April to October definetly DST
    return true;
  }
  else if (month < 3 || month > 11)
   d4a34:	1ee3      	subs	r3, r4, #3
   d4a36:	2b08      	cmp	r3, #8
   d4a38:	d80d      	bhi.n	d4a56 <_Z8isDSTusav+0x3a>
  int dayOfWeek = Time.weekday() - 1; // make Sunday 0 .. Saturday 6
   d4a3a:	3801      	subs	r0, #1
  }

  boolean beforeFirstSunday = (dayOfMonth - dayOfWeek < 0);
  boolean secondSundayOrAfter = (dayOfMonth - dayOfWeek > 7);

  if (beforeFirstSunday && !secondSundayOrAfter) return (month == 11);
   d4a3c:	1a2d      	subs	r5, r5, r0
   d4a3e:	d504      	bpl.n	d4a4a <_Z8isDSTusav+0x2e>
   d4a40:	2c0b      	cmp	r4, #11
  else if (!beforeFirstSunday && !secondSundayOrAfter) return false;
  else if (!beforeFirstSunday && secondSundayOrAfter) return (month == 3);
   d4a42:	bf14      	ite	ne
   d4a44:	2000      	movne	r0, #0
   d4a46:	2001      	moveq	r0, #1
  if (secSinceMidnightLocal >= 2*3600)
  { //  In the US, Daylight Time is based on local time
    return !dayStartedAs;
  }
  return dayStartedAs;
}
   d4a48:	bd38      	pop	{r3, r4, r5, pc}
  else if (!beforeFirstSunday && !secondSundayOrAfter) return false;
   d4a4a:	2d07      	cmp	r5, #7
   d4a4c:	dd03      	ble.n	d4a56 <_Z8isDSTusav+0x3a>
  else if (!beforeFirstSunday && secondSundayOrAfter) return (month == 3);
   d4a4e:	2c03      	cmp	r4, #3
   d4a50:	e7f7      	b.n	d4a42 <_Z8isDSTusav+0x26>
    return true;
   d4a52:	2001      	movs	r0, #1
   d4a54:	e7f8      	b.n	d4a48 <_Z8isDSTusav+0x2c>
    return false;
   d4a56:	2000      	movs	r0, #0
   d4a58:	e7f6      	b.n	d4a48 <_Z8isDSTusav+0x2c>
   d4a5a:	0000      	movs	r0, r0
   d4a5c:	0000      	movs	r0, r0
	...

000d4a60 <_Z12setDSTOffset6String>:
int setDSTOffset(String command) {                                      // This is the number of hours that will be added for Daylight Savings Time 0 (off) - 2
   d4a60:	b570      	push	{r4, r5, r6, lr}
   d4a62:	ed2d 8b02 	vpush	{d8}
   d4a66:	b0c8      	sub	sp, #288	; 0x120
   d4a68:	4605      	mov	r5, r0
  time_t t = Time.now();
   d4a6a:	f005 fa10 	bl	d9e8e <_ZN9TimeClass3nowEv>
  int8_t tempDSTOffset = strtol(command,&pEND,10);                      // Looks for the first integer and interprets it
   d4a6e:	220a      	movs	r2, #10
  time_t t = Time.now();
   d4a70:	4604      	mov	r4, r0
  int8_t tempDSTOffset = strtol(command,&pEND,10);                      // Looks for the first integer and interprets it
   d4a72:	a903      	add	r1, sp, #12
   d4a74:	6828      	ldr	r0, [r5, #0]
   d4a76:	f006 fab5 	bl	dafe4 <strtol>
  if ((tempDSTOffset < 0) | (tempDSTOffset > 2)) return 0;              // Make sure it falls in a valid range or send a "fail" result
   d4a7a:	b2c3      	uxtb	r3, r0
   d4a7c:	2b02      	cmp	r3, #2
   d4a7e:	d859      	bhi.n	d4b34 <_Z12setDSTOffset6String+0xd4>
  Time.setDSTOffset((float)tempDSTOffset);                              // Set the DST Offset
   d4a80:	b243      	sxtb	r3, r0
   d4a82:	ee08 3a10 	vmov	s16, r3
   d4a86:	eeb8 8ac8 	vcvt.f32.s32	s16, s16
   d4a8a:	eeb0 0a48 	vmov.f32	s0, s16
   d4a8e:	f005 f8b5 	bl	d9bfc <_ZN9TimeClass12setDSTOffsetEf>
  sysStatus.dstOffset = (float)tempDSTOffset;
   d4a92:	4b2d      	ldr	r3, [pc, #180]	; (d4b48 <_Z12setDSTOffset6String+0xe8>)
   d4a94:	ed83 8a06 	vstr	s16, [r3, #24]
  systemStatusWriteNeeded = true;
   d4a98:	4b2c      	ldr	r3, [pc, #176]	; (d4b4c <_Z12setDSTOffset6String+0xec>)
   d4a9a:	2201      	movs	r2, #1
   d4a9c:	701a      	strb	r2, [r3, #0]
  snprintf(data, sizeof(data), "DST offset %2.1f",sysStatus.dstOffset);
   d4a9e:	ee18 0a10 	vmov	r0, s16
   d4aa2:	f005 fe2b 	bl	da6fc <__aeabi_f2d>
   d4aa6:	4a2a      	ldr	r2, [pc, #168]	; (d4b50 <_Z12setDSTOffset6String+0xf0>)
   d4aa8:	e9cd 0100 	strd	r0, r1, [sp]
   d4aac:	f44f 7180 	mov.w	r1, #256	; 0x100
   d4ab0:	a808      	add	r0, sp, #32
   d4ab2:	f003 fe7f 	bl	d87b4 <snprintf>
  if (Time.isValid()) isDSTusa() ? Time.beginDST() : Time.endDST();     // Perform the DST calculation here
   d4ab6:	f005 f9cd 	bl	d9e54 <_ZN9TimeClass7isValidEv>
   d4aba:	b128      	cbz	r0, d4ac8 <_Z12setDSTOffset6String+0x68>
   d4abc:	f7ff ffae 	bl	d4a1c <_Z8isDSTusav>
   d4ac0:	2800      	cmp	r0, #0
   d4ac2:	d034      	beq.n	d4b2e <_Z12setDSTOffset6String+0xce>
   d4ac4:	f005 f8b8 	bl	d9c38 <_ZN9TimeClass8beginDSTEv>
  snprintf(currentOffsetStr,sizeof(currentOffsetStr),"%2.1f UTC",(Time.local() - Time.now()) / 3600.0);
   d4ac8:	f005 fa26 	bl	d9f18 <_ZN9TimeClass5localEv>
   d4acc:	4605      	mov	r5, r0
   d4ace:	f005 f9de 	bl	d9e8e <_ZN9TimeClass3nowEv>
   d4ad2:	1a28      	subs	r0, r5, r0
   d4ad4:	f005 fe00 	bl	da6d8 <__aeabi_i2d>
   d4ad8:	a319      	add	r3, pc, #100	; (adr r3, d4b40 <_Z12setDSTOffset6String+0xe0>)
   d4ada:	e9d3 2300 	ldrd	r2, r3, [r3]
   d4ade:	f005 ff8f 	bl	daa00 <__aeabi_ddiv>
   d4ae2:	4a1c      	ldr	r2, [pc, #112]	; (d4b54 <_Z12setDSTOffset6String+0xf4>)
   d4ae4:	e9cd 0100 	strd	r0, r1, [sp]
   d4ae8:	210a      	movs	r1, #10
   d4aea:	481b      	ldr	r0, [pc, #108]	; (d4b58 <_Z12setDSTOffset6String+0xf8>)
   d4aec:	f003 fe62 	bl	d87b4 <snprintf>
   d4af0:	f003 fda0 	bl	d8634 <spark_cloud_flag_connected>
  if (Particle.connected()) {
   d4af4:	b1c8      	cbz	r0, d4b2a <_Z12setDSTOffset6String+0xca>
    publishQueue.publish("Time",data, PRIVATE);
   d4af6:	4d19      	ldr	r5, [pc, #100]	; (d4b5c <_Z12setDSTOffset6String+0xfc>)
   d4af8:	4919      	ldr	r1, [pc, #100]	; (d4b60 <_Z12setDSTOffset6String+0x100>)
   d4afa:	481a      	ldr	r0, [pc, #104]	; (d4b64 <_Z12setDSTOffset6String+0x104>)
   d4afc:	2600      	movs	r6, #0
   d4afe:	f88d 6000 	strb.w	r6, [sp]
   d4b02:	782b      	ldrb	r3, [r5, #0]
   d4b04:	aa08      	add	r2, sp, #32
   d4b06:	f7ff fbf7 	bl	d42f8 <_ZN21PublishQueueAsyncBase7publishEPKcS1_N8particle5FlagsI15PublishFlagTypehEES5_>
    publishQueue.publish("Time",Time.timeStr(t), PRIVATE);
   d4b0a:	4622      	mov	r2, r4
   d4b0c:	17e3      	asrs	r3, r4, #31
   d4b0e:	a804      	add	r0, sp, #16
   d4b10:	f005 f8ba 	bl	d9c88 <_ZN9TimeClass7timeStrEx>
   d4b14:	f88d 6000 	strb.w	r6, [sp]
   d4b18:	782b      	ldrb	r3, [r5, #0]
   d4b1a:	9a04      	ldr	r2, [sp, #16]
   d4b1c:	4910      	ldr	r1, [pc, #64]	; (d4b60 <_Z12setDSTOffset6String+0x100>)
   d4b1e:	4811      	ldr	r0, [pc, #68]	; (d4b64 <_Z12setDSTOffset6String+0x104>)
   d4b20:	f7ff fbea 	bl	d42f8 <_ZN21PublishQueueAsyncBase7publishEPKcS1_N8particle5FlagsI15PublishFlagTypehEES5_>
   d4b24:	a804      	add	r0, sp, #16
   d4b26:	f004 fe13 	bl	d9750 <_ZN6StringD1Ev>
  return 1;
   d4b2a:	2001      	movs	r0, #1
   d4b2c:	e003      	b.n	d4b36 <_Z12setDSTOffset6String+0xd6>
  if (Time.isValid()) isDSTusa() ? Time.beginDST() : Time.endDST();     // Perform the DST calculation here
   d4b2e:	f005 f88f 	bl	d9c50 <_ZN9TimeClass6endDSTEv>
   d4b32:	e7c9      	b.n	d4ac8 <_Z12setDSTOffset6String+0x68>
  if ((tempDSTOffset < 0) | (tempDSTOffset > 2)) return 0;              // Make sure it falls in a valid range or send a "fail" result
   d4b34:	2000      	movs	r0, #0
}
   d4b36:	b048      	add	sp, #288	; 0x120
   d4b38:	ecbd 8b02 	vpop	{d8}
   d4b3c:	bd70      	pop	{r4, r5, r6, pc}
   d4b3e:	bf00      	nop
   d4b40:	00000000 	.word	0x00000000
   d4b44:	40ac2000 	.word	0x40ac2000
   d4b48:	2003e374 	.word	0x2003e374
   d4b4c:	2003e394 	.word	0x2003e394
   d4b50:	000db247 	.word	0x000db247
   d4b54:	000db0fc 	.word	0x000db0fc
   d4b58:	2003e2e4 	.word	0x2003e2e4
   d4b5c:	2003e258 	.word	0x2003e258
   d4b60:	000db11a 	.word	0x000db11a
   d4b64:	2003e330 	.word	0x2003e330

000d4b68 <_ZN8particle26AbstractTypeDiagnosticDataIlE3getEtRl>:
inline AbstractTypeDiagnosticData<UnderlyingTypeT>::AbstractTypeDiagnosticData(DiagnosticDataId id, const char* name, diag_type type) :
        AbstractDiagnosticData(id, name, type) {
}

template<typename UnderlyingTypeT>
inline int AbstractTypeDiagnosticData<UnderlyingTypeT>::get(DiagnosticDataId id, UnderlyingTypeT& val) {
   d4b68:	b530      	push	{r4, r5, lr}
   d4b6a:	b085      	sub	sp, #20
   d4b6c:	460d      	mov	r5, r1
    const diag_source* src = nullptr;
   d4b6e:	2200      	movs	r2, #0
    const int ret = diag_get_source(id, &src, nullptr);
   d4b70:	4669      	mov	r1, sp
    const diag_source* src = nullptr;
   d4b72:	9200      	str	r2, [sp, #0]
    const int ret = diag_get_source(id, &src, nullptr);
   d4b74:	f003 fcb2 	bl	d84dc <diag_get_source>
    if (ret != SYSTEM_ERROR_NONE) {
   d4b78:	b9b0      	cbnz	r0, d4ba8 <_ZN8particle26AbstractTypeDiagnosticDataIlE3getEtRl+0x40>
        return ret;
    }
    return get(src, val);
   d4b7a:	9c00      	ldr	r4, [sp, #0]
    SPARK_ASSERT(src && src->callback);
   d4b7c:	b10c      	cbz	r4, d4b82 <_ZN8particle26AbstractTypeDiagnosticDataIlE3getEtRl+0x1a>
   d4b7e:	6923      	ldr	r3, [r4, #16]
   d4b80:	b923      	cbnz	r3, d4b8c <_ZN8particle26AbstractTypeDiagnosticDataIlE3getEtRl+0x24>
   d4b82:	4a0a      	ldr	r2, [pc, #40]	; (d4bac <_ZN8particle26AbstractTypeDiagnosticDataIlE3getEtRl+0x44>)
   d4b84:	2100      	movs	r1, #0
   d4b86:	200a      	movs	r0, #10
   d4b88:	f003 fc90 	bl	d84ac <panic_>
    diag_source_get_cmd_data d = { sizeof(diag_source_get_cmd_data), 0 /* reserved */, data, size };
   d4b8c:	2300      	movs	r3, #0
   d4b8e:	f8ad 3006 	strh.w	r3, [sp, #6]
   d4b92:	230c      	movs	r3, #12
   d4b94:	f8ad 3004 	strh.w	r3, [sp, #4]
   d4b98:	2304      	movs	r3, #4
   d4b9a:	9303      	str	r3, [sp, #12]
   d4b9c:	9502      	str	r5, [sp, #8]
    const int ret = src->callback(src, DIAG_SOURCE_CMD_GET, &d);
   d4b9e:	6923      	ldr	r3, [r4, #16]
   d4ba0:	aa01      	add	r2, sp, #4
   d4ba2:	2101      	movs	r1, #1
   d4ba4:	4620      	mov	r0, r4
   d4ba6:	4798      	blx	r3
}
   d4ba8:	b005      	add	sp, #20
   d4baa:	bd30      	pop	{r4, r5, pc}
   d4bac:	000d815d 	.word	0x000d815d

000d4bb0 <_ZNK11SystemClass12batteryStateEv.isra.0>:
            return r;
        }
        return val;
    }

    int batteryState() const {
   d4bb0:	b507      	push	{r0, r1, r2, lr}
inline AbstractIntegerDiagnosticData::AbstractIntegerDiagnosticData(DiagnosticDataId id, const char* name) :
        AbstractTypeDiagnosticData<int32_t>(id, name, DIAG_TYPE_INT) {
}

inline int AbstractIntegerDiagnosticData::get(DiagnosticDataId id, IntType& val) {
    return AbstractTypeDiagnosticData<IntType>::get(id, val);
   d4bb2:	2007      	movs	r0, #7
   d4bb4:	a901      	add	r1, sp, #4
   d4bb6:	f7ff ffd7 	bl	d4b68 <_ZN8particle26AbstractTypeDiagnosticDataIlE3getEtRl>
        particle::AbstractIntegerDiagnosticData::IntType val;
        const auto r = particle::AbstractIntegerDiagnosticData::get(DIAG_ID_SYSTEM_BATTERY_STATE, val);
        if (r < 0) {
   d4bba:	2800      	cmp	r0, #0
            return r;
        }
        return val;
   d4bbc:	bfa8      	it	ge
   d4bbe:	9801      	ldrge	r0, [sp, #4]
    }
   d4bc0:	b003      	add	sp, #12
   d4bc2:	f85d fb04 	ldr.w	pc, [sp], #4
	...

000d4bc8 <_Z17getBatteryContextv>:
void getBatteryContext() {
   d4bc8:	b5f0      	push	{r4, r5, r6, r7, lr}
   d4bca:	b089      	sub	sp, #36	; 0x24
   d4bcc:	a901      	add	r1, sp, #4
   d4bce:	2003      	movs	r0, #3
   d4bd0:	f7ff ffca 	bl	d4b68 <_ZN8particle26AbstractTypeDiagnosticDataIlE3getEtRl>
        // XXX: we could potentially simply call FuelGauge::getNormalizedSoC(),
        // however in order to exactly match the vitals values sent to the cloud we are going to use
        // diagnostic source as well.
        particle::AbstractIntegerDiagnosticData::IntType val;
        int r = particle::AbstractIntegerDiagnosticData::get(DIAG_ID_SYSTEM_BATTERY_CHARGE, val);
        if (r) {
   d4bd4:	2800      	cmp	r0, #0
   d4bd6:	d139      	bne.n	d4c4c <_Z17getBatteryContextv+0x84>
    StorageT value() const {
        return value_;
    }

    constexpr float toFloat() const {
        return static_cast<float>(value_) / constexpr_pow(2.0f, N);
   d4bd8:	f8bd 3004 	ldrh.w	r3, [sp, #4]
   d4bdc:	ee07 3a90 	vmov	s15, r3
   d4be0:	eefb 7acc 	vcvt.f32.u32	s15, s15, #8
  const char* batteryContext[7] ={"Unknown","Not Charging","Charging","On Vehicle Pwr","Off Vehicle Pwr","Fault","Diconnected"};
   d4be4:	4d23      	ldr	r5, [pc, #140]	; (d4c74 <_Z17getBatteryContextv+0xac>)
  sysStatus.stateOfCharge = int(System.batteryCharge());                          // Percentage of full charge
   d4be6:	4e24      	ldr	r6, [pc, #144]	; (d4c78 <_Z17getBatteryContextv+0xb0>)
  const char* batteryContext[7] ={"Unknown","Not Charging","Charging","On Vehicle Pwr","Off Vehicle Pwr","Fault","Diconnected"};
   d4be8:	cd0f      	ldmia	r5!, {r0, r1, r2, r3}
   d4bea:	ac01      	add	r4, sp, #4
   d4bec:	c40f      	stmia	r4!, {r0, r1, r2, r3}
   d4bee:	e895 0007 	ldmia.w	r5, {r0, r1, r2}
  sysStatus.stateOfCharge = int(System.batteryCharge());                          // Percentage of full charge
   d4bf2:	eefd 7ae7 	vcvt.s32.f32	s15, s15
  const char* batteryContext[7] ={"Unknown","Not Charging","Charging","On Vehicle Pwr","Off Vehicle Pwr","Fault","Diconnected"};
   d4bf6:	e884 0007 	stmia.w	r4, {r0, r1, r2}
  sysStatus.stateOfCharge = int(System.batteryCharge());                          // Percentage of full charge
   d4bfa:	edc6 7a02 	vstr	s15, [r6, #8]
  snprintf(batteryContextStr, sizeof(batteryContextStr),"%s", batteryContext[System.batteryState()]);
   d4bfe:	f7ff ffd7 	bl	d4bb0 <_ZNK11SystemClass12batteryStateEv.isra.0>
   d4c02:	ab08      	add	r3, sp, #32
   d4c04:	eb03 0080 	add.w	r0, r3, r0, lsl #2
  if (!alreadyOnBattery && System.batteryState() == 4) {                          // Keep track how long we are on battery power
   d4c08:	4d1c      	ldr	r5, [pc, #112]	; (d4c7c <_Z17getBatteryContextv+0xb4>)
  snprintf(batteryContextStr, sizeof(batteryContextStr),"%s", batteryContext[System.batteryState()]);
   d4c0a:	f850 3c1c 	ldr.w	r3, [r0, #-28]
   d4c0e:	4a1c      	ldr	r2, [pc, #112]	; (d4c80 <_Z17getBatteryContextv+0xb8>)
   d4c10:	481c      	ldr	r0, [pc, #112]	; (d4c84 <_Z17getBatteryContextv+0xbc>)
   d4c12:	2110      	movs	r1, #16
   d4c14:	f003 fdce 	bl	d87b4 <snprintf>
  if (!alreadyOnBattery && System.batteryState() == 4) {                          // Keep track how long we are on battery power
   d4c18:	782b      	ldrb	r3, [r5, #0]
   d4c1a:	4634      	mov	r4, r6
   d4c1c:	462f      	mov	r7, r5
   d4c1e:	4e1a      	ldr	r6, [pc, #104]	; (d4c88 <_Z17getBatteryContextv+0xc0>)
   d4c20:	b9bb      	cbnz	r3, d4c52 <_Z17getBatteryContextv+0x8a>
   d4c22:	f7ff ffc5 	bl	d4bb0 <_ZNK11SystemClass12batteryStateEv.isra.0>
   d4c26:	2804      	cmp	r0, #4
   d4c28:	d113      	bne.n	d4c52 <_Z17getBatteryContextv+0x8a>
    alreadyOnBattery = true;
   d4c2a:	2301      	movs	r3, #1
   d4c2c:	702b      	strb	r3, [r5, #0]
   d4c2e:	f003 fa9d 	bl	d816c <HAL_Timer_Get_Milli_Seconds>
  if (millis() - lastTimePowered > 14400000 || sysStatus.stateOfCharge <= 50) {    // If we have been on battery for four hours, or the battery is less than 50%
   d4c32:	6833      	ldr	r3, [r6, #0]
   d4c34:	1ac0      	subs	r0, r0, r3
   d4c36:	4b15      	ldr	r3, [pc, #84]	; (d4c8c <_Z17getBatteryContextv+0xc4>)
   d4c38:	4298      	cmp	r0, r3
   d4c3a:	d819      	bhi.n	d4c70 <_Z17getBatteryContextv+0xa8>
   d4c3c:	68a3      	ldr	r3, [r4, #8]
    sysStatus.lowBatteryMode = true;
   d4c3e:	2b32      	cmp	r3, #50	; 0x32
   d4c40:	bfcc      	ite	gt
   d4c42:	2300      	movgt	r3, #0
   d4c44:	2301      	movle	r3, #1
   d4c46:	7163      	strb	r3, [r4, #5]
}
   d4c48:	b009      	add	sp, #36	; 0x24
   d4c4a:	bdf0      	pop	{r4, r5, r6, r7, pc}
            return -1.0f;
   d4c4c:	eeff 7a00 	vmov.f32	s15, #240	; 0xbf800000 -1.0
   d4c50:	e7c8      	b.n	d4be4 <_Z17getBatteryContextv+0x1c>
  else if (System.batteryState() == 2 || System.batteryState() == 3) {            // If charged or charging
   d4c52:	f7ff ffad 	bl	d4bb0 <_ZNK11SystemClass12batteryStateEv.isra.0>
   d4c56:	2802      	cmp	r0, #2
   d4c58:	d105      	bne.n	d4c66 <_Z17getBatteryContextv+0x9e>
    alreadyOnBattery = false;
   d4c5a:	2300      	movs	r3, #0
   d4c5c:	703b      	strb	r3, [r7, #0]
   d4c5e:	f003 fa85 	bl	d816c <HAL_Timer_Get_Milli_Seconds>
    lastTimePowered = millis();
   d4c62:	6030      	str	r0, [r6, #0]
   d4c64:	e7e3      	b.n	d4c2e <_Z17getBatteryContextv+0x66>
  else if (System.batteryState() == 2 || System.batteryState() == 3) {            // If charged or charging
   d4c66:	f7ff ffa3 	bl	d4bb0 <_ZNK11SystemClass12batteryStateEv.isra.0>
   d4c6a:	2803      	cmp	r0, #3
   d4c6c:	d1df      	bne.n	d4c2e <_Z17getBatteryContextv+0x66>
   d4c6e:	e7f4      	b.n	d4c5a <_Z17getBatteryContextv+0x92>
    sysStatus.lowBatteryMode = true;
   d4c70:	2301      	movs	r3, #1
   d4c72:	e7e8      	b.n	d4c46 <_Z17getBatteryContextv+0x7e>
   d4c74:	000db474 	.word	0x000db474
   d4c78:	2003e374 	.word	0x2003e374
   d4c7c:	2003e259 	.word	0x2003e259
   d4c80:	000db5ca 	.word	0x000db5ca
   d4c84:	2003e27c 	.word	0x2003e27c
   d4c88:	2003e328 	.word	0x2003e328
   d4c8c:	00dbba00 	.word	0x00dbba00

000d4c90 <_ZNSt14__shared_countILN9__gnu_cxx12_Lock_policyE0EED1Ev>:
      explicit __shared_count(const __weak_count<_Lp>& __r);

      // Does not throw if __r._M_get_use_count() == 0, caller must check.
      explicit __shared_count(const __weak_count<_Lp>& __r, std::nothrow_t);

      ~__shared_count() noexcept
   d4c90:	b538      	push	{r3, r4, r5, lr}
      {
	if (_M_pi != nullptr)
   d4c92:	6804      	ldr	r4, [r0, #0]
      ~__shared_count() noexcept
   d4c94:	4605      	mov	r5, r0
	if (_M_pi != nullptr)
   d4c96:	b17c      	cbz	r4, d4cb8 <_ZNSt14__shared_countILN9__gnu_cxx12_Lock_policyE0EED1Ev+0x28>
      if (--_M_use_count == 0)
   d4c98:	6863      	ldr	r3, [r4, #4]
   d4c9a:	3b01      	subs	r3, #1
   d4c9c:	6063      	str	r3, [r4, #4]
   d4c9e:	b95b      	cbnz	r3, d4cb8 <_ZNSt14__shared_countILN9__gnu_cxx12_Lock_policyE0EED1Ev+0x28>
          _M_dispose();
   d4ca0:	6823      	ldr	r3, [r4, #0]
   d4ca2:	4620      	mov	r0, r4
   d4ca4:	689b      	ldr	r3, [r3, #8]
   d4ca6:	4798      	blx	r3
          if (--_M_weak_count == 0)
   d4ca8:	68a3      	ldr	r3, [r4, #8]
   d4caa:	3b01      	subs	r3, #1
   d4cac:	60a3      	str	r3, [r4, #8]
   d4cae:	b91b      	cbnz	r3, d4cb8 <_ZNSt14__shared_countILN9__gnu_cxx12_Lock_policyE0EED1Ev+0x28>
            _M_destroy();
   d4cb0:	6823      	ldr	r3, [r4, #0]
   d4cb2:	4620      	mov	r0, r4
   d4cb4:	68db      	ldr	r3, [r3, #12]
   d4cb6:	4798      	blx	r3
	  _M_pi->_M_release();
      }
   d4cb8:	4628      	mov	r0, r5
   d4cba:	bd38      	pop	{r3, r4, r5, pc}

000d4cbc <_Z11displayInfov>:

void displayInfo()
{
   d4cbc:	e92d 43f0 	stmdb	sp!, {r4, r5, r6, r7, r8, r9, lr}
	if (millis() - lastSerial >= SERIAL_PERIOD) {
   d4cc0:	4c5e      	ldr	r4, [pc, #376]	; (d4e3c <_Z11displayInfov+0x180>)
{
   d4cc2:	b0ab      	sub	sp, #172	; 0xac
   d4cc4:	f003 fa52 	bl	d816c <HAL_Timer_Get_Milli_Seconds>
	if (millis() - lastSerial >= SERIAL_PERIOD) {
   d4cc8:	6823      	ldr	r3, [r4, #0]
   d4cca:	1ac0      	subs	r0, r0, r3
   d4ccc:	f241 3387 	movw	r3, #4999	; 0x1387
   d4cd0:	4298      	cmp	r0, r3
   d4cd2:	f240 80b0 	bls.w	d4e36 <_Z11displayInfov+0x17a>
   d4cd6:	f003 fa49 	bl	d816c <HAL_Timer_Get_Milli_Seconds>
		lastSerial = millis();
   d4cda:	6020      	str	r0, [r4, #0]

		char buf[128];
		if (t.gpsFix()) {
   d4cdc:	4c58      	ldr	r4, [pc, #352]	; (d4e40 <_Z11displayInfov+0x184>)
        os_thread_scheduling(false, NULL);
   d4cde:	2100      	movs	r1, #0
   d4ce0:	6865      	ldr	r5, [r4, #4]
   d4ce2:	4608      	mov	r0, r1
   d4ce4:	f003 f9da 	bl	d809c <os_thread_scheduling>
   d4ce8:	f895 8000 	ldrb.w	r8, [r5]
   d4cec:	6b6e      	ldr	r6, [r5, #52]	; 0x34
        os_thread_scheduling(true, NULL);
   d4cee:	4d55      	ldr	r5, [pc, #340]	; (d4e44 <_Z11displayInfov+0x188>)
   d4cf0:	2100      	movs	r1, #0
   d4cf2:	2001      	movs	r0, #1
   d4cf4:	f003 f9d2 	bl	d809c <os_thread_scheduling>
	bool isValid() const    { return valid; }
   d4cf8:	4627      	mov	r7, r4
	 * Note: It may take 10 seconds for for this to go to false after losing GPS signal.
	 */
	bool gpsFix(void) const {
		TinyGPSLocation location = gpsData.getLocation();

		return location.isValid() && location.age() < MAX_GPS_AGE_MS;
   d4cfa:	f1b8 0f00 	cmp.w	r8, #0
   d4cfe:	d112      	bne.n	d4d26 <_Z11displayInfov+0x6a>
				unsigned long elapsed = millis() - startFix;
				Log.info("%lu milliseconds to get GPS fix", elapsed);
			}
		}
		else {
			snprintf(buf, sizeof(buf), "no location satellites:%d", t.getSatellites());
   d4d00:	6878      	ldr	r0, [r7, #4]
   d4d02:	f7ff fa52 	bl	d41aa <_ZNK13LegacyAdapter13getSatellitesEv.isra.0>
   d4d06:	4a50      	ldr	r2, [pc, #320]	; (d4e48 <_Z11displayInfov+0x18c>)
   d4d08:	4603      	mov	r3, r0
   d4d0a:	2180      	movs	r1, #128	; 0x80
   d4d0c:	a80a      	add	r0, sp, #40	; 0x28
   d4d0e:	f003 fd51 	bl	d87b4 <snprintf>
			if (!gettingFix) {
   d4d12:	782b      	ldrb	r3, [r5, #0]
   d4d14:	2b00      	cmp	r3, #0
   d4d16:	d16f      	bne.n	d4df8 <_Z11displayInfov+0x13c>
				gettingFix = true;
   d4d18:	2301      	movs	r3, #1
   d4d1a:	702b      	strb	r3, [r5, #0]
   d4d1c:	f003 fa26 	bl	d816c <HAL_Timer_Get_Milli_Seconds>
				startFix = millis();
   d4d20:	4b4a      	ldr	r3, [pc, #296]	; (d4e4c <_Z11displayInfov+0x190>)
   d4d22:	6018      	str	r0, [r3, #0]
   d4d24:	e068      	b.n	d4df8 <_Z11displayInfov+0x13c>
   d4d26:	f003 fa21 	bl	d816c <HAL_Timer_Get_Milli_Seconds>
   d4d2a:	f242 730f 	movw	r3, #9999	; 0x270f
	uint32_t age() const    { return valid ? millis() - lastCommitTime : (uint32_t)ULONG_MAX; }
   d4d2e:	1b80      	subs	r0, r0, r6
   d4d30:	4298      	cmp	r0, r3
   d4d32:	d8e5      	bhi.n	d4d00 <_Z11displayInfov+0x44>
      current.latitude = t.readLatDeg();
   d4d34:	6860      	ldr	r0, [r4, #4]
   d4d36:	4e46      	ldr	r6, [pc, #280]	; (d4e50 <_Z11displayInfov+0x194>)
   d4d38:	f7ff fa6e 	bl	d4218 <_ZNK13LegacyAdapter10readLatDegEv.isra.0>
   d4d3c:	ee10 0a10 	vmov	r0, s0
   d4d40:	f005 fcdc 	bl	da6fc <__aeabi_f2d>
   d4d44:	e9c6 0108 	strd	r0, r1, [r6, #32]
      current.longitude = t.readLonDeg();
   d4d48:	6860      	ldr	r0, [r4, #4]
   d4d4a:	f7ff fa44 	bl	d41d6 <_ZNK13LegacyAdapter10readLonDegEv.isra.0>
   d4d4e:	ee10 0a10 	vmov	r0, s0
   d4d52:	f005 fcd3 	bl	da6fc <__aeabi_f2d>
   d4d56:	e9c6 010a 	strd	r0, r1, [r6, #40]	; 0x28
			snprintf(buf, sizeof(buf), "location:%f,%f altitude:%f satellites:%d hdop:%l", t.readLatDeg(), t.readLonDeg(), t.getAltitude(), t.getSatellites(), t.getTinyGPSPlus()->getHDOP().value());
   d4d5a:	6860      	ldr	r0, [r4, #4]
   d4d5c:	f7ff fa5c 	bl	d4218 <_ZNK13LegacyAdapter10readLatDegEv.isra.0>
   d4d60:	6860      	ldr	r0, [r4, #4]
   d4d62:	ee10 6a10 	vmov	r6, s0
   d4d66:	f7ff fa36 	bl	d41d6 <_ZNK13LegacyAdapter10readLonDegEv.isra.0>
        os_thread_scheduling(false, NULL);
   d4d6a:	2100      	movs	r1, #0
   d4d6c:	f8d4 8004 	ldr.w	r8, [r4, #4]
   d4d70:	4608      	mov	r0, r1
   d4d72:	ee10 7a10 	vmov	r7, s0
   d4d76:	f003 f991 	bl	d809c <os_thread_scheduling>
        os_thread_scheduling(true, NULL);
   d4d7a:	2100      	movs	r1, #0
   d4d7c:	2001      	movs	r0, #1
	    	return altitude;
   d4d7e:	f8d8 9080 	ldr.w	r9, [r8, #128]	; 0x80
   d4d82:	f003 f98b 	bl	d809c <os_thread_scheduling>
   d4d86:	6860      	ldr	r0, [r4, #4]
   d4d88:	f7ff fa0f 	bl	d41aa <_ZNK13LegacyAdapter13getSatellitesEv.isra.0>
        os_thread_scheduling(false, NULL);
   d4d8c:	2100      	movs	r1, #0
   d4d8e:	4680      	mov	r8, r0
   d4d90:	4608      	mov	r0, r1
   d4d92:	f003 f983 	bl	d809c <os_thread_scheduling>
     * configuration in the sky. HDOP is a factor in determining the relative accuracy of a horizontal position.
     * The smaller the DOP number, the better the geometry.
	 */
	TinyGPSDecimal getHDOP() const {
	    SINGLE_THREADED_BLOCK() {
	    	return hdop;
   d4d96:	f8d4 40b8 	ldr.w	r4, [r4, #184]	; 0xb8
        os_thread_scheduling(true, NULL);
   d4d9a:	2100      	movs	r1, #0
   d4d9c:	2001      	movs	r0, #1
   d4d9e:	f003 f97d 	bl	d809c <os_thread_scheduling>
	double meters()       { return value() / 100.0; }
   d4da2:	4648      	mov	r0, r9
   d4da4:	e9cd 8406 	strd	r8, r4, [sp, #24]
   d4da8:	f005 fc96 	bl	da6d8 <__aeabi_i2d>
   d4dac:	4b29      	ldr	r3, [pc, #164]	; (d4e54 <_Z11displayInfov+0x198>)
   d4dae:	2200      	movs	r2, #0
   d4db0:	f005 fe26 	bl	daa00 <__aeabi_ddiv>
		return gpsData.getAltitude().meters();
   d4db4:	f005 ff2c 	bl	dac10 <__aeabi_d2f>
   d4db8:	f005 fca0 	bl	da6fc <__aeabi_f2d>
   d4dbc:	e9cd 0104 	strd	r0, r1, [sp, #16]
   d4dc0:	4638      	mov	r0, r7
   d4dc2:	f005 fc9b 	bl	da6fc <__aeabi_f2d>
   d4dc6:	e9cd 0102 	strd	r0, r1, [sp, #8]
   d4dca:	4630      	mov	r0, r6
   d4dcc:	f005 fc96 	bl	da6fc <__aeabi_f2d>
   d4dd0:	4a21      	ldr	r2, [pc, #132]	; (d4e58 <_Z11displayInfov+0x19c>)
   d4dd2:	e9cd 0100 	strd	r0, r1, [sp]
   d4dd6:	2180      	movs	r1, #128	; 0x80
   d4dd8:	a80a      	add	r0, sp, #40	; 0x28
   d4dda:	f003 fceb 	bl	d87b4 <snprintf>
			if (gettingFix) {
   d4dde:	782b      	ldrb	r3, [r5, #0]
   d4de0:	b153      	cbz	r3, d4df8 <_Z11displayInfov+0x13c>
				gettingFix = false;
   d4de2:	2300      	movs	r3, #0
   d4de4:	702b      	strb	r3, [r5, #0]
   d4de6:	f003 f9c1 	bl	d816c <HAL_Timer_Get_Milli_Seconds>
				unsigned long elapsed = millis() - startFix;
   d4dea:	4b18      	ldr	r3, [pc, #96]	; (d4e4c <_Z11displayInfov+0x190>)
				Log.info("%lu milliseconds to get GPS fix", elapsed);
   d4dec:	491b      	ldr	r1, [pc, #108]	; (d4e5c <_Z11displayInfov+0x1a0>)
				unsigned long elapsed = millis() - startFix;
   d4dee:	681a      	ldr	r2, [r3, #0]
				Log.info("%lu milliseconds to get GPS fix", elapsed);
   d4df0:	1a82      	subs	r2, r0, r2
   d4df2:	481b      	ldr	r0, [pc, #108]	; (d4e60 <_Z11displayInfov+0x1a4>)
   d4df4:	f7ff fa69 	bl	d42ca <_ZNK5spark6Logger4infoEPKcz>
			}
		}
		Log.info(buf);
   d4df8:	4819      	ldr	r0, [pc, #100]	; (d4e60 <_Z11displayInfov+0x1a4>)
   d4dfa:	a90a      	add	r1, sp, #40	; 0x28
   d4dfc:	f7ff fa65 	bl	d42ca <_ZNK5spark6Logger4infoEPKcz>
   d4e00:	f003 fc18 	bl	d8634 <spark_cloud_flag_connected>

		if (Particle.connected()) {
   d4e04:	b1b8      	cbz	r0, d4e36 <_Z11displayInfov+0x17a>
			if (millis() - lastPublish >= PUBLISH_PERIOD) {
   d4e06:	4c17      	ldr	r4, [pc, #92]	; (d4e64 <_Z11displayInfov+0x1a8>)
   d4e08:	f003 f9b0 	bl	d816c <HAL_Timer_Get_Milli_Seconds>
   d4e0c:	6823      	ldr	r3, [r4, #0]
   d4e0e:	1ac0      	subs	r0, r0, r3
   d4e10:	4b15      	ldr	r3, [pc, #84]	; (d4e68 <_Z11displayInfov+0x1ac>)
   d4e12:	4298      	cmp	r0, r3
   d4e14:	d90f      	bls.n	d4e36 <_Z11displayInfov+0x17a>
   d4e16:	f003 f9a9 	bl	d816c <HAL_Timer_Get_Milli_Seconds>
   d4e1a:	4b14      	ldr	r3, [pc, #80]	; (d4e6c <_Z11displayInfov+0x1b0>)
				lastPublish = millis();
   d4e1c:	6020      	str	r0, [r4, #0]
inline particle::Flags<TagT, ValueT>::Flags(Flag<TagT, ValueT> flag) :
        val_(flag.value()) {
}

template<typename TagT, typename ValueT>
inline particle::Flags<TagT, ValueT>::Flags(ValueT val) :
   d4e1e:	781b      	ldrb	r3, [r3, #0]
        return publish_event(eventName, eventData, ttl, flags1 | flags2);
   d4e20:	f88d 3000 	strb.w	r3, [sp]
   d4e24:	a808      	add	r0, sp, #32
   d4e26:	4912      	ldr	r1, [pc, #72]	; (d4e70 <_Z11displayInfov+0x1b4>)
   d4e28:	233c      	movs	r3, #60	; 0x3c
   d4e2a:	aa0a      	add	r2, sp, #40	; 0x28
   d4e2c:	f003 ffde 	bl	d8dec <_ZN10CloudClass13publish_eventEPKcS1_iN8particle5FlagsI15PublishFlagTypehEE>
	: _M_ptr(__p), _M_refcount(__r._M_refcount) // never throws
	{ }

      __shared_ptr(const __shared_ptr&) noexcept = default;
      __shared_ptr& operator=(const __shared_ptr&) noexcept = default;
      ~__shared_ptr() = default;
   d4e30:	a809      	add	r0, sp, #36	; 0x24
   d4e32:	f7ff ff2d 	bl	d4c90 <_ZNSt14__shared_countILN9__gnu_cxx12_Lock_policyE0EED1Ev>
				Particle.publish("gps", buf, PRIVATE);
			}
		}
	}
}
   d4e36:	b02b      	add	sp, #172	; 0xac
   d4e38:	e8bd 83f0 	ldmia.w	sp!, {r4, r5, r6, r7, r8, r9, pc}
   d4e3c:	2003e324 	.word	0x2003e324
   d4e40:	2003e398 	.word	0x2003e398
   d4e44:	2003e31c 	.word	0x2003e31c
   d4e48:	000db258 	.word	0x000db258
   d4e4c:	2003e36c 	.word	0x2003e36c
   d4e50:	2003e2a8 	.word	0x2003e2a8
   d4e54:	40590000 	.word	0x40590000
   d4e58:	000db272 	.word	0x000db272
   d4e5c:	000db2a3 	.word	0x000db2a3
   d4e60:	2003e624 	.word	0x2003e624
   d4e64:	2003e320 	.word	0x2003e320
   d4e68:	0001d4bf 	.word	0x0001d4bf
   d4e6c:	2003e258 	.word	0x2003e258
   d4e70:	000db2c3 	.word	0x000db2c3

000d4e74 <_Z16takeMeasurementsv>:
{
   d4e74:	b5f7      	push	{r0, r1, r2, r4, r5, r6, r7, lr}
  displayInfo();
   d4e76:	f7ff ff21 	bl	d4cbc <_Z11displayInfov>
        return network_ready(*this, 0,  NULL);
   d4e7a:	4b24      	ldr	r3, [pc, #144]	; (d4f0c <_Z16takeMeasurementsv+0x98>)
   d4e7c:	2200      	movs	r2, #0
   d4e7e:	6858      	ldr	r0, [r3, #4]
   d4e80:	4611      	mov	r1, r2
   d4e82:	f003 fc3f 	bl	d8704 <network_ready>
  if (Cellular.ready()) getSignalStrength();                        // Test signal strength if the cellular modem is on and ready
   d4e86:	b108      	cbz	r0, d4e8c <_Z16takeMeasurementsv+0x18>
   d4e88:	f7ff fc2c 	bl	d46e4 <_Z17getSignalStrengthv>
   d4e8c:	4d20      	ldr	r5, [pc, #128]	; (d4f10 <_Z16takeMeasurementsv+0x9c>)
    float temp = getTemp(sensorAddresses[i]);
   d4e8e:	4f21      	ldr	r7, [pc, #132]	; (d4f14 <_Z16takeMeasurementsv+0xa0>)
{
   d4e90:	2400      	movs	r4, #0
   d4e92:	462e      	mov	r6, r5
    float temp = getTemp(sensorAddresses[i]);
   d4e94:	1938      	adds	r0, r7, r4
   d4e96:	f7ff fbfb 	bl	d4690 <_Z7getTempPh>
   d4e9a:	ec51 0b10 	vmov	r0, r1, d0
   d4e9e:	f005 feb7 	bl	dac10 <__aeabi_d2f>
   d4ea2:	ee07 0a90 	vmov	s15, r0
    if (!isnan(temp)) current.tempArray[i] = temp;
   d4ea6:	eef4 7a67 	vcmp.f32	s15, s15
   d4eaa:	eef1 fa10 	vmrs	APSR_nzcv, fpscr
   d4eae:	d603      	bvs.n	d4eb8 <_Z16takeMeasurementsv+0x44>
   d4eb0:	f005 fc24 	bl	da6fc <__aeabi_f2d>
   d4eb4:	e9c5 0100 	strd	r0, r1, [r5]
  for (int i = 0; i < nSENSORS; i++) {
   d4eb8:	3408      	adds	r4, #8
   d4eba:	2c18      	cmp	r4, #24
   d4ebc:	f105 0508 	add.w	r5, r5, #8
   d4ec0:	d1e8      	bne.n	d4e94 <_Z16takeMeasurementsv+0x20>
  snprintf(cabinTempStr, sizeof(cabinTempStr),"%4.2f F", current.tempArray[0]);
   d4ec2:	e9d6 2300 	ldrd	r2, r3, [r6]
   d4ec6:	210c      	movs	r1, #12
   d4ec8:	e9cd 2300 	strd	r2, r3, [sp]
   d4ecc:	4812      	ldr	r0, [pc, #72]	; (d4f18 <_Z16takeMeasurementsv+0xa4>)
   d4ece:	4a13      	ldr	r2, [pc, #76]	; (d4f1c <_Z16takeMeasurementsv+0xa8>)
   d4ed0:	f003 fc70 	bl	d87b4 <snprintf>
  snprintf(ventTempStr, sizeof(ventTempStr),"%4.2f F", current.tempArray[1]);
   d4ed4:	e9d6 2302 	ldrd	r2, r3, [r6, #8]
   d4ed8:	210c      	movs	r1, #12
   d4eda:	e9cd 2300 	strd	r2, r3, [sp]
   d4ede:	4810      	ldr	r0, [pc, #64]	; (d4f20 <_Z16takeMeasurementsv+0xac>)
   d4ee0:	4a0e      	ldr	r2, [pc, #56]	; (d4f1c <_Z16takeMeasurementsv+0xa8>)
   d4ee2:	f003 fc67 	bl	d87b4 <snprintf>
  snprintf(outsideTempStr, sizeof(outsideTempStr),"%4.2f F", current.tempArray[2]);
   d4ee6:	e9d6 2304 	ldrd	r2, r3, [r6, #16]
   d4eea:	210c      	movs	r1, #12
   d4eec:	e9cd 2300 	strd	r2, r3, [sp]
   d4ef0:	480c      	ldr	r0, [pc, #48]	; (d4f24 <_Z16takeMeasurementsv+0xb0>)
   d4ef2:	4a0a      	ldr	r2, [pc, #40]	; (d4f1c <_Z16takeMeasurementsv+0xa8>)
   d4ef4:	f003 fc5e 	bl	d87b4 <snprintf>
  getBatteryContext();                                               // What is the battery up to?
   d4ef8:	f7ff fe66 	bl	d4bc8 <_Z17getBatteryContextv>
  systemStatusWriteNeeded=true;
   d4efc:	4a0a      	ldr	r2, [pc, #40]	; (d4f28 <_Z16takeMeasurementsv+0xb4>)
   d4efe:	2301      	movs	r3, #1
   d4f00:	7013      	strb	r3, [r2, #0]
  currentCountsWriteNeeded=true;
   d4f02:	4a0a      	ldr	r2, [pc, #40]	; (d4f2c <_Z16takeMeasurementsv+0xb8>)
   d4f04:	7013      	strb	r3, [r2, #0]
}
   d4f06:	b003      	add	sp, #12
   d4f08:	bdf0      	pop	{r4, r5, r6, r7, pc}
   d4f0a:	bf00      	nop
   d4f0c:	2003e5ec 	.word	0x2003e5ec
   d4f10:	2003e2a8 	.word	0x2003e2a8
   d4f14:	2003f400 	.word	0x2003f400
   d4f18:	2003e0d8 	.word	0x2003e0d8
   d4f1c:	000db2c7 	.word	0x000db2c7
   d4f20:	2003e178 	.word	0x2003e178
   d4f24:	2003e0f0 	.word	0x2003e0f0
   d4f28:	2003e394 	.word	0x2003e394
   d4f2c:	2003e2d8 	.word	0x2003e2d8

000d4f30 <_Z17checkSystemValuesv>:
void checkSystemValues() {                                          // Checks to ensure that all system values are in reasonable range
   d4f30:	b510      	push	{r4, lr}
  if (sysStatus.connectedStatus < 0 || sysStatus.connectedStatus > 1) {
   d4f32:	4c24      	ldr	r4, [pc, #144]	; (d4fc4 <_Z17checkSystemValuesv+0x94>)
  takeMeasurements();                                               // Sets the sysStatus.stateOfCharge
   d4f34:	f7ff ff9e 	bl	d4e74 <_Z16takeMeasurementsv>
  if (sysStatus.connectedStatus < 0 || sysStatus.connectedStatus > 1) {
   d4f38:	78e3      	ldrb	r3, [r4, #3]
   d4f3a:	2b01      	cmp	r3, #1
   d4f3c:	d905      	bls.n	d4f4a <_Z17checkSystemValuesv+0x1a>
    static bool connected(void) { return spark_cloud_flag_connected(); }
   d4f3e:	f003 fb79 	bl	d8634 <spark_cloud_flag_connected>
    if (Particle.connected()) sysStatus.connectedStatus = true;
   d4f42:	2800      	cmp	r0, #0
   d4f44:	d03b      	beq.n	d4fbe <_Z17checkSystemValuesv+0x8e>
   d4f46:	2301      	movs	r3, #1
   d4f48:	70e3      	strb	r3, [r4, #3]
  if (sysStatus.verboseMode < 0 || sysStatus.verboseMode > 1) sysStatus.verboseMode = false;
   d4f4a:	7923      	ldrb	r3, [r4, #4]
  if (sysStatus.timezone < -12 || sysStatus.timezone > 12) sysStatus.timezone = -5;
   d4f4c:	edd4 7a05 	vldr	s15, [r4, #20]
  if (sysStatus.verboseMode < 0 || sysStatus.verboseMode > 1) sysStatus.verboseMode = false;
   d4f50:	2b01      	cmp	r3, #1
   d4f52:	bf84      	itt	hi
   d4f54:	2300      	movhi	r3, #0
   d4f56:	7123      	strbhi	r3, [r4, #4]
  if (sysStatus.stateOfCharge < 30) sysStatus.lowBatteryMode = true;
   d4f58:	68a3      	ldr	r3, [r4, #8]
   d4f5a:	2b1d      	cmp	r3, #29
   d4f5c:	bfcc      	ite	gt
   d4f5e:	2300      	movgt	r3, #0
   d4f60:	2301      	movle	r3, #1
   d4f62:	7163      	strb	r3, [r4, #5]
  if (sysStatus.resetCount < 0 || sysStatus.resetCount > 255) sysStatus.resetCount = 0;
   d4f64:	6923      	ldr	r3, [r4, #16]
  if (sysStatus.timezone < -12 || sysStatus.timezone > 12) sysStatus.timezone = -5;
   d4f66:	eeba 7a08 	vmov.f32	s14, #168	; 0xc1400000 -12.0
  if (sysStatus.resetCount < 0 || sysStatus.resetCount > 255) sysStatus.resetCount = 0;
   d4f6a:	2bff      	cmp	r3, #255	; 0xff
   d4f6c:	bf88      	it	hi
   d4f6e:	2300      	movhi	r3, #0
  if (sysStatus.timezone < -12 || sysStatus.timezone > 12) sysStatus.timezone = -5;
   d4f70:	eef4 7ac7 	vcmpe.f32	s15, s14
  if (sysStatus.resetCount < 0 || sysStatus.resetCount > 255) sysStatus.resetCount = 0;
   d4f74:	bf88      	it	hi
   d4f76:	6123      	strhi	r3, [r4, #16]
  if (sysStatus.timezone < -12 || sysStatus.timezone > 12) sysStatus.timezone = -5;
   d4f78:	eef1 fa10 	vmrs	APSR_nzcv, fpscr
   d4f7c:	d406      	bmi.n	d4f8c <_Z17checkSystemValuesv+0x5c>
   d4f7e:	eeb2 7a08 	vmov.f32	s14, #40	; 0x41400000  12.0
   d4f82:	eef4 7ac7 	vcmpe.f32	s15, s14
   d4f86:	eef1 fa10 	vmrs	APSR_nzcv, fpscr
   d4f8a:	dd01      	ble.n	d4f90 <_Z17checkSystemValuesv+0x60>
   d4f8c:	4b0e      	ldr	r3, [pc, #56]	; (d4fc8 <_Z17checkSystemValuesv+0x98>)
   d4f8e:	6163      	str	r3, [r4, #20]
  if (sysStatus.dstOffset < 0 || sysStatus.dstOffset > 2) sysStatus.dstOffset = 1;
   d4f90:	edd4 7a06 	vldr	s15, [r4, #24]
   d4f94:	eef5 7ac0 	vcmpe.f32	s15, #0.0
   d4f98:	eef1 fa10 	vmrs	APSR_nzcv, fpscr
   d4f9c:	d406      	bmi.n	d4fac <_Z17checkSystemValuesv+0x7c>
   d4f9e:	eeb0 7a00 	vmov.f32	s14, #0	; 0x40000000  2.0
   d4fa2:	eef4 7ac7 	vcmpe.f32	s15, s14
   d4fa6:	eef1 fa10 	vmrs	APSR_nzcv, fpscr
   d4faa:	dd02      	ble.n	d4fb2 <_Z17checkSystemValuesv+0x82>
   d4fac:	f04f 537e 	mov.w	r3, #1065353216	; 0x3f800000
   d4fb0:	61a3      	str	r3, [r4, #24]
  sysStatus.sampleIntervalMin = 10;                                 // Default reading every 10 minutes
   d4fb2:	230a      	movs	r3, #10
   d4fb4:	71a3      	strb	r3, [r4, #6]
  systemStatusWriteNeeded = true;
   d4fb6:	4b05      	ldr	r3, [pc, #20]	; (d4fcc <_Z17checkSystemValuesv+0x9c>)
   d4fb8:	2201      	movs	r2, #1
   d4fba:	701a      	strb	r2, [r3, #0]
}
   d4fbc:	bd10      	pop	{r4, pc}
    else sysStatus.connectedStatus = false;
   d4fbe:	70e0      	strb	r0, [r4, #3]
   d4fc0:	e7c3      	b.n	d4f4a <_Z17checkSystemValuesv+0x1a>
   d4fc2:	bf00      	nop
   d4fc4:	2003e374 	.word	0x2003e374
   d4fc8:	c0a00000 	.word	0xc0a00000
   d4fcc:	2003e394 	.word	0x2003e394

000d4fd0 <_ZN6MB85RC3putI22systemStatus_structureEERKT_jS4_>:
    template <typename T> const T &put(size_t framAddr, const T &t) {
   d4fd0:	b538      	push	{r3, r4, r5, lr}
        writeData(framAddr, (const uint8_t *)&t, sizeof(T));
   d4fd2:	6803      	ldr	r3, [r0, #0]
    template <typename T> const T &put(size_t framAddr, const T &t) {
   d4fd4:	4614      	mov	r4, r2
        writeData(framAddr, (const uint8_t *)&t, sizeof(T));
   d4fd6:	68dd      	ldr	r5, [r3, #12]
   d4fd8:	2320      	movs	r3, #32
   d4fda:	47a8      	blx	r5
    }
   d4fdc:	4620      	mov	r0, r4
   d4fde:	bd38      	pop	{r3, r4, r5, pc}

000d4fe0 <loop>:
{
   d4fe0:	b570      	push	{r4, r5, r6, lr}
  switch(state) {
   d4fe2:	4c90      	ldr	r4, [pc, #576]	; (d5224 <loop+0x244>)
   d4fe4:	7823      	ldrb	r3, [r4, #0]
   d4fe6:	3b01      	subs	r3, #1
{
   d4fe8:	b086      	sub	sp, #24
   d4fea:	2b05      	cmp	r3, #5
   d4fec:	d82e      	bhi.n	d504c <loop+0x6c>
   d4fee:	e8df f013 	tbh	[pc, r3, lsl #1]
   d4ff2:	0143      	.short	0x0143
   d4ff4:	00ca0006 	.word	0x00ca0006
   d4ff8:	00cd0047 	.word	0x00cd0047
   d4ffc:	00f1      	.short	0x00f1
    if (sysStatus.verboseMode && state != oldState) publishStateTransition();
   d4ffe:	4d8a      	ldr	r5, [pc, #552]	; (d5228 <loop+0x248>)
   d5000:	792b      	ldrb	r3, [r5, #4]
   d5002:	b12b      	cbz	r3, d5010 <loop+0x30>
   d5004:	4b89      	ldr	r3, [pc, #548]	; (d522c <loop+0x24c>)
   d5006:	781b      	ldrb	r3, [r3, #0]
   d5008:	2b02      	cmp	r3, #2
   d500a:	d001      	beq.n	d5010 <loop+0x30>
   d500c:	f7ff fc62 	bl	d48d4 <_Z22publishStateTransitionv>
    if (sysStatus.lowBatteryMode) state = SLEEPING_STATE;
   d5010:	796b      	ldrb	r3, [r5, #5]
   d5012:	b10b      	cbz	r3, d5018 <loop+0x38>
   d5014:	2304      	movs	r3, #4
   d5016:	7023      	strb	r3, [r4, #0]
    if ((Time.minute() % sysStatus.sampleIntervalMin == 0) && (Time.minute() != currentMinutePeriod)) state = MEASURING_STATE;   // sub hourly interval
   d5018:	f004 ff56 	bl	d9ec8 <_ZN9TimeClass6minuteEv>
   d501c:	79ab      	ldrb	r3, [r5, #6]
   d501e:	fb90 f2f3 	sdiv	r2, r0, r3
   d5022:	fb02 0313 	mls	r3, r2, r3, r0
   d5026:	b943      	cbnz	r3, d503a <loop+0x5a>
   d5028:	f004 ff4e 	bl	d9ec8 <_ZN9TimeClass6minuteEv>
   d502c:	4b80      	ldr	r3, [pc, #512]	; (d5230 <loop+0x250>)
   d502e:	681b      	ldr	r3, [r3, #0]
   d5030:	4298      	cmp	r0, r3
   d5032:	d002      	beq.n	d503a <loop+0x5a>
   d5034:	2303      	movs	r3, #3
      state = IDLE_STATE;
   d5036:	7023      	strb	r3, [r4, #0]
   d5038:	e008      	b.n	d504c <loop+0x6c>
    else if ((Time.minute() == 0) && (Time.minute() != currentMinutePeriod)) state = MEASURING_STATE;           //  on hourly interval
   d503a:	f004 ff45 	bl	d9ec8 <_ZN9TimeClass6minuteEv>
   d503e:	b928      	cbnz	r0, d504c <loop+0x6c>
   d5040:	f004 ff42 	bl	d9ec8 <_ZN9TimeClass6minuteEv>
   d5044:	4b7a      	ldr	r3, [pc, #488]	; (d5230 <loop+0x250>)
   d5046:	681b      	ldr	r3, [r3, #0]
   d5048:	4298      	cmp	r0, r3
   d504a:	d1f3      	bne.n	d5034 <loop+0x54>
  if (systemStatusWriteNeeded) {
   d504c:	4c79      	ldr	r4, [pc, #484]	; (d5234 <loop+0x254>)
  ab1805.loop();                                                      // Keeps the RTC synchronized with the Boron's clock
   d504e:	487a      	ldr	r0, [pc, #488]	; (d5238 <loop+0x258>)
   d5050:	f001 f994 	bl	d637c <_ZN6AB18054loopEv>
  if (systemStatusWriteNeeded) {
   d5054:	7823      	ldrb	r3, [r4, #0]
   d5056:	b133      	cbz	r3, d5066 <loop+0x86>
    fram.put(FRAM::systemStatusAddr,sysStatus);
   d5058:	4a73      	ldr	r2, [pc, #460]	; (d5228 <loop+0x248>)
   d505a:	4878      	ldr	r0, [pc, #480]	; (d523c <loop+0x25c>)
   d505c:	2101      	movs	r1, #1
   d505e:	f7ff ffb7 	bl	d4fd0 <_ZN6MB85RC3putI22systemStatus_structureEERKT_jS4_>
    systemStatusWriteNeeded = false;
   d5062:	2300      	movs	r3, #0
   d5064:	7023      	strb	r3, [r4, #0]
  if (currentCountsWriteNeeded) {
   d5066:	4c76      	ldr	r4, [pc, #472]	; (d5240 <loop+0x260>)
   d5068:	7823      	ldrb	r3, [r4, #0]
   d506a:	b13b      	cbz	r3, d507c <loop+0x9c>
        writeData(framAddr, (const uint8_t *)&t, sizeof(T));
   d506c:	2330      	movs	r3, #48	; 0x30
   d506e:	4a75      	ldr	r2, [pc, #468]	; (d5244 <loop+0x264>)
   d5070:	4872      	ldr	r0, [pc, #456]	; (d523c <loop+0x25c>)
   d5072:	2150      	movs	r1, #80	; 0x50
   d5074:	f002 fa25 	bl	d74c2 <_ZN6MB85RC9writeDataEjPKhj>
    currentCountsWriteNeeded = false;
   d5078:	2300      	movs	r3, #0
   d507a:	7023      	strb	r3, [r4, #0]
}
   d507c:	b006      	add	sp, #24
   d507e:	bd70      	pop	{r4, r5, r6, pc}
    if (sysStatus.verboseMode && state != oldState) publishStateTransition();
   d5080:	4d69      	ldr	r5, [pc, #420]	; (d5228 <loop+0x248>)
   d5082:	792b      	ldrb	r3, [r5, #4]
   d5084:	b12b      	cbz	r3, d5092 <loop+0xb2>
   d5086:	4b69      	ldr	r3, [pc, #420]	; (d522c <loop+0x24c>)
   d5088:	781b      	ldrb	r3, [r3, #0]
   d508a:	2b04      	cmp	r3, #4
   d508c:	d001      	beq.n	d5092 <loop+0xb2>
   d508e:	f7ff fc21 	bl	d48d4 <_Z22publishStateTransitionv>
    getBatteryContext();                                              // Check to make sure we should still be in the low battery state
   d5092:	f7ff fd99 	bl	d4bc8 <_Z17getBatteryContextv>
    if (!sysStatus.lowBatteryMode) {                                  // If not, we need to exit this state and go back to IDLE_STATE
   d5096:	796b      	ldrb	r3, [r5, #5]
   d5098:	b90b      	cbnz	r3, d509e <loop+0xbe>
      state = IDLE_STATE;
   d509a:	2302      	movs	r3, #2
   d509c:	e7cb      	b.n	d5036 <loop+0x56>
    else if (Time.now() - sysStatus.lastHookResponse > 7200L) {       // Troubleshooting code
   d509e:	f004 fef6 	bl	d9e8e <_ZN9TimeClass3nowEv>
   d50a2:	69eb      	ldr	r3, [r5, #28]
   d50a4:	1ac0      	subs	r0, r0, r3
   d50a6:	f5b0 5fe1 	cmp.w	r0, #7200	; 0x1c20
   d50aa:	d910      	bls.n	d50ce <loop+0xee>
      connectToParticle();
   d50ac:	f7ff fb84 	bl	d47b8 <_Z17connectToParticlev>
   d50b0:	4b65      	ldr	r3, [pc, #404]	; (d5248 <loop+0x268>)
        return publish_event(eventName, eventData, ttl, flags1 | flags2);
   d50b2:	4a66      	ldr	r2, [pc, #408]	; (d524c <loop+0x26c>)
   d50b4:	781b      	ldrb	r3, [r3, #0]
   d50b6:	f88d 3000 	strb.w	r3, [sp]
   d50ba:	a803      	add	r0, sp, #12
   d50bc:	4964      	ldr	r1, [pc, #400]	; (d5250 <loop+0x270>)
   d50be:	233c      	movs	r3, #60	; 0x3c
   d50c0:	f003 fe94 	bl	d8dec <_ZN10CloudClass13publish_eventEPKcS1_iN8particle5FlagsI15PublishFlagTypehEE>
   d50c4:	a804      	add	r0, sp, #16
   d50c6:	f7ff fde3 	bl	d4c90 <_ZNSt14__shared_countILN9__gnu_cxx12_Lock_policyE0EED1Ev>
    state = REPORTING_STATE;
   d50ca:	2305      	movs	r3, #5
   d50cc:	e7b3      	b.n	d5036 <loop+0x56>
    if (Time.minute() > 1 && sysStatus.connectedStatus) disconnectFromParticle();          // Disconnect cleanly from Particle after the first minute
   d50ce:	f004 fefb 	bl	d9ec8 <_ZN9TimeClass6minuteEv>
   d50d2:	2801      	cmp	r0, #1
   d50d4:	dd03      	ble.n	d50de <loop+0xfe>
   d50d6:	78eb      	ldrb	r3, [r5, #3]
   d50d8:	b10b      	cbz	r3, d50de <loop+0xfe>
   d50da:	f7ff fbbb 	bl	d4854 <_Z22disconnectFromParticlev>
      digitalWrite(blueLED,LOW);                                        // Turn off the LED
   d50de:	2100      	movs	r1, #0
   d50e0:	2007      	movs	r0, #7
   d50e2:	f005 f92c 	bl	da33e <digitalWrite>
     * @brief Stops the watchdog timer. Useful before entering sleep mode.
     * 
     * This is done automatically right before reset (using the reset system event)
     * so the watchdog won't trigger during a firmware update. 
     */
    bool stopWDT() { return setWDT(0); };
   d50e6:	2100      	movs	r1, #0
   d50e8:	4853      	ldr	r0, [pc, #332]	; (d5238 <loop+0x258>)
   d50ea:	f000 fd4f 	bl	d5b8c <_ZN6AB18056setWDTEi>
      int wakeInSeconds = constrain((60 - Time.minute()) * 60, 1, 60 * 60);   // Sleep till the top of the hour
   d50ee:	f004 feeb 	bl	d9ec8 <_ZN9TimeClass6minuteEv>
        if (valid_) {
   d50f2:	4b58      	ldr	r3, [pc, #352]	; (d5254 <loop+0x274>)
   d50f4:	7d1a      	ldrb	r2, [r3, #20]
   d50f6:	4604      	mov	r4, r0
   d50f8:	b10a      	cbz	r2, d50fe <loop+0x11e>
            config_.mode = static_cast<hal_sleep_mode_t>(mode);
   d50fa:	2202      	movs	r2, #2
   d50fc:	721a      	strb	r2, [r3, #8]
        .gpio(userSwitch,CHANGE)
   d50fe:	4855      	ldr	r0, [pc, #340]	; (d5254 <loop+0x274>)
   d5100:	2200      	movs	r2, #0
   d5102:	2104      	movs	r1, #4
   d5104:	f7ff f8aa 	bl	d425c <_ZN8particle24SystemSleepConfiguration4gpioEt13InterruptMode>

    SystemSleepConfiguration& duration(system_tick_t ms) {
        if (valid_) {
   d5108:	7d03      	ldrb	r3, [r0, #20]
   d510a:	4605      	mov	r5, r0
   d510c:	b35b      	cbz	r3, d5166 <loop+0x186>
      int wakeInSeconds = constrain((60 - Time.minute()) * 60, 1, 60 * 60);   // Sleep till the top of the hour
   d510e:	233c      	movs	r3, #60	; 0x3c
   d5110:	f1c4 003c 	rsb	r0, r4, #60	; 0x3c
   d5114:	4358      	muls	r0, r3
        .duration(wakeInSeconds * 1000);
   d5116:	f5b0 6f61 	cmp.w	r0, #3600	; 0xe10
   d511a:	bfa8      	it	ge
   d511c:	f44f 6061 	movge.w	r0, #3600	; 0xe10
        return wakeupSourceFeatured(type, config_->wakeup_sources);
   d5120:	682b      	ldr	r3, [r5, #0]
   d5122:	2801      	cmp	r0, #1
   d5124:	bfb8      	it	lt
   d5126:	2001      	movlt	r0, #1
   d5128:	f44f 767a 	mov.w	r6, #1000	; 0x3e8
   d512c:	68db      	ldr	r3, [r3, #12]
   d512e:	4346      	muls	r6, r0
        if (!start) {
   d5130:	b12b      	cbz	r3, d513e <loop+0x15e>
            if (start->type == type) {
   d5132:	889a      	ldrh	r2, [r3, #4]
   d5134:	2a04      	cmp	r2, #4
   d5136:	f000 810a 	beq.w	d534e <loop+0x36e>
            start = start->next;
   d513a:	689b      	ldr	r3, [r3, #8]
        while (start) {
   d513c:	e7f8      	b.n	d5130 <loop+0x150>
            if (wakeup) {
                reinterpret_cast<hal_wakeup_source_rtc_t*>(wakeup)->ms = ms;
                return *this;
            }
            // Otherwise, configure RTC as wakeup source.
            auto wakeupSource = new(std::nothrow) hal_wakeup_source_rtc_t();
   d513e:	4946      	ldr	r1, [pc, #280]	; (d5258 <loop+0x278>)
   d5140:	2010      	movs	r0, #16
   d5142:	f005 f970 	bl	da426 <_ZnwjRKSt9nothrow_t>
   d5146:	4604      	mov	r4, r0
   d5148:	2800      	cmp	r0, #0
   d514a:	f000 80fe 	beq.w	d534a <loop+0x36a>
   d514e:	2210      	movs	r2, #16
   d5150:	2100      	movs	r1, #0
   d5152:	f005 fe57 	bl	dae04 <memset>
            if (!wakeupSource) {
                valid_ = false;
                return *this;
            }
            wakeupSource->base.size = sizeof(hal_wakeup_source_rtc_t);
   d5156:	4b41      	ldr	r3, [pc, #260]	; (d525c <loop+0x27c>)
   d5158:	6023      	str	r3, [r4, #0]
            wakeupSource->base.version = HAL_SLEEP_VERSION;
            wakeupSource->base.type = HAL_WAKEUP_SOURCE_TYPE_RTC;
   d515a:	2304      	movs	r3, #4
   d515c:	80a3      	strh	r3, [r4, #4]
            wakeupSource->base.next = config_.wakeup_sources;
   d515e:	692b      	ldr	r3, [r5, #16]
            wakeupSource->ms = ms;
   d5160:	e9c4 3602 	strd	r3, r6, [r4, #8]
            config_.wakeup_sources = reinterpret_cast<hal_wakeup_source_base_t*>(wakeupSource);
   d5164:	612c      	str	r4, [r5, #16]
      SystemSleepResult result = System.sleep(config);                   // Put the device to sleep device reboots from here   
   d5166:	493b      	ldr	r1, [pc, #236]	; (d5254 <loop+0x274>)
   d5168:	a803      	add	r0, sp, #12
   d516a:	f004 fc27 	bl	d99bc <_ZN11SystemClass5sleepERKN8particle24SystemSleepConfigurationE>
     * sleep modes where executinon continues. You may also want to call `updateWakeReason()`.
     * 
     * It's safe to call resumeWDT() even if the WDT has never been set, it does nothing
     * in this case, leaving the watchdog off.
     */
    bool resumeWDT() { return setWDT(-1); };
   d516e:	4832      	ldr	r0, [pc, #200]	; (d5238 <loop+0x258>)
   d5170:	f04f 31ff 	mov.w	r1, #4294967295	; 0xffffffff
   d5174:	f000 fd0a 	bl	d5b8c <_ZN6AB18056setWDTEi>
        if (wakeupSource_) {
   d5178:	9803      	ldr	r0, [sp, #12]
   d517a:	2800      	cmp	r0, #0
   d517c:	f43f af66 	beq.w	d504c <loop+0x6c>
            free(wakeupSource_);
   d5180:	f003 fb00 	bl	d8784 <free>
    } break;
   d5184:	e762      	b.n	d504c <loop+0x6c>
    takeMeasurements();                                             // Update Temp, Battery and Signal Strength values
   d5186:	f7ff fe75 	bl	d4e74 <_Z16takeMeasurementsv>
   d518a:	e79e      	b.n	d50ca <loop+0xea>
    if (sysStatus.verboseMode && state != oldState) publishStateTransition();
   d518c:	4d26      	ldr	r5, [pc, #152]	; (d5228 <loop+0x248>)
   d518e:	792a      	ldrb	r2, [r5, #4]
   d5190:	b12a      	cbz	r2, d519e <loop+0x1be>
   d5192:	4b26      	ldr	r3, [pc, #152]	; (d522c <loop+0x24c>)
   d5194:	781b      	ldrb	r3, [r3, #0]
   d5196:	2b05      	cmp	r3, #5
   d5198:	d001      	beq.n	d519e <loop+0x1be>
   d519a:	f7ff fb9b 	bl	d48d4 <_Z22publishStateTransitionv>
    if (!sysStatus.connectedStatus) connectToParticle();              // Only attempt to connect if not already New process to get connected
   d519e:	78eb      	ldrb	r3, [r5, #3]
   d51a0:	b90b      	cbnz	r3, d51a6 <loop+0x1c6>
   d51a2:	f7ff fb09 	bl	d47b8 <_Z17connectToParticlev>
    static bool connected(void) { return spark_cloud_flag_connected(); }
   d51a6:	f003 fa45 	bl	d8634 <spark_cloud_flag_connected>
    if (!Particle.connected()) connectToParticle();                   // Just to make sure
   d51aa:	b908      	cbnz	r0, d51b0 <loop+0x1d0>
   d51ac:	f7ff fb04 	bl	d47b8 <_Z17connectToParticlev>
   d51b0:	f003 fa40 	bl	d8634 <spark_cloud_flag_connected>
    if (Particle.connected()) {
   d51b4:	b140      	cbz	r0, d51c8 <loop+0x1e8>
      if (Time.hour() == 0) dailyCleanup();                           // Once a day, clean house
   d51b6:	f004 fe7b 	bl	d9eb0 <_ZN9TimeClass4hourEv>
   d51ba:	b908      	cbnz	r0, d51c0 <loop+0x1e0>
   d51bc:	f7ff fbf0 	bl	d49a0 <_Z12dailyCleanupv>
      sendEvent();                                                    // Send data to Ubidots
   d51c0:	f7ff fa04 	bl	d45cc <_Z9sendEventv>
      state = RESP_WAIT_STATE;                                        // Wait for Response
   d51c4:	2306      	movs	r3, #6
   d51c6:	e736      	b.n	d5036 <loop+0x56>
   d51c8:	f002 ffd0 	bl	d816c <HAL_Timer_Get_Milli_Seconds>
      resetTimeStamp = millis();
   d51cc:	4b24      	ldr	r3, [pc, #144]	; (d5260 <loop+0x280>)
   d51ce:	6018      	str	r0, [r3, #0]
      state = ERROR_STATE;                                            // Response timed out
   d51d0:	2301      	movs	r3, #1
   d51d2:	e730      	b.n	d5036 <loop+0x56>
    if (sysStatus.verboseMode && state != oldState) publishStateTransition();
   d51d4:	4b14      	ldr	r3, [pc, #80]	; (d5228 <loop+0x248>)
   d51d6:	791b      	ldrb	r3, [r3, #4]
   d51d8:	b12b      	cbz	r3, d51e6 <loop+0x206>
   d51da:	4b14      	ldr	r3, [pc, #80]	; (d522c <loop+0x24c>)
   d51dc:	781b      	ldrb	r3, [r3, #0]
   d51de:	2b06      	cmp	r3, #6
   d51e0:	d001      	beq.n	d51e6 <loop+0x206>
   d51e2:	f7ff fb77 	bl	d48d4 <_Z22publishStateTransitionv>
    if (!dataInFlight)  {                                             // Response received back to IDLE state
   d51e6:	4b1f      	ldr	r3, [pc, #124]	; (d5264 <loop+0x284>)
   d51e8:	781b      	ldrb	r3, [r3, #0]
   d51ea:	2b00      	cmp	r3, #0
   d51ec:	f43f af55 	beq.w	d509a <loop+0xba>
   d51f0:	f002 ffbc 	bl	d816c <HAL_Timer_Get_Milli_Seconds>
    else if (millis() - webhookTimeStamp > webhookWait) {             // If it takes too long - will need to reset
   d51f4:	4b1c      	ldr	r3, [pc, #112]	; (d5268 <loop+0x288>)
   d51f6:	681b      	ldr	r3, [r3, #0]
   d51f8:	1ac0      	subs	r0, r0, r3
   d51fa:	f64a 73c8 	movw	r3, #45000	; 0xafc8
   d51fe:	4298      	cmp	r0, r3
   d5200:	f67f af24 	bls.w	d504c <loop+0x6c>
   d5204:	f002 ffb2 	bl	d816c <HAL_Timer_Get_Milli_Seconds>
      resetTimeStamp = millis();
   d5208:	4b15      	ldr	r3, [pc, #84]	; (d5260 <loop+0x280>)
      publishQueue.publish("spark/device/session/end", "", PRIVATE);      // If the device times out on the Webhook response, it will ensure a new session is started on next connect
   d520a:	4a18      	ldr	r2, [pc, #96]	; (d526c <loop+0x28c>)
      resetTimeStamp = millis();
   d520c:	6018      	str	r0, [r3, #0]
        val_(0) {
   d520e:	2300      	movs	r3, #0
      publishQueue.publish("spark/device/session/end", "", PRIVATE);      // If the device times out on the Webhook response, it will ensure a new session is started on next connect
   d5210:	f88d 3000 	strb.w	r3, [sp]
   d5214:	4b0c      	ldr	r3, [pc, #48]	; (d5248 <loop+0x268>)
   d5216:	4916      	ldr	r1, [pc, #88]	; (d5270 <loop+0x290>)
   d5218:	781b      	ldrb	r3, [r3, #0]
   d521a:	4816      	ldr	r0, [pc, #88]	; (d5274 <loop+0x294>)
   d521c:	f7ff f86c 	bl	d42f8 <_ZN21PublishQueueAsyncBase7publishEPKcS1_N8particle5FlagsI15PublishFlagTypehEES5_>
   d5220:	e7d6      	b.n	d51d0 <loop+0x1f0>
   d5222:	bf00      	nop
   d5224:	2003e370 	.word	0x2003e370
   d5228:	2003e374 	.word	0x2003e374
   d522c:	2003e32c 	.word	0x2003e32c
   d5230:	2003e2e0 	.word	0x2003e2e0
   d5234:	2003e394 	.word	0x2003e394
   d5238:	2003e25c 	.word	0x2003e25c
   d523c:	2003e30c 	.word	0x2003e30c
   d5240:	2003e2d8 	.word	0x2003e2d8
   d5244:	2003e2a8 	.word	0x2003e2a8
   d5248:	2003e258 	.word	0x2003e258
   d524c:	000db2cf 	.word	0x000db2cf
   d5250:	000db2e4 	.word	0x000db2e4
   d5254:	2003e28c 	.word	0x2003e28c
   d5258:	000dbb40 	.word	0x000dbb40
   d525c:	00030010 	.word	0x00030010
   d5260:	2003e368 	.word	0x2003e368
   d5264:	2003e2ee 	.word	0x2003e2ee
   d5268:	2003e5b4 	.word	0x2003e5b4
   d526c:	000db230 	.word	0x000db230
   d5270:	000db2ea 	.word	0x000db2ea
   d5274:	2003e330 	.word	0x2003e330
    if (sysStatus.verboseMode && state != oldState) publishStateTransition();
   d5278:	4c36      	ldr	r4, [pc, #216]	; (d5354 <loop+0x374>)
   d527a:	7923      	ldrb	r3, [r4, #4]
   d527c:	b12b      	cbz	r3, d528a <loop+0x2aa>
   d527e:	4b36      	ldr	r3, [pc, #216]	; (d5358 <loop+0x378>)
   d5280:	781b      	ldrb	r3, [r3, #0]
   d5282:	2b01      	cmp	r3, #1
   d5284:	d001      	beq.n	d528a <loop+0x2aa>
   d5286:	f7ff fb25 	bl	d48d4 <_Z22publishStateTransitionv>
   d528a:	f002 ff6f 	bl	d816c <HAL_Timer_Get_Milli_Seconds>
    if (millis() > resetTimeStamp + resetWait) {
   d528e:	4b33      	ldr	r3, [pc, #204]	; (d535c <loop+0x37c>)
   d5290:	681b      	ldr	r3, [r3, #0]
   d5292:	f503 43ea 	add.w	r3, r3, #29952	; 0x7500
   d5296:	3330      	adds	r3, #48	; 0x30
   d5298:	4283      	cmp	r3, r0
   d529a:	f4bf aed7 	bcs.w	d504c <loop+0x6c>
      if (sysStatus.resetCount <= 3) {                                          // First try simple reset
   d529e:	6923      	ldr	r3, [r4, #16]
   d52a0:	2b03      	cmp	r3, #3
   d52a2:	dc13      	bgt.n	d52cc <loop+0x2ec>
   d52a4:	f003 f9c6 	bl	d8634 <spark_cloud_flag_connected>
        if (Particle.connected()) publishQueue.publish("State","Error State - Reset", PRIVATE);    // Brodcast Reset Action
   d52a8:	b148      	cbz	r0, d52be <loop+0x2de>
   d52aa:	2300      	movs	r3, #0
   d52ac:	f88d 3000 	strb.w	r3, [sp]
   d52b0:	4b2b      	ldr	r3, [pc, #172]	; (d5360 <loop+0x380>)
   d52b2:	4a2c      	ldr	r2, [pc, #176]	; (d5364 <loop+0x384>)
   d52b4:	781b      	ldrb	r3, [r3, #0]
   d52b6:	492c      	ldr	r1, [pc, #176]	; (d5368 <loop+0x388>)
   d52b8:	482c      	ldr	r0, [pc, #176]	; (d536c <loop+0x38c>)
   d52ba:	f7ff f81d 	bl	d42f8 <_ZN21PublishQueueAsyncBase7publishEPKcS1_N8particle5FlagsI15PublishFlagTypehEES5_>
        delay(2000);
   d52be:	f44f 60fa 	mov.w	r0, #2000	; 0x7d0
   d52c2:	f003 fabf 	bl	d8844 <delay>
        System.reset();
   d52c6:	f004 fb75 	bl	d99b4 <_ZN11SystemClass5resetEv>
   d52ca:	e6bf      	b.n	d504c <loop+0x6c>
      else if (Time.now() - sysStatus.lastHookResponse > 7200L) { //It has been more than two hours since a sucessful hook response
   d52cc:	f004 fddf 	bl	d9e8e <_ZN9TimeClass3nowEv>
   d52d0:	69e3      	ldr	r3, [r4, #28]
   d52d2:	1ac0      	subs	r0, r0, r3
   d52d4:	f5b0 5fe1 	cmp.w	r0, #7200	; 0x1c20
   d52d8:	d91c      	bls.n	d5314 <loop+0x334>
   d52da:	f003 f9ab 	bl	d8634 <spark_cloud_flag_connected>
        if (Particle.connected()) publishQueue.publish("State","Error State - Power Cycle", PRIVATE);  // Broadcast Reset Action
   d52de:	b148      	cbz	r0, d52f4 <loop+0x314>
   d52e0:	2300      	movs	r3, #0
   d52e2:	f88d 3000 	strb.w	r3, [sp]
   d52e6:	4b1e      	ldr	r3, [pc, #120]	; (d5360 <loop+0x380>)
   d52e8:	4a21      	ldr	r2, [pc, #132]	; (d5370 <loop+0x390>)
   d52ea:	781b      	ldrb	r3, [r3, #0]
   d52ec:	491e      	ldr	r1, [pc, #120]	; (d5368 <loop+0x388>)
   d52ee:	481f      	ldr	r0, [pc, #124]	; (d536c <loop+0x38c>)
   d52f0:	f7ff f802 	bl	d42f8 <_ZN21PublishQueueAsyncBase7publishEPKcS1_N8particle5FlagsI15PublishFlagTypehEES5_>
        delay(2000);
   d52f4:	f44f 60fa 	mov.w	r0, #2000	; 0x7d0
   d52f8:	f003 faa4 	bl	d8844 <delay>
        sysStatus.resetCount = 0;                                  // Zero the ResetCount
   d52fc:	2300      	movs	r3, #0
        fram.put(FRAM::systemStatusAddr,sysStatus);
   d52fe:	4a15      	ldr	r2, [pc, #84]	; (d5354 <loop+0x374>)
   d5300:	481c      	ldr	r0, [pc, #112]	; (d5374 <loop+0x394>)
        sysStatus.resetCount = 0;                                  // Zero the ResetCount
   d5302:	6123      	str	r3, [r4, #16]
        fram.put(FRAM::systemStatusAddr,sysStatus);
   d5304:	2101      	movs	r1, #1
   d5306:	f7ff fe63 	bl	d4fd0 <_ZN6MB85RC3putI22systemStatus_structureEERKT_jS4_>
        ab1805.deepPowerDown(10);
   d530a:	210a      	movs	r1, #10
   d530c:	481a      	ldr	r0, [pc, #104]	; (d5378 <loop+0x398>)
   d530e:	f000 fd97 	bl	d5e40 <_ZN6AB180513deepPowerDownEi>
   d5312:	e69b      	b.n	d504c <loop+0x6c>
   d5314:	f003 f98e 	bl	d8634 <spark_cloud_flag_connected>
        if (Particle.connected()) publishQueue.publish("State","Error State - Power Cycle", PRIVATE);            // Brodcase Reset Action
   d5318:	b148      	cbz	r0, d532e <loop+0x34e>
   d531a:	2300      	movs	r3, #0
   d531c:	f88d 3000 	strb.w	r3, [sp]
   d5320:	4b0f      	ldr	r3, [pc, #60]	; (d5360 <loop+0x380>)
   d5322:	4a13      	ldr	r2, [pc, #76]	; (d5370 <loop+0x390>)
   d5324:	781b      	ldrb	r3, [r3, #0]
   d5326:	4910      	ldr	r1, [pc, #64]	; (d5368 <loop+0x388>)
   d5328:	4810      	ldr	r0, [pc, #64]	; (d536c <loop+0x38c>)
   d532a:	f7fe ffe5 	bl	d42f8 <_ZN21PublishQueueAsyncBase7publishEPKcS1_N8particle5FlagsI15PublishFlagTypehEES5_>
        delay(2000);
   d532e:	f44f 60fa 	mov.w	r0, #2000	; 0x7d0
   d5332:	f003 fa87 	bl	d8844 <delay>
        sysStatus.resetCount = 0;                                     // Zero the ResetCount
   d5336:	2300      	movs	r3, #0
        fram.put(FRAM::systemStatusAddr,sysStatus);
   d5338:	4a06      	ldr	r2, [pc, #24]	; (d5354 <loop+0x374>)
   d533a:	480e      	ldr	r0, [pc, #56]	; (d5374 <loop+0x394>)
        sysStatus.resetCount = 0;                                     // Zero the ResetCount
   d533c:	6123      	str	r3, [r4, #16]
        fram.put(FRAM::systemStatusAddr,sysStatus);
   d533e:	2101      	movs	r1, #1
   d5340:	f7ff fe46 	bl	d4fd0 <_ZN6MB85RC3putI22systemStatus_structureEERKT_jS4_>
        fullModemReset();                                             // Full Modem reset and reboots
   d5344:	f7ff faf8 	bl	d4938 <_Z14fullModemResetv>
   d5348:	e680      	b.n	d504c <loop+0x6c>
                valid_ = false;
   d534a:	7528      	strb	r0, [r5, #20]
                return *this;
   d534c:	e70b      	b.n	d5166 <loop+0x186>
                reinterpret_cast<hal_wakeup_source_rtc_t*>(wakeup)->ms = ms;
   d534e:	60de      	str	r6, [r3, #12]
                return *this;
   d5350:	e709      	b.n	d5166 <loop+0x186>
   d5352:	bf00      	nop
   d5354:	2003e374 	.word	0x2003e374
   d5358:	2003e32c 	.word	0x2003e32c
   d535c:	2003e368 	.word	0x2003e368
   d5360:	2003e258 	.word	0x2003e258
   d5364:	000db303 	.word	0x000db303
   d5368:	000db2e4 	.word	0x000db2e4
   d536c:	2003e330 	.word	0x2003e330
   d5370:	000db317 	.word	0x000db317
   d5374:	2003e30c 	.word	0x2003e30c
   d5378:	2003e25c 	.word	0x2003e25c

000d537c <_Z18loadSystemDefaultsv>:
void loadSystemDefaults() {                                         // Default settings for the device - connected, not-low power and always on
   d537c:	b507      	push	{r0, r1, r2, lr}
  connectToParticle();                                              // Get connected to Particle - sets sysStatus.connectedStatus to true
   d537e:	f7ff fa1b 	bl	d47b8 <_Z17connectToParticlev>
  takeMeasurements();                                               // Need information to set value here - sets sysStatus.stateOfCharge
   d5382:	f7ff fd77 	bl	d4e74 <_Z16takeMeasurementsv>
   d5386:	f003 f955 	bl	d8634 <spark_cloud_flag_connected>
  if (Particle.connected()) publishQueue.publish("Mode","Loading System Defaults", PRIVATE);
   d538a:	b148      	cbz	r0, d53a0 <_Z18loadSystemDefaultsv+0x24>
   d538c:	2300      	movs	r3, #0
   d538e:	f88d 3000 	strb.w	r3, [sp]
   d5392:	4b0f      	ldr	r3, [pc, #60]	; (d53d0 <_Z18loadSystemDefaultsv+0x54>)
   d5394:	4a0f      	ldr	r2, [pc, #60]	; (d53d4 <_Z18loadSystemDefaultsv+0x58>)
   d5396:	781b      	ldrb	r3, [r3, #0]
   d5398:	490f      	ldr	r1, [pc, #60]	; (d53d8 <_Z18loadSystemDefaultsv+0x5c>)
   d539a:	4810      	ldr	r0, [pc, #64]	; (d53dc <_Z18loadSystemDefaultsv+0x60>)
   d539c:	f7fe ffac 	bl	d42f8 <_ZN21PublishQueueAsyncBase7publishEPKcS1_N8particle5FlagsI15PublishFlagTypehEES5_>
  sysStatus.structuresVersion = 1;
   d53a0:	4a0f      	ldr	r2, [pc, #60]	; (d53e0 <_Z18loadSystemDefaultsv+0x64>)
  fram.put(FRAM::systemStatusAddr,sysStatus);                       // Write it now since this is a big deal and I don't want values over written
   d53a2:	4810      	ldr	r0, [pc, #64]	; (d53e4 <_Z18loadSystemDefaultsv+0x68>)
  if (sysStatus.stateOfCharge < 30) sysStatus.lowBatteryMode = true;
   d53a4:	6893      	ldr	r3, [r2, #8]
   d53a6:	2b1d      	cmp	r3, #29
   d53a8:	bfcc      	ite	gt
   d53aa:	2300      	movgt	r3, #0
   d53ac:	2301      	movle	r3, #1
   d53ae:	7153      	strb	r3, [r2, #5]
  sysStatus.sampleIntervalMin = 10;                                 // Default reading every 10 minutes
   d53b0:	230a      	movs	r3, #10
   d53b2:	7193      	strb	r3, [r2, #6]
  sysStatus.timezone = -5;                                          // Default is East Coast Time
   d53b4:	4b0c      	ldr	r3, [pc, #48]	; (d53e8 <_Z18loadSystemDefaultsv+0x6c>)
   d53b6:	6153      	str	r3, [r2, #20]
  sysStatus.structuresVersion = 1;
   d53b8:	2101      	movs	r1, #1
  sysStatus.dstOffset = 1;
   d53ba:	f04f 537e 	mov.w	r3, #1065353216	; 0x3f800000
  sysStatus.structuresVersion = 1;
   d53be:	7011      	strb	r1, [r2, #0]
  sysStatus.verboseMode = true;
   d53c0:	7111      	strb	r1, [r2, #4]
  sysStatus.dstOffset = 1;
   d53c2:	6193      	str	r3, [r2, #24]
  fram.put(FRAM::systemStatusAddr,sysStatus);                       // Write it now since this is a big deal and I don't want values over written
   d53c4:	f7ff fe04 	bl	d4fd0 <_ZN6MB85RC3putI22systemStatus_structureEERKT_jS4_>
}
   d53c8:	b003      	add	sp, #12
   d53ca:	f85d fb04 	ldr.w	pc, [sp], #4
   d53ce:	bf00      	nop
   d53d0:	2003e258 	.word	0x2003e258
   d53d4:	000db331 	.word	0x000db331
   d53d8:	000db0f7 	.word	0x000db0f7
   d53dc:	2003e330 	.word	0x2003e330
   d53e0:	2003e374 	.word	0x2003e374
   d53e4:	2003e30c 	.word	0x2003e30c
   d53e8:	c0a00000 	.word	0xc0a00000
   d53ec:	00000000 	.word	0x00000000

000d53f0 <setup>:
{
   d53f0:	b5f0      	push	{r4, r5, r6, r7, lr}
  pinMode(wakeUpPin,INPUT);                         // This pin is active HIGH
   d53f2:	2100      	movs	r1, #0
{
   d53f4:	b0ab      	sub	sp, #172	; 0xac
  pinMode(wakeUpPin,INPUT);                         // This pin is active HIGH
   d53f6:	2008      	movs	r0, #8
   d53f8:	f004 ff90 	bl	da31c <pinMode>
  pinMode(userSwitch,INPUT);                        // Momentary contact button on board for direct user input
   d53fc:	2100      	movs	r1, #0
   d53fe:	2004      	movs	r0, #4
   d5400:	f004 ff8c 	bl	da31c <pinMode>
  pinMode(blueLED, OUTPUT);                         // declare the Blue LED Pin as an output
   d5404:	2101      	movs	r1, #1
   d5406:	2007      	movs	r0, #7
   d5408:	f004 ff88 	bl	da31c <pinMode>
  digitalWrite(blueLED,HIGH);
   d540c:	2101      	movs	r1, #1
   d540e:	2007      	movs	r0, #7
   d5410:	f004 ff95 	bl	da33e <digitalWrite>
    static String deviceID(void) { return spark_deviceID(); }
   d5414:	a806      	add	r0, sp, #24
        return spark_subscribe(eventName, handler, NULL, scope, NULL, NULL);
   d5416:	2400      	movs	r4, #0
   d5418:	f003 f914 	bl	d8644 <spark_deviceID>
	void setCharAt(unsigned int index, char c);
	char operator [] (unsigned int index) const;
	char& operator [] (unsigned int index);
	void getBytes(unsigned char *buf, unsigned int bufsize, unsigned int index=0) const;
	void toCharArray(char *buf, unsigned int bufsize, unsigned int index=0) const
		{getBytes((unsigned char *)buf, bufsize, index);}
   d541c:	2300      	movs	r3, #0
   d541e:	227d      	movs	r2, #125	; 0x7d
   d5420:	a90a      	add	r1, sp, #40	; 0x28
   d5422:	a806      	add	r0, sp, #24
   d5424:	f004 fa1f 	bl	d9866 <_ZNK6String8getBytesEPhjj>
   d5428:	4623      	mov	r3, r4
   d542a:	4622      	mov	r2, r4
   d542c:	49ac      	ldr	r1, [pc, #688]	; (d56e0 <setup+0x2f0>)
   d542e:	4dad      	ldr	r5, [pc, #692]	; (d56e4 <setup+0x2f4>)
   d5430:	4fad      	ldr	r7, [pc, #692]	; (d56e8 <setup+0x2f8>)
   d5432:	e9cd 4400 	strd	r4, r4, [sp]
   d5436:	a80a      	add	r0, sp, #40	; 0x28
   d5438:	f003 f914 	bl	d8664 <spark_subscribe>
        return _variable(varKey, var, STRING);
   d543c:	49ab      	ldr	r1, [pc, #684]	; (d56ec <setup+0x2fc>)
   d543e:	48ac      	ldr	r0, [pc, #688]	; (d56f0 <setup+0x300>)
   d5440:	f7fe feaf 	bl	d41a2 <_ZN10CloudClass9_variableI17CloudVariableTypeIPKcvEEEbS3_NT_11PointerTypeERKS5_.isra.0>
   d5444:	49ab      	ldr	r1, [pc, #684]	; (d56f4 <setup+0x304>)
   d5446:	48ac      	ldr	r0, [pc, #688]	; (d56f8 <setup+0x308>)
   d5448:	f7fe feab 	bl	d41a2 <_ZN10CloudClass9_variableI17CloudVariableTypeIPKcvEEEbS3_NT_11PointerTypeERKS5_.isra.0>
        return spark_variable(varKey, (const void*)userVar, T::TYPE_ID, NULL);
   d544c:	4623      	mov	r3, r4
   d544e:	2202      	movs	r2, #2
   d5450:	49aa      	ldr	r1, [pc, #680]	; (d56fc <setup+0x30c>)
   d5452:	48ab      	ldr	r0, [pc, #684]	; (d5700 <setup+0x310>)
   d5454:	f003 f8ce 	bl	d85f4 <spark_variable>
        return _variable(varKey, var, STRING);
   d5458:	49aa      	ldr	r1, [pc, #680]	; (d5704 <setup+0x314>)
   d545a:	48ab      	ldr	r0, [pc, #684]	; (d5708 <setup+0x318>)
   d545c:	f7fe fea1 	bl	d41a2 <_ZN10CloudClass9_variableI17CloudVariableTypeIPKcvEEEbS3_NT_11PointerTypeERKS5_.isra.0>
   d5460:	49aa      	ldr	r1, [pc, #680]	; (d570c <setup+0x31c>)
   d5462:	48ab      	ldr	r0, [pc, #684]	; (d5710 <setup+0x320>)
   d5464:	f7fe fe9d 	bl	d41a2 <_ZN10CloudClass9_variableI17CloudVariableTypeIPKcvEEEbS3_NT_11PointerTypeERKS5_.isra.0>
   d5468:	49aa      	ldr	r1, [pc, #680]	; (d5714 <setup+0x324>)
   d546a:	48ab      	ldr	r0, [pc, #684]	; (d5718 <setup+0x328>)
   d546c:	f7fe fe99 	bl	d41a2 <_ZN10CloudClass9_variableI17CloudVariableTypeIPKcvEEEbS3_NT_11PointerTypeERKS5_.isra.0>
   d5470:	49aa      	ldr	r1, [pc, #680]	; (d571c <setup+0x32c>)
   d5472:	48ab      	ldr	r0, [pc, #684]	; (d5720 <setup+0x330>)
   d5474:	f7fe fe95 	bl	d41a2 <_ZN10CloudClass9_variableI17CloudVariableTypeIPKcvEEEbS3_NT_11PointerTypeERKS5_.isra.0>
        return spark_variable(varKey, (const void*)userVar, T::TYPE_ID, NULL);
   d5478:	49aa      	ldr	r1, [pc, #680]	; (d5724 <setup+0x334>)
   d547a:	48ab      	ldr	r0, [pc, #684]	; (d5728 <setup+0x338>)
   d547c:	4623      	mov	r3, r4
   d547e:	2202      	movs	r2, #2
   d5480:	f003 f8b8 	bl	d85f4 <spark_variable>
   d5484:	4623      	mov	r3, r4
   d5486:	2202      	movs	r2, #2
   d5488:	49a8      	ldr	r1, [pc, #672]	; (d572c <setup+0x33c>)
   d548a:	48a9      	ldr	r0, [pc, #676]	; (d5730 <setup+0x340>)
   d548c:	f003 f8b2 	bl	d85f4 <spark_variable>
        return _variable(varKey, var, STRING);
   d5490:	49a8      	ldr	r1, [pc, #672]	; (d5734 <setup+0x344>)
   d5492:	48a9      	ldr	r0, [pc, #676]	; (d5738 <setup+0x348>)
   d5494:	f7fe fe85 	bl	d41a2 <_ZN10CloudClass9_variableI17CloudVariableTypeIPKcvEEEbS3_NT_11PointerTypeERKS5_.isra.0>
   d5498:	49a8      	ldr	r1, [pc, #672]	; (d573c <setup+0x34c>)
   d549a:	48a9      	ldr	r0, [pc, #676]	; (d5740 <setup+0x350>)
   d549c:	f7fe fe81 	bl	d41a2 <_ZN10CloudClass9_variableI17CloudVariableTypeIPKcvEEEbS3_NT_11PointerTypeERKS5_.isra.0>
        return register_function(call_raw_user_function, (void*)func, funcKey);
   d54a0:	4aa8      	ldr	r2, [pc, #672]	; (d5744 <setup+0x354>)
   d54a2:	49a9      	ldr	r1, [pc, #676]	; (d5748 <setup+0x358>)
   d54a4:	48a9      	ldr	r0, [pc, #676]	; (d574c <setup+0x35c>)
   d54a6:	f003 fb87 	bl	d8bb8 <_ZN10CloudClass17register_functionEPFiPvPKcS0_ES0_S2_>
   d54aa:	4aa9      	ldr	r2, [pc, #676]	; (d5750 <setup+0x360>)
   d54ac:	49a9      	ldr	r1, [pc, #676]	; (d5754 <setup+0x364>)
   d54ae:	48a7      	ldr	r0, [pc, #668]	; (d574c <setup+0x35c>)
   d54b0:	f003 fb82 	bl	d8bb8 <_ZN10CloudClass17register_functionEPFiPvPKcS0_ES0_S2_>
   d54b4:	4aa8      	ldr	r2, [pc, #672]	; (d5758 <setup+0x368>)
   d54b6:	49a9      	ldr	r1, [pc, #676]	; (d575c <setup+0x36c>)
   d54b8:	48a4      	ldr	r0, [pc, #656]	; (d574c <setup+0x35c>)
   d54ba:	f003 fb7d 	bl	d8bb8 <_ZN10CloudClass17register_functionEPFiPvPKcS0_ES0_S2_>
   d54be:	4aa8      	ldr	r2, [pc, #672]	; (d5760 <setup+0x370>)
   d54c0:	49a8      	ldr	r1, [pc, #672]	; (d5764 <setup+0x374>)
   d54c2:	48a2      	ldr	r0, [pc, #648]	; (d574c <setup+0x35c>)
   d54c4:	f003 fb78 	bl	d8bb8 <_ZN10CloudClass17register_functionEPFiPvPKcS0_ES0_S2_>
   d54c8:	4aa7      	ldr	r2, [pc, #668]	; (d5768 <setup+0x378>)
   d54ca:	49a8      	ldr	r1, [pc, #672]	; (d576c <setup+0x37c>)
   d54cc:	489f      	ldr	r0, [pc, #636]	; (d574c <setup+0x35c>)
   d54ce:	f003 fb73 	bl	d8bb8 <_ZN10CloudClass17register_functionEPFiPvPKcS0_ES0_S2_>
   d54d2:	49a7      	ldr	r1, [pc, #668]	; (d5770 <setup+0x380>)
   d54d4:	4a88      	ldr	r2, [pc, #544]	; (d56f8 <setup+0x308>)
   d54d6:	489d      	ldr	r0, [pc, #628]	; (d574c <setup+0x35c>)
   d54d8:	f003 fb6e 	bl	d8bb8 <_ZN10CloudClass17register_functionEPFiPvPKcS0_ES0_S2_>
}

inline CloudDisconnectOptions& CloudDisconnectOptions::graceful(bool enabled) {
    graceful_ = enabled;
   d54dc:	2601      	movs	r6, #1
    return (flags_ & OptionFlag::GRACEFUL);
}

inline CloudDisconnectOptions& CloudDisconnectOptions::timeout(system_tick_t timeout) {
    timeout_ = timeout;
    flags_ |= OptionFlag::TIMEOUT;
   d54de:	2303      	movs	r3, #3
   d54e0:	f241 3288 	movw	r2, #5000	; 0x1388
  Particle.setDisconnectOptions(CloudDisconnectOptions().graceful(true).timeout(5s));  // Don't disconnect abruptly
   d54e4:	a803      	add	r0, sp, #12
   d54e6:	e9cd 3203 	strd	r3, r2, [sp, #12]
    graceful_ = enabled;
   d54ea:	f88d 6014 	strb.w	r6, [sp, #20]
   d54ee:	f003 fb87 	bl	d8c00 <_ZN10CloudClass20setDisconnectOptionsERK22CloudDisconnectOptions>
  connectToParticle();
   d54f2:	f7ff f961 	bl	d47b8 <_Z17connectToParticlev>
  fram.begin();                                                       // Initialize the FRAM module
   d54f6:	489f      	ldr	r0, [pc, #636]	; (d5774 <setup+0x384>)
   d54f8:	f001 ff56 	bl	d73a8 <_ZN6MB85RC5beginEv>
        readData(framAddr, (uint8_t *)&t, sizeof(T));
   d54fc:	4621      	mov	r1, r4
   d54fe:	489d      	ldr	r0, [pc, #628]	; (d5774 <setup+0x384>)
   d5500:	4633      	mov	r3, r6
   d5502:	f10d 020b 	add.w	r2, sp, #11
   d5506:	f001 ff91 	bl	d742c <_ZN6MB85RC8readDataEjPhj>
  if (tempVersion != FRAMversionNumber) {                             // Check to see if the memory map in the sketch matches the data on the chip
   d550a:	f89d 100b 	ldrb.w	r1, [sp, #11]
   d550e:	42b1      	cmp	r1, r6
   d5510:	f000 80cb 	beq.w	d56aa <setup+0x2ba>
    fram.erase();                                                     // Reset the FRAM to correct the issue
   d5514:	4897      	ldr	r0, [pc, #604]	; (d5774 <setup+0x384>)
   d5516:	f001 ff51 	bl	d73bc <_ZN6MB85RC5eraseEv>
        writeData(framAddr, (const uint8_t *)&t, sizeof(T));
   d551a:	4a97      	ldr	r2, [pc, #604]	; (d5778 <setup+0x388>)
   d551c:	4895      	ldr	r0, [pc, #596]	; (d5774 <setup+0x384>)
   d551e:	2304      	movs	r3, #4
   d5520:	4621      	mov	r1, r4
   d5522:	f001 ffce 	bl	d74c2 <_ZN6MB85RC9writeDataEjPKhj>
        readData(framAddr, (uint8_t *)&t, sizeof(T));
   d5526:	4633      	mov	r3, r6
   d5528:	4892      	ldr	r0, [pc, #584]	; (d5774 <setup+0x384>)
   d552a:	f10d 020b 	add.w	r2, sp, #11
   d552e:	4621      	mov	r1, r4
   d5530:	f001 ff7c 	bl	d742c <_ZN6MB85RC8readDataEjPhj>
    if (tempVersion != FRAMversionNumber) state = ERROR_STATE;        // Device will not work without FRAM
   d5534:	f89d 300b 	ldrb.w	r3, [sp, #11]
   d5538:	42b3      	cmp	r3, r6
   d553a:	f000 80b3 	beq.w	d56a4 <setup+0x2b4>
   d553e:	703e      	strb	r6, [r7, #0]
    AB1805 &withFOUT(pin_t pin) { foutPin = pin; return *this; };
   d5540:	4c8e      	ldr	r4, [pc, #568]	; (d577c <setup+0x38c>)
  checkSystemValues();                                                // Make sure System values are all in valid range
   d5542:	f7ff fcf5 	bl	d4f30 <_Z17checkSystemValuesv>
  getBatteryContext();                                                // See if we have enough juice
   d5546:	f7ff fb3f 	bl	d4bc8 <_Z17getBatteryContextv>
        return system_subscribe_event(events, reinterpret_cast<system_event_handler_t*>(handler), NULL);
   d554a:	4a8d      	ldr	r2, [pc, #564]	; (d5780 <setup+0x390>)
   d554c:	2300      	movs	r3, #0
   d554e:	2100      	movs	r1, #0
   d5550:	f44f 2080 	mov.w	r0, #262144	; 0x40000
   d5554:	f002 ffec 	bl	d8530 <system_subscribe_event>
   d5558:	2308      	movs	r3, #8
  ab1805.withFOUT(D8).setup();
   d555a:	2101      	movs	r1, #1
   d555c:	4620      	mov	r0, r4
   d555e:	8163      	strh	r3, [r4, #10]
   d5560:	f000 fe2c 	bl	d61bc <_ZN6AB18055setupEb>
    bool isRTCSet() { return isBitClear(REG_CTRL_1, REG_CTRL_1_WRTC); };
   d5564:	2301      	movs	r3, #1
   d5566:	461a      	mov	r2, r3
   d5568:	2110      	movs	r1, #16
   d556a:	4620      	mov	r0, r4
   d556c:	f000 fb91 	bl	d5c92 <_ZN6AB180510isBitClearEhhb>
  ab1805.setWDT(AB1805::WATCHDOG_MAX_SECONDS);
   d5570:	217c      	movs	r1, #124	; 0x7c
  sysStatus.clockSet =  ab1805.isRTCSet();
   d5572:	70a8      	strb	r0, [r5, #2]
  ab1805.setWDT(AB1805::WATCHDOG_MAX_SECONDS);
   d5574:	4620      	mov	r0, r4
   d5576:	f000 fb09 	bl	d5b8c <_ZN6AB18056setWDTEi>
  snprintf(sampleIntervalStr, sizeof(sampleIntervalStr),"%i minutes", sysStatus.sampleIntervalMin);
   d557a:	79ab      	ldrb	r3, [r5, #6]
   d557c:	4a81      	ldr	r2, [pc, #516]	; (d5784 <setup+0x394>)
   d557e:	485d      	ldr	r0, [pc, #372]	; (d56f4 <setup+0x304>)
   d5580:	210c      	movs	r1, #12
   d5582:	f003 f917 	bl	d87b4 <snprintf>
  Time.setDSTOffset(sysStatus.dstOffset);                              // Set the value from FRAM if in limits
   d5586:	ed95 0a06 	vldr	s0, [r5, #24]
   d558a:	f004 fb37 	bl	d9bfc <_ZN9TimeClass12setDSTOffsetEf>
  if (!Time.isValid() && sysStatus.clockSet) {                         // We need to try to get the time so we can tell if we need DST
   d558e:	f004 fc61 	bl	d9e54 <_ZN9TimeClass7isValidEv>
   d5592:	2800      	cmp	r0, #0
   d5594:	f040 808f 	bne.w	d56b6 <setup+0x2c6>
   d5598:	78ab      	ldrb	r3, [r5, #2]
   d559a:	2b00      	cmp	r3, #0
   d559c:	f000 808b 	beq.w	d56b6 <setup+0x2c6>
    ab1805.getRtcAsTime(RTCTime);
   d55a0:	4e79      	ldr	r6, [pc, #484]	; (d5788 <setup+0x398>)
   d55a2:	4620      	mov	r0, r4
   d55a4:	4631      	mov	r1, r6
   d55a6:	f000 fdf9 	bl	d619c <_ZN6AB180512getRtcAsTimeERx>
    Time.setTime(RTCTime);
   d55aa:	e9d6 0100 	ldrd	r0, r1, [r6]
   d55ae:	f004 fb57 	bl	d9c60 <_ZN9TimeClass7setTimeEx>
  DSTRULES() ? Time.beginDST() : Time.endDST();    // Perform the DST calculation here
   d55b2:	f7ff fa33 	bl	d4a1c <_Z8isDSTusav>
   d55b6:	2800      	cmp	r0, #0
   d55b8:	f000 8082 	beq.w	d56c0 <setup+0x2d0>
   d55bc:	f004 fb3c 	bl	d9c38 <_ZN9TimeClass8beginDSTEv>
  Time.zone(sysStatus.timezone);                                       // Set the Time Zone for our device
   d55c0:	ed95 0a05 	vldr	s0, [r5, #20]
   d55c4:	f004 fafa 	bl	d9bbc <_ZN9TimeClass4zoneEf>
  snprintf(currentOffsetStr,sizeof(currentOffsetStr),"%2.1f UTC",(Time.local() - Time.now()) / 3600.0);   // Load the offset string
   d55c8:	f004 fca6 	bl	d9f18 <_ZN9TimeClass5localEv>
   d55cc:	4604      	mov	r4, r0
   d55ce:	f004 fc5e 	bl	d9e8e <_ZN9TimeClass3nowEv>
   d55d2:	1a20      	subs	r0, r4, r0
   d55d4:	f005 f880 	bl	da6d8 <__aeabi_i2d>
   d55d8:	a33f      	add	r3, pc, #252	; (adr r3, d56d8 <setup+0x2e8>)
   d55da:	e9d3 2300 	ldrd	r2, r3, [r3]
   d55de:	f005 fa0f 	bl	daa00 <__aeabi_ddiv>
   d55e2:	4a6a      	ldr	r2, [pc, #424]	; (d578c <setup+0x39c>)
   d55e4:	e9cd 0100 	strd	r0, r1, [sp]
   d55e8:	210a      	movs	r1, #10
   d55ea:	4852      	ldr	r0, [pc, #328]	; (d5734 <setup+0x344>)
   d55ec:	f003 f8e2 	bl	d87b4 <snprintf>
        int reason = RESET_REASON_NONE;
   d55f0:	2200      	movs	r2, #0
        HAL_Core_Get_Last_Reset_Info(&reason, nullptr, nullptr);
   d55f2:	4611      	mov	r1, r2
   d55f4:	a803      	add	r0, sp, #12
        int reason = RESET_REASON_NONE;
   d55f6:	9203      	str	r2, [sp, #12]
        HAL_Core_Get_Last_Reset_Info(&reason, nullptr, nullptr);
   d55f8:	f002 fd98 	bl	d812c <HAL_Core_Get_Last_Reset_Info>
        return reason;
   d55fc:	9b03      	ldr	r3, [sp, #12]
  if (System.resetReason() == RESET_REASON_PIN_RESET || System.resetReason() == RESET_REASON_USER) { // Check to see if we are starting from a pin reset or a reset in the sketch
   d55fe:	2b14      	cmp	r3, #20
   d5600:	f04f 0200 	mov.w	r2, #0
   d5604:	d15f      	bne.n	d56c6 <setup+0x2d6>
    sysStatus.resetCount++;
   d5606:	692b      	ldr	r3, [r5, #16]
   d5608:	3301      	adds	r3, #1
   d560a:	612b      	str	r3, [r5, #16]
    systemStatusWriteNeeded = true;                                    // If so, store incremented number - watchdog must have done This
   d560c:	4b60      	ldr	r3, [pc, #384]	; (d5790 <setup+0x3a0>)
   d560e:	2201      	movs	r2, #1
   d5610:	701a      	strb	r2, [r3, #0]
   d5612:	4a60      	ldr	r2, [pc, #384]	; (d5794 <setup+0x3a4>)
   d5614:	4857      	ldr	r0, [pc, #348]	; (d5774 <setup+0x384>)
   d5616:	2330      	movs	r3, #48	; 0x30
   d5618:	2150      	movs	r1, #80	; 0x50
   d561a:	f001 ff07 	bl	d742c <_ZN6MB85RC8readDataEjPhj>
  currentHourlyPeriod = Time.hour();                                   // The local time hourly period for reporting purposes
   d561e:	f004 fc47 	bl	d9eb0 <_ZN9TimeClass4hourEv>
   d5622:	4b5d      	ldr	r3, [pc, #372]	; (d5798 <setup+0x3a8>)
   d5624:	6018      	str	r0, [r3, #0]
  setPowerConfig();                                                    // Executes commands that set up the Power configuration between Solar and DC-Powered
   d5626:	f7ff f899 	bl	d475c <_Z14setPowerConfigv>
  if (!digitalRead(userSwitch)) loadSystemDefaults();                  // Make sure the device wakes up and connects
   d562a:	2004      	movs	r0, #4
   d562c:	f004 fea0 	bl	da370 <digitalRead>
   d5630:	b908      	cbnz	r0, d5636 <setup+0x246>
   d5632:	f7ff fea3 	bl	d537c <_Z18loadSystemDefaultsv>
  ds18b20.resetsearch();                 // initialise for sensor search
   d5636:	4859      	ldr	r0, [pc, #356]	; (d579c <setup+0x3ac>)
   d5638:	f001 fd2b 	bl	d7092 <_ZN7DS18B2011resetsearchEv>
    ds18b20.search(sensorAddresses[i]); // and if available store
   d563c:	4958      	ldr	r1, [pc, #352]	; (d57a0 <setup+0x3b0>)
   d563e:	4857      	ldr	r0, [pc, #348]	; (d579c <setup+0x3ac>)
   d5640:	f001 fd0b 	bl	d705a <_ZN7DS18B206searchEPh>
   d5644:	4957      	ldr	r1, [pc, #348]	; (d57a4 <setup+0x3b4>)
   d5646:	4855      	ldr	r0, [pc, #340]	; (d579c <setup+0x3ac>)
   d5648:	f001 fd07 	bl	d705a <_ZN7DS18B206searchEPh>
   d564c:	4956      	ldr	r1, [pc, #344]	; (d57a8 <setup+0x3b8>)
   d564e:	4853      	ldr	r0, [pc, #332]	; (d579c <setup+0x3ac>)
   d5650:	f001 fd03 	bl	d705a <_ZN7DS18B206searchEPh>
  t.withI2C();
   d5654:	f004 feb8 	bl	da3c8 <_Z19__fetch_global_Wirev>
   d5658:	2242      	movs	r2, #66	; 0x42
   d565a:	4601      	mov	r1, r0
   d565c:	4853      	ldr	r0, [pc, #332]	; (d57ac <setup+0x3bc>)
   d565e:	f000 ffad 	bl	d65bc <_ZN16AssetTrackerBase7withI2CER7TwoWireh>
	t.startThreadedMode();
   d5662:	4852      	ldr	r0, [pc, #328]	; (d57ac <setup+0x3bc>)
   d5664:	f000 ff60 	bl	d6528 <_ZN16AssetTrackerBase17startThreadedModeEv>
   d5668:	f002 fd80 	bl	d816c <HAL_Timer_Get_Milli_Seconds>
  startFix = millis();
   d566c:	4b50      	ldr	r3, [pc, #320]	; (d57b0 <setup+0x3c0>)
  publishQueue.publish("State","Startup Complete",PRIVATE);
   d566e:	4951      	ldr	r1, [pc, #324]	; (d57b4 <setup+0x3c4>)
  startFix = millis();
   d5670:	6018      	str	r0, [r3, #0]
  gettingFix = true;
   d5672:	4b51      	ldr	r3, [pc, #324]	; (d57b8 <setup+0x3c8>)
  publishQueue.publish("State","Startup Complete",PRIVATE);
   d5674:	4851      	ldr	r0, [pc, #324]	; (d57bc <setup+0x3cc>)
  gettingFix = true;
   d5676:	2201      	movs	r2, #1
   d5678:	701a      	strb	r2, [r3, #0]
   d567a:	2300      	movs	r3, #0
  publishQueue.publish("State","Startup Complete",PRIVATE);
   d567c:	f88d 3000 	strb.w	r3, [sp]
   d5680:	4b4f      	ldr	r3, [pc, #316]	; (d57c0 <setup+0x3d0>)
   d5682:	4a50      	ldr	r2, [pc, #320]	; (d57c4 <setup+0x3d4>)
   d5684:	781b      	ldrb	r3, [r3, #0]
   d5686:	f7fe fe37 	bl	d42f8 <_ZN21PublishQueueAsyncBase7publishEPKcS1_N8particle5FlagsI15PublishFlagTypehEES5_>
  if (state == INITIALIZATION_STATE) state = IDLE_STATE;              // IDLE unless otherwise from above code
   d568a:	783b      	ldrb	r3, [r7, #0]
   d568c:	b90b      	cbnz	r3, d5692 <setup+0x2a2>
   d568e:	2302      	movs	r3, #2
   d5690:	703b      	strb	r3, [r7, #0]
  digitalWrite(blueLED,LOW);
   d5692:	2100      	movs	r1, #0
   d5694:	2007      	movs	r0, #7
   d5696:	f004 fe52 	bl	da33e <digitalWrite>
  String deviceID = System.deviceID();              // Multiple devices share the same hook - keeps things straight
   d569a:	a806      	add	r0, sp, #24
   d569c:	f004 f858 	bl	d9750 <_ZN6StringD1Ev>
}
   d56a0:	b02b      	add	sp, #172	; 0xac
   d56a2:	bdf0      	pop	{r4, r5, r6, r7, pc}
    else loadSystemDefaults();                                        // Out of the box, we need the device to be awake and connected
   d56a4:	f7ff fe6a 	bl	d537c <_Z18loadSystemDefaultsv>
   d56a8:	e74a      	b.n	d5540 <setup+0x150>
   d56aa:	2320      	movs	r3, #32
   d56ac:	462a      	mov	r2, r5
   d56ae:	4831      	ldr	r0, [pc, #196]	; (d5774 <setup+0x384>)
   d56b0:	f001 febc 	bl	d742c <_ZN6MB85RC8readDataEjPhj>
        return t;
   d56b4:	e744      	b.n	d5540 <setup+0x150>
    connectToParticle();
   d56b6:	f7ff f87f 	bl	d47b8 <_Z17connectToParticlev>
    Particle.syncTime();                                               // Set the system clock here
   d56ba:	f7fe fd5b 	bl	d4174 <_ZN10CloudClass8syncTimeEv.isra.0>
   d56be:	e778      	b.n	d55b2 <setup+0x1c2>
  DSTRULES() ? Time.beginDST() : Time.endDST();    // Perform the DST calculation here
   d56c0:	f004 fac6 	bl	d9c50 <_ZN9TimeClass6endDSTEv>
   d56c4:	e77c      	b.n	d55c0 <setup+0x1d0>
        HAL_Core_Get_Last_Reset_Info(&reason, nullptr, nullptr);
   d56c6:	4611      	mov	r1, r2
   d56c8:	a803      	add	r0, sp, #12
        int reason = RESET_REASON_NONE;
   d56ca:	9203      	str	r2, [sp, #12]
        HAL_Core_Get_Last_Reset_Info(&reason, nullptr, nullptr);
   d56cc:	f002 fd2e 	bl	d812c <HAL_Core_Get_Last_Reset_Info>
        return reason;
   d56d0:	9b03      	ldr	r3, [sp, #12]
  if (System.resetReason() == RESET_REASON_PIN_RESET || System.resetReason() == RESET_REASON_USER) { // Check to see if we are starting from a pin reset or a reset in the sketch
   d56d2:	2b8c      	cmp	r3, #140	; 0x8c
   d56d4:	d19d      	bne.n	d5612 <setup+0x222>
   d56d6:	e796      	b.n	d5606 <setup+0x216>
   d56d8:	00000000 	.word	0x00000000
   d56dc:	40ac2000 	.word	0x40ac2000
   d56e0:	000d4315 	.word	0x000d4315
   d56e4:	2003e374 	.word	0x2003e374
   d56e8:	2003e370 	.word	0x2003e370
   d56ec:	2003e208 	.word	0x2003e208
   d56f0:	000db349 	.word	0x000db349
   d56f4:	2003e0fc 	.word	0x2003e0fc
   d56f8:	000db350 	.word	0x000db350
   d56fc:	2003e384 	.word	0x2003e384
   d5700:	000db35f 	.word	0x000db35f
   d5704:	2003e0d8 	.word	0x2003e0d8
   d5708:	000db36a 	.word	0x000db36a
   d570c:	2003e178 	.word	0x2003e178
   d5710:	000db374 	.word	0x000db374
   d5714:	2003e0f0 	.word	0x2003e0f0
   d5718:	000db37d 	.word	0x000db37d
   d571c:	2003e0e4 	.word	0x2003e0e4
   d5720:	000db389 	.word	0x000db389
   d5724:	2003e37c 	.word	0x2003e37c
   d5728:	000db391 	.word	0x000db391
   d572c:	2003e2c0 	.word	0x2003e2c0
   d5730:	000db39c 	.word	0x000db39c
   d5734:	2003e2e4 	.word	0x2003e2e4
   d5738:	000db3a3 	.word	0x000db3a3
   d573c:	2003e27c 	.word	0x2003e27c
   d5740:	000db3ae 	.word	0x000db3ae
   d5744:	000db3bd 	.word	0x000db3bd
   d5748:	000d40ed 	.word	0x000d40ed
   d574c:	000d8b8d 	.word	0x000d8b8d
   d5750:	000db3c7 	.word	0x000db3c7
   d5754:	000d4109 	.word	0x000d4109
   d5758:	000db3cf 	.word	0x000db3cf
   d575c:	000d43a9 	.word	0x000d43a9
   d5760:	000db3dc 	.word	0x000db3dc
   d5764:	000d4439 	.word	0x000d4439
   d5768:	000db3e9 	.word	0x000db3e9
   d576c:	000d4a61 	.word	0x000d4a61
   d5770:	000d4551 	.word	0x000d4551
   d5774:	2003e30c 	.word	0x2003e30c
   d5778:	000db490 	.word	0x000db490
   d577c:	2003e25c 	.word	0x2003e25c
   d5780:	000d40c9 	.word	0x000d40c9
   d5784:	000db136 	.word	0x000db136
   d5788:	2003e200 	.word	0x2003e200
   d578c:	000db0fc 	.word	0x000db0fc
   d5790:	2003e394 	.word	0x2003e394
   d5794:	2003e2a8 	.word	0x2003e2a8
   d5798:	2003e2dc 	.word	0x2003e2dc
   d579c:	2003e2f0 	.word	0x2003e2f0
   d57a0:	2003f400 	.word	0x2003f400
   d57a4:	2003f408 	.word	0x2003f408
   d57a8:	2003f410 	.word	0x2003f410
   d57ac:	2003e398 	.word	0x2003e398
   d57b0:	2003e36c 	.word	0x2003e36c
   d57b4:	000db2e4 	.word	0x000db2e4
   d57b8:	2003e31c 	.word	0x2003e31c
   d57bc:	2003e330 	.word	0x2003e330
   d57c0:	2003e258 	.word	0x2003e258
   d57c4:	000db3f7 	.word	0x000db3f7

000d57c8 <_GLOBAL__sub_I___appProductID>:
}
   d57c8:	b5f8      	push	{r3, r4, r5, r6, r7, lr}
        val_(val) {
   d57ca:	4b40      	ldr	r3, [pc, #256]	; (d58cc <_GLOBAL__sub_I___appProductID+0x104>)
              error_(SYSTEM_ERROR_NONE) {
   d57cc:	4e40      	ldr	r6, [pc, #256]	; (d58d0 <_GLOBAL__sub_I___appProductID+0x108>)
SYSTEM_MODE(SEMI_AUTOMATIC);                        // This will enable user code to start executing automatically.
   d57ce:	4d41      	ldr	r5, [pc, #260]	; (d58d4 <_GLOBAL__sub_I___appProductID+0x10c>)
   d57d0:	2400      	movs	r4, #0
   d57d2:	601c      	str	r4, [r3, #0]
   d57d4:	4b40      	ldr	r3, [pc, #256]	; (d58d8 <_GLOBAL__sub_I___appProductID+0x110>)
   d57d6:	2701      	movs	r7, #1
   d57d8:	701f      	strb	r7, [r3, #0]
#include "spark_protocol_functions.h"


struct __ApplicationProductID {
    __ApplicationProductID(product_id_t id) {
        spark_protocol_set_product_id(spark_protocol_instance(), id);
   d57da:	f004 fd49 	bl	da270 <spark_protocol_instance>
   d57de:	4623      	mov	r3, r4
   d57e0:	4622      	mov	r2, r4
   d57e2:	f642 51df 	movw	r1, #11743	; 0x2ddf
   d57e6:	f004 fd4b 	bl	da280 <spark_protocol_set_product_id>
    }
};

struct __ApplicationProductVersion {
    __ApplicationProductVersion(product_firmware_version_t version) {
        spark_protocol_set_product_firmware_version(spark_protocol_instance(), version);
   d57ea:	f004 fd41 	bl	da270 <spark_protocol_instance>
   d57ee:	4622      	mov	r2, r4
   d57f0:	4623      	mov	r3, r4
   d57f2:	210a      	movs	r1, #10
   d57f4:	f004 fd4c 	bl	da290 <spark_protocol_set_product_firmware_version>
    SleepResult() {}
   d57f8:	4b38      	ldr	r3, [pc, #224]	; (d58dc <_GLOBAL__sub_I___appProductID+0x114>)
   d57fa:	60b3      	str	r3, [r6, #8]
              error_(SYSTEM_ERROR_NONE) {
   d57fc:	6034      	str	r4, [r6, #0]
   d57fe:	80b4      	strh	r4, [r6, #4]
    SleepResult() {}
   d5800:	71b4      	strb	r4, [r6, #6]
        set_system_mode(mode);
   d5802:	2002      	movs	r0, #2
   d5804:	f002 fe7c 	bl	d8500 <set_system_mode>
   d5808:	462a      	mov	r2, r5
   d580a:	4935      	ldr	r1, [pc, #212]	; (d58e0 <_GLOBAL__sub_I___appProductID+0x118>)
   d580c:	4630      	mov	r0, r6
   d580e:	f004 fe03 	bl	da418 <__aeabi_atexit>
SYSTEM_THREAD(ENABLED);                             // Means my code will not be held up by Particle processes.
   d5812:	4621      	mov	r1, r4
   d5814:	4638      	mov	r0, r7
   d5816:	f002 fe93 	bl	d8540 <system_thread_set_state>
        return HAL_Feature_Set(feature, true);
   d581a:	4639      	mov	r1, r7
   d581c:	2004      	movs	r0, #4
   d581e:	f002 fc7d 	bl	d811c <HAL_Feature_Set>
        : config_(config) {
   d5822:	4830      	ldr	r0, [pc, #192]	; (d58e4 <_GLOBAL__sub_I___appProductID+0x11c>)
SystemSleepConfiguration config;                    // Initialize new Sleep 2.0 Api
   d5824:	4930      	ldr	r1, [pc, #192]	; (d58e8 <_GLOBAL__sub_I___appProductID+0x120>)
              valid_(true) {
   d5826:	f8a0 4009 	strh.w	r4, [r0, #9]
        : config_(config) {
   d582a:	4603      	mov	r3, r0
   d582c:	1d02      	adds	r2, r0, #4
   d582e:	f843 2b09 	str.w	r2, [r3], #9
              valid_(true) {
   d5832:	709c      	strb	r4, [r3, #2]
        config_.size = sizeof(hal_sleep_config_t);
   d5834:	4b2d      	ldr	r3, [pc, #180]	; (d58ec <_GLOBAL__sub_I___appProductID+0x124>)
   d5836:	6043      	str	r3, [r0, #4]
   d5838:	462a      	mov	r2, r5
        config_.wakeup_sources = nullptr;
   d583a:	e9c0 4403 	strd	r4, r4, [r0, #12]
              valid_(true) {
   d583e:	7507      	strb	r7, [r0, #20]
        config_.mode = HAL_SLEEP_MODE_NONE;
   d5840:	7204      	strb	r4, [r0, #8]
   d5842:	f004 fde9 	bl	da418 <__aeabi_atexit>
MB85RC64 fram(Wire, 0);                             // Rickkas' FRAM library
   d5846:	f004 fdbf 	bl	da3c8 <_Z19__fetch_global_Wirev>
	 *
	 * @param addr The address 0-7 based on the setting of A0, A1 and A2.
	 *
	 * You typically create one of these objects as a global variable.
	 */
	MB85RC64(TwoWire &wire, int addr = 0) : MB85RC(wire, 8192, addr) {};
   d584a:	4e29      	ldr	r6, [pc, #164]	; (d58f0 <_GLOBAL__sub_I___appProductID+0x128>)
   d584c:	4601      	mov	r1, r0
   d584e:	4623      	mov	r3, r4
   d5850:	f44f 5200 	mov.w	r2, #8192	; 0x2000
   d5854:	4630      	mov	r0, r6
   d5856:	f001 fd9d 	bl	d7394 <_ZN6MB85RCC1ER7TwoWireji>
   d585a:	4b26      	ldr	r3, [pc, #152]	; (d58f4 <_GLOBAL__sub_I___appProductID+0x12c>)
   d585c:	6033      	str	r3, [r6, #0]
   d585e:	4630      	mov	r0, r6
	PublishQueueAsync(uint8_t *retainedBuffer, uint16_t retainedBufferSize) : PublishQueueAsyncRetained(retainedBuffer, retainedBufferSize) {};
   d5860:	4e25      	ldr	r6, [pc, #148]	; (d58f8 <_GLOBAL__sub_I___appProductID+0x130>)
   d5862:	4926      	ldr	r1, [pc, #152]	; (d58fc <_GLOBAL__sub_I___appProductID+0x134>)
   d5864:	462a      	mov	r2, r5
   d5866:	f004 fdd7 	bl	da418 <__aeabi_atexit>
   d586a:	4925      	ldr	r1, [pc, #148]	; (d5900 <_GLOBAL__sub_I___appProductID+0x138>)
   d586c:	f44f 6200 	mov.w	r2, #2048	; 0x800
   d5870:	4630      	mov	r0, r6
   d5872:	f002 facf 	bl	d7e14 <_ZN25PublishQueueAsyncRetainedC1EPht>
   d5876:	4b23      	ldr	r3, [pc, #140]	; (d5904 <_GLOBAL__sub_I___appProductID+0x13c>)
   d5878:	6033      	str	r3, [r6, #0]
PublishQueueAsync publishQueue(publishQueueRetainedBuffer, sizeof(publishQueueRetainedBuffer));
   d587a:	4630      	mov	r0, r6
DS18B20 ds18b20(tempSensors);
   d587c:	4e22      	ldr	r6, [pc, #136]	; (d5908 <_GLOBAL__sub_I___appProductID+0x140>)
PublishQueueAsync publishQueue(publishQueueRetainedBuffer, sizeof(publishQueueRetainedBuffer));
   d587e:	4923      	ldr	r1, [pc, #140]	; (d590c <_GLOBAL__sub_I___appProductID+0x144>)
   d5880:	462a      	mov	r2, r5
   d5882:	f004 fdc9 	bl	da418 <__aeabi_atexit>
DS18B20 ds18b20(tempSensors);
   d5886:	4622      	mov	r2, r4
   d5888:	2110      	movs	r1, #16
AssetTracker t;
   d588a:	4c21      	ldr	r4, [pc, #132]	; (d5910 <_GLOBAL__sub_I___appProductID+0x148>)
DS18B20 ds18b20(tempSensors);
   d588c:	4630      	mov	r0, r6
   d588e:	f001 fbcd 	bl	d702c <_ZN7DS18B20C1Etb>
   d5892:	462a      	mov	r2, r5
   d5894:	491f      	ldr	r1, [pc, #124]	; (d5914 <_GLOBAL__sub_I___appProductID+0x14c>)
   d5896:	4630      	mov	r0, r6
   d5898:	f004 fdbe 	bl	da418 <__aeabi_atexit>
AssetTracker t;
   d589c:	4620      	mov	r0, r4
   d589e:	f000 ff13 	bl	d66c8 <_ZN12AssetTrackerC1Ev>
   d58a2:	462a      	mov	r2, r5
   d58a4:	491c      	ldr	r1, [pc, #112]	; (d5918 <_GLOBAL__sub_I___appProductID+0x150>)
   d58a6:	4620      	mov	r0, r4
   d58a8:	f004 fdb6 	bl	da418 <__aeabi_atexit>
AB1805 ab1805(Wire);                                // Rickkas' RTC / Watchdog library
   d58ac:	f004 fd8c 	bl	da3c8 <_Z19__fetch_global_Wirev>
   d58b0:	4c1a      	ldr	r4, [pc, #104]	; (d591c <_GLOBAL__sub_I___appProductID+0x154>)
   d58b2:	4601      	mov	r1, r0
   d58b4:	2269      	movs	r2, #105	; 0x69
   d58b6:	4620      	mov	r0, r4
   d58b8:	f000 f86a 	bl	d5990 <_ZN6AB1805C1ER7TwoWireh>
   d58bc:	462a      	mov	r2, r5
   d58be:	4620      	mov	r0, r4
   d58c0:	4917      	ldr	r1, [pc, #92]	; (d5920 <_GLOBAL__sub_I___appProductID+0x158>)
}
   d58c2:	e8bd 40f8 	ldmia.w	sp!, {r3, r4, r5, r6, r7, lr}
AB1805 ab1805(Wire);                                // Rickkas' RTC / Watchdog library
   d58c6:	f004 bda7 	b.w	da418 <__aeabi_atexit>
   d58ca:	bf00      	nop
   d58cc:	2003e254 	.word	0x2003e254
   d58d0:	2003e248 	.word	0x2003e248
   d58d4:	2003e1f8 	.word	0x2003e1f8
   d58d8:	2003e258 	.word	0x2003e258
   d58dc:	ffff0000 	.word	0xffff0000
   d58e0:	000d41c7 	.word	0x000d41c7
   d58e4:	2003e28c 	.word	0x2003e28c
   d58e8:	000d40d5 	.word	0x000d40d5
   d58ec:	00030010 	.word	0x00030010
   d58f0:	2003e30c 	.word	0x2003e30c
   d58f4:	000db410 	.word	0x000db410
   d58f8:	2003e330 	.word	0x2003e330
   d58fc:	000d414d 	.word	0x000d414d
   d5900:	2003f418 	.word	0x2003f418
   d5904:	000db42c 	.word	0x000db42c
   d5908:	2003e2f0 	.word	0x2003e2f0
   d590c:	000d4125 	.word	0x000d4125
   d5910:	2003e398 	.word	0x2003e398
   d5914:	000d7081 	.word	0x000d7081
   d5918:	000d6815 	.word	0x000d6815
   d591c:	2003e25c 	.word	0x2003e25c
   d5920:	000d5925 	.word	0x000d5925

000d5924 <_ZN6AB1805D1Ev>:
    instance = this;
}

AB1805::~AB1805() {

}
   d5924:	4770      	bx	lr

000d5926 <_ZN6AB1805D0Ev>:
AB1805::~AB1805() {
   d5926:	b510      	push	{r4, lr}
}
   d5928:	2120      	movs	r1, #32
AB1805::~AB1805() {
   d592a:	4604      	mov	r4, r0
}
   d592c:	f004 fd79 	bl	da422 <_ZdlPvj>
   d5930:	4620      	mov	r0, r4
   d5932:	bd10      	pop	{r4, pc}

000d5934 <_ZNK5spark6Logger5traceEPKcz>:
inline void spark::Logger::trace(const char *fmt, ...) const {
   d5934:	b40e      	push	{r1, r2, r3}
   d5936:	b510      	push	{r4, lr}
   d5938:	b08d      	sub	sp, #52	; 0x34
   d593a:	aa0f      	add	r2, sp, #60	; 0x3c
    log(LOG_LEVEL_TRACE, fmt, args);
   d593c:	6801      	ldr	r1, [r0, #0]
inline void spark::Logger::trace(const char *fmt, ...) const {
   d593e:	f852 4b04 	ldr.w	r4, [r2], #4
    va_start(args, fmt);
   d5942:	9203      	str	r2, [sp, #12]
    attr.flags = 0;
   d5944:	2300      	movs	r3, #0
   d5946:	2020      	movs	r0, #32
   d5948:	e9cd 0304 	strd	r0, r3, [sp, #16]
    log_message_v(level, name_, &attr, nullptr, fmt, args);
   d594c:	e9cd 4200 	strd	r4, r2, [sp]
   d5950:	2001      	movs	r0, #1
   d5952:	aa04      	add	r2, sp, #16
   d5954:	f002 fdba 	bl	d84cc <log_message_v>
}
   d5958:	b00d      	add	sp, #52	; 0x34
   d595a:	e8bd 4010 	ldmia.w	sp!, {r4, lr}
   d595e:	b003      	add	sp, #12
   d5960:	4770      	bx	lr

000d5962 <_ZNK5spark6Logger5errorEPKcz>:
inline void spark::Logger::error(const char *fmt, ...) const {
   d5962:	b40e      	push	{r1, r2, r3}
   d5964:	b510      	push	{r4, lr}
   d5966:	b08d      	sub	sp, #52	; 0x34
   d5968:	aa0f      	add	r2, sp, #60	; 0x3c
    log(LOG_LEVEL_ERROR, fmt, args);
   d596a:	6801      	ldr	r1, [r0, #0]
inline void spark::Logger::error(const char *fmt, ...) const {
   d596c:	f852 4b04 	ldr.w	r4, [r2], #4
    va_start(args, fmt);
   d5970:	9203      	str	r2, [sp, #12]
    attr.flags = 0;
   d5972:	2300      	movs	r3, #0
   d5974:	2020      	movs	r0, #32
   d5976:	e9cd 0304 	strd	r0, r3, [sp, #16]
    log_message_v(level, name_, &attr, nullptr, fmt, args);
   d597a:	e9cd 4200 	strd	r4, r2, [sp]
   d597e:	2032      	movs	r0, #50	; 0x32
   d5980:	aa04      	add	r2, sp, #16
   d5982:	f002 fda3 	bl	d84cc <log_message_v>
}
   d5986:	b00d      	add	sp, #52	; 0x34
   d5988:	e8bd 4010 	ldmia.w	sp!, {r4, lr}
   d598c:	b003      	add	sp, #12
   d598e:	4770      	bx	lr

000d5990 <_ZN6AB1805C1ER7TwoWireh>:
AB1805::AB1805(TwoWire &wire, uint8_t i2cAddr) : wire(wire), i2cAddr(i2cAddr) {
   d5990:	b510      	push	{r4, lr}
   d5992:	7202      	strb	r2, [r0, #8]
   d5994:	22ff      	movs	r2, #255	; 0xff
   d5996:	8142      	strh	r2, [r0, #10]
   d5998:	2200      	movs	r2, #0
   d599a:	e9c0 2203 	strd	r2, r2, [r0, #12]
   d599e:	6142      	str	r2, [r0, #20]
   d59a0:	7602      	strb	r2, [r0, #24]
   d59a2:	61c2      	str	r2, [r0, #28]
    instance = this;
   d59a4:	4a02      	ldr	r2, [pc, #8]	; (d59b0 <_ZN6AB1805C1ER7TwoWireh+0x20>)
AB1805::AB1805(TwoWire &wire, uint8_t i2cAddr) : wire(wire), i2cAddr(i2cAddr) {
   d59a6:	4c03      	ldr	r4, [pc, #12]	; (d59b4 <_ZN6AB1805C1ER7TwoWireh+0x24>)
    instance = this;
   d59a8:	6010      	str	r0, [r2, #0]
AB1805::AB1805(TwoWire &wire, uint8_t i2cAddr) : wire(wire), i2cAddr(i2cAddr) {
   d59aa:	e9c0 4100 	strd	r4, r1, [r0]
}
   d59ae:	bd10      	pop	{r4, pc}
   d59b0:	2003e5bc 	.word	0x2003e5bc
   d59b4:	000db6e4 	.word	0x000db6e4

000d59b8 <_ZN6AB180513readRegistersEhPhjb>:

bool AB1805::readRegister(uint8_t regAddr, uint8_t &value, bool lock) {
    return readRegisters(regAddr, &value, 1, lock);
}

bool AB1805::readRegisters(uint8_t regAddr, uint8_t *array, size_t num, bool lock) {
   d59b8:	e92d 43f8 	stmdb	sp!, {r3, r4, r5, r6, r7, r8, r9, lr}
   d59bc:	f89d 8020 	ldrb.w	r8, [sp, #32]
   d59c0:	4604      	mov	r4, r0
   d59c2:	4689      	mov	r9, r1
   d59c4:	4616      	mov	r6, r2
   d59c6:	461f      	mov	r7, r3
    bool bResult = false;

    if (lock) {
   d59c8:	f1b8 0f00 	cmp.w	r8, #0
   d59cc:	d002      	beq.n	d59d4 <_ZN6AB180513readRegistersEhPhjb+0x1c>
        wire.lock();
   d59ce:	6840      	ldr	r0, [r0, #4]
   d59d0:	f003 fc38 	bl	d9244 <_ZN7TwoWire4lockEv>
    }

    wire.beginTransmission(i2cAddr);
   d59d4:	7a21      	ldrb	r1, [r4, #8]
   d59d6:	6860      	ldr	r0, [r4, #4]
   d59d8:	f003 fc29 	bl	d922e <_ZN7TwoWire17beginTransmissionEh>
    wire.write(regAddr);
   d59dc:	6860      	ldr	r0, [r4, #4]
   d59de:	6803      	ldr	r3, [r0, #0]
   d59e0:	4649      	mov	r1, r9
   d59e2:	689b      	ldr	r3, [r3, #8]
   d59e4:	4798      	blx	r3
    int stat = wire.endTransmission(false);
   d59e6:	6860      	ldr	r0, [r4, #4]
   d59e8:	2100      	movs	r1, #0
   d59ea:	f003 fc27 	bl	d923c <_ZN7TwoWire15endTransmissionEh>
    if (stat == 0) {
   d59ee:	4605      	mov	r5, r0
   d59f0:	bb00      	cbnz	r0, d5a34 <_ZN6AB180513readRegistersEhPhjb+0x7c>
        size_t count = wire.requestFrom(i2cAddr, num, true);
   d59f2:	2301      	movs	r3, #1
   d59f4:	7a21      	ldrb	r1, [r4, #8]
   d59f6:	6860      	ldr	r0, [r4, #4]
   d59f8:	463a      	mov	r2, r7
   d59fa:	f003 fc06 	bl	d920a <_ZN7TwoWire11requestFromEhjh>
        if (count == num) {
   d59fe:	4287      	cmp	r7, r0
        size_t count = wire.requestFrom(i2cAddr, num, true);
   d5a00:	4603      	mov	r3, r0
        if (count == num) {
   d5a02:	d109      	bne.n	d5a18 <_ZN6AB180513readRegistersEhPhjb+0x60>
   d5a04:	4437      	add	r7, r6
            for(size_t ii = 0; ii < num; ii++) {
   d5a06:	42be      	cmp	r6, r7
   d5a08:	d01c      	beq.n	d5a44 <_ZN6AB180513readRegistersEhPhjb+0x8c>
                array[ii] = wire.read();
   d5a0a:	6860      	ldr	r0, [r4, #4]
   d5a0c:	6803      	ldr	r3, [r0, #0]
   d5a0e:	695b      	ldr	r3, [r3, #20]
   d5a10:	4798      	blx	r3
   d5a12:	f806 0b01 	strb.w	r0, [r6], #1
            for(size_t ii = 0; ii < num; ii++) {
   d5a16:	e7f6      	b.n	d5a06 <_ZN6AB180513readRegistersEhPhjb+0x4e>
            // _log.print("\n");

            bResult = true;
        }
        else {
            _log.error("failed to read regAddr=%02x count=%u", regAddr, count);
   d5a18:	490b      	ldr	r1, [pc, #44]	; (d5a48 <_ZN6AB180513readRegistersEhPhjb+0x90>)
   d5a1a:	480c      	ldr	r0, [pc, #48]	; (d5a4c <_ZN6AB180513readRegistersEhPhjb+0x94>)
   d5a1c:	464a      	mov	r2, r9
   d5a1e:	f7ff ffa0 	bl	d5962 <_ZNK5spark6Logger5errorEPKcz>
    }
    else {
        _log.error("failed to read regAddr=%02x stat=%d", regAddr, stat);
    }

    if (lock) {
   d5a22:	f1b8 0f00 	cmp.w	r8, #0
   d5a26:	d002      	beq.n	d5a2e <_ZN6AB180513readRegistersEhPhjb+0x76>
        wire.unlock();
   d5a28:	6860      	ldr	r0, [r4, #4]
   d5a2a:	f003 fc14 	bl	d9256 <_ZN7TwoWire6unlockEv>
    }
    return bResult;    
}
   d5a2e:	4628      	mov	r0, r5
   d5a30:	e8bd 83f8 	ldmia.w	sp!, {r3, r4, r5, r6, r7, r8, r9, pc}
        _log.error("failed to read regAddr=%02x stat=%d", regAddr, stat);
   d5a34:	4603      	mov	r3, r0
   d5a36:	4906      	ldr	r1, [pc, #24]	; (d5a50 <_ZN6AB180513readRegistersEhPhjb+0x98>)
   d5a38:	4804      	ldr	r0, [pc, #16]	; (d5a4c <_ZN6AB180513readRegistersEhPhjb+0x94>)
   d5a3a:	464a      	mov	r2, r9
   d5a3c:	f7ff ff91 	bl	d5962 <_ZNK5spark6Logger5errorEPKcz>
    bool bResult = false;
   d5a40:	2500      	movs	r5, #0
   d5a42:	e7ee      	b.n	d5a22 <_ZN6AB180513readRegistersEhPhjb+0x6a>
            bResult = true;
   d5a44:	2501      	movs	r5, #1
   d5a46:	e7ec      	b.n	d5a22 <_ZN6AB180513readRegistersEhPhjb+0x6a>
   d5a48:	000db494 	.word	0x000db494
   d5a4c:	2003e5b8 	.word	0x2003e5b8
   d5a50:	000db4b9 	.word	0x000db4b9

000d5a54 <_ZN6AB180512readRegisterEhRhb>:
bool AB1805::readRegister(uint8_t regAddr, uint8_t &value, bool lock) {
   d5a54:	b507      	push	{r0, r1, r2, lr}
    return readRegisters(regAddr, &value, 1, lock);
   d5a56:	9300      	str	r3, [sp, #0]
   d5a58:	2301      	movs	r3, #1
   d5a5a:	f7ff ffad 	bl	d59b8 <_ZN6AB180513readRegistersEhPhjb>
}
   d5a5e:	b003      	add	sp, #12
   d5a60:	f85d fb04 	ldr.w	pc, [sp], #4

000d5a64 <_ZN6AB180510detectChipEv>:
bool AB1805::detectChip() {
   d5a64:	b573      	push	{r0, r1, r4, r5, r6, lr}
    if (foutPin != PIN_INVALID) {
   d5a66:	8943      	ldrh	r3, [r0, #10]
   d5a68:	2bff      	cmp	r3, #255	; 0xff
bool AB1805::detectChip() {
   d5a6a:	4604      	mov	r4, r0
    if (foutPin != PIN_INVALID) {
   d5a6c:	d010      	beq.n	d5a90 <_ZN6AB180510detectChipEv+0x2c>
                _log.info("FOUT did not go HIGH");
   d5a6e:	4e19      	ldr	r6, [pc, #100]	; (d5ad4 <_ZN6AB180510detectChipEv+0x70>)
   d5a70:	4d19      	ldr	r5, [pc, #100]	; (d5ad8 <_ZN6AB180510detectChipEv+0x74>)
   d5a72:	f002 fb7b 	bl	d816c <HAL_Timer_Get_Milli_Seconds>
        while(millis() - start < 1000) {
   d5a76:	f5b0 7f7a 	cmp.w	r0, #1000	; 0x3e8
   d5a7a:	d209      	bcs.n	d5a90 <_ZN6AB180510detectChipEv+0x2c>
            if (digitalRead(foutPin) == HIGH) {
   d5a7c:	8960      	ldrh	r0, [r4, #10]
   d5a7e:	f004 fc77 	bl	da370 <digitalRead>
   d5a82:	2801      	cmp	r0, #1
   d5a84:	d004      	beq.n	d5a90 <_ZN6AB180510detectChipEv+0x2c>
                _log.info("FOUT did not go HIGH");
   d5a86:	4631      	mov	r1, r6
   d5a88:	4628      	mov	r0, r5
   d5a8a:	f7fe fc1e 	bl	d42ca <_ZNK5spark6Logger4infoEPKcz>
   d5a8e:	e7f0      	b.n	d5a72 <_ZN6AB180510detectChipEv+0xe>
    bResult = readRegister(REG_ID0, value);
   d5a90:	2301      	movs	r3, #1
   d5a92:	f10d 0207 	add.w	r2, sp, #7
   d5a96:	2128      	movs	r1, #40	; 0x28
   d5a98:	4620      	mov	r0, r4
   d5a9a:	f7ff ffdb 	bl	d5a54 <_ZN6AB180512readRegisterEhRhb>
    if (bResult && value == REG_ID0_AB18XX) {
   d5a9e:	b930      	cbnz	r0, d5aae <_ZN6AB180510detectChipEv+0x4a>
        _log.info("not detected");
   d5aa0:	480d      	ldr	r0, [pc, #52]	; (d5ad8 <_ZN6AB180510detectChipEv+0x74>)
   d5aa2:	490e      	ldr	r1, [pc, #56]	; (d5adc <_ZN6AB180510detectChipEv+0x78>)
   d5aa4:	f7fe fc11 	bl	d42ca <_ZNK5spark6Logger4infoEPKcz>
   d5aa8:	2000      	movs	r0, #0
}
   d5aaa:	b002      	add	sp, #8
   d5aac:	bd70      	pop	{r4, r5, r6, pc}
    if (bResult && value == REG_ID0_AB18XX) {
   d5aae:	f89d 3007 	ldrb.w	r3, [sp, #7]
   d5ab2:	2b18      	cmp	r3, #24
   d5ab4:	d1f4      	bne.n	d5aa0 <_ZN6AB180510detectChipEv+0x3c>
        bResult = readRegister(REG_ID1, value);
   d5ab6:	2301      	movs	r3, #1
   d5ab8:	f10d 0207 	add.w	r2, sp, #7
   d5abc:	2129      	movs	r1, #41	; 0x29
   d5abe:	4620      	mov	r0, r4
   d5ac0:	f7ff ffc8 	bl	d5a54 <_ZN6AB180512readRegisterEhRhb>
        if (bResult && value == REG_ID1_ABXX05) {
   d5ac4:	2800      	cmp	r0, #0
   d5ac6:	d0eb      	beq.n	d5aa0 <_ZN6AB180510detectChipEv+0x3c>
   d5ac8:	f89d 3007 	ldrb.w	r3, [sp, #7]
   d5acc:	2b05      	cmp	r3, #5
   d5ace:	d1e7      	bne.n	d5aa0 <_ZN6AB180510detectChipEv+0x3c>
   d5ad0:	e7eb      	b.n	d5aaa <_ZN6AB180510detectChipEv+0x46>
   d5ad2:	bf00      	nop
   d5ad4:	000db4dd 	.word	0x000db4dd
   d5ad8:	2003e5b8 	.word	0x2003e5b8
   d5adc:	000db4f2 	.word	0x000db4f2

000d5ae0 <_ZN6AB180512readRegisterEhb>:


uint8_t AB1805::readRegister(uint8_t regAddr, bool lock) {
   d5ae0:	b507      	push	{r0, r1, r2, lr}
   d5ae2:	4613      	mov	r3, r2
    uint8_t value = 0;
   d5ae4:	2200      	movs	r2, #0
   d5ae6:	f88d 2007 	strb.w	r2, [sp, #7]

    (void) readRegister(regAddr, value, lock);
   d5aea:	f10d 0207 	add.w	r2, sp, #7
   d5aee:	f7ff ffb1 	bl	d5a54 <_ZN6AB180512readRegisterEhRhb>
    
    return value;
}
   d5af2:	f89d 0007 	ldrb.w	r0, [sp, #7]
   d5af6:	b003      	add	sp, #12
   d5af8:	f85d fb04 	ldr.w	pc, [sp], #4

000d5afc <_ZN6AB180514writeRegistersEhPKhjb>:
bool AB1805::writeRegister(uint8_t regAddr, uint8_t value, bool lock) {
    return writeRegisters(regAddr, &value, 1, lock);
}


bool AB1805::writeRegisters(uint8_t regAddr, const uint8_t *array, size_t num, bool lock) {
   d5afc:	e92d 41f0 	stmdb	sp!, {r4, r5, r6, r7, r8, lr}
   d5b00:	f89d 8018 	ldrb.w	r8, [sp, #24]
   d5b04:	4604      	mov	r4, r0
   d5b06:	460f      	mov	r7, r1
   d5b08:	4615      	mov	r5, r2
   d5b0a:	461e      	mov	r6, r3
    bool bResult = false;

    if (lock) {
   d5b0c:	f1b8 0f00 	cmp.w	r8, #0
   d5b10:	d002      	beq.n	d5b18 <_ZN6AB180514writeRegistersEhPKhjb+0x1c>
        wire.lock();
   d5b12:	6840      	ldr	r0, [r0, #4]
   d5b14:	f003 fb96 	bl	d9244 <_ZN7TwoWire4lockEv>
    }

    wire.beginTransmission(i2cAddr);
   d5b18:	7a21      	ldrb	r1, [r4, #8]
   d5b1a:	6860      	ldr	r0, [r4, #4]
   d5b1c:	f003 fb87 	bl	d922e <_ZN7TwoWire17beginTransmissionEh>
    wire.write(regAddr);
   d5b20:	6860      	ldr	r0, [r4, #4]
   d5b22:	6803      	ldr	r3, [r0, #0]
   d5b24:	4639      	mov	r1, r7
   d5b26:	689b      	ldr	r3, [r3, #8]
   d5b28:	4798      	blx	r3
    for(size_t ii = 0; ii < num; ii++) {
   d5b2a:	442e      	add	r6, r5
   d5b2c:	42b5      	cmp	r5, r6
   d5b2e:	6860      	ldr	r0, [r4, #4]
   d5b30:	d005      	beq.n	d5b3e <_ZN6AB180514writeRegistersEhPKhjb+0x42>
        wire.write(array[ii]);
   d5b32:	6803      	ldr	r3, [r0, #0]
   d5b34:	f815 1b01 	ldrb.w	r1, [r5], #1
   d5b38:	689b      	ldr	r3, [r3, #8]
   d5b3a:	4798      	blx	r3
    for(size_t ii = 0; ii < num; ii++) {
   d5b3c:	e7f6      	b.n	d5b2c <_ZN6AB180514writeRegistersEhPKhjb+0x30>
    }
    int stat = wire.endTransmission(true);
   d5b3e:	2101      	movs	r1, #1
   d5b40:	f003 fb7c 	bl	d923c <_ZN7TwoWire15endTransmissionEh>
    if (stat == 0) {
   d5b44:	4603      	mov	r3, r0
   d5b46:	b170      	cbz	r0, d5b66 <_ZN6AB180514writeRegistersEhPKhjb+0x6a>
        // _log.dump(array, num);
        // _log.print("\n");
        bResult = true;
    }
    else {
        _log.error("failed to write regAddr=%02x stat=%d", regAddr, stat);
   d5b48:	4908      	ldr	r1, [pc, #32]	; (d5b6c <_ZN6AB180514writeRegistersEhPKhjb+0x70>)
   d5b4a:	4809      	ldr	r0, [pc, #36]	; (d5b70 <_ZN6AB180514writeRegistersEhPKhjb+0x74>)
   d5b4c:	463a      	mov	r2, r7
   d5b4e:	f7ff ff08 	bl	d5962 <_ZNK5spark6Logger5errorEPKcz>
    bool bResult = false;
   d5b52:	2500      	movs	r5, #0
    }

    if (lock) {
   d5b54:	f1b8 0f00 	cmp.w	r8, #0
   d5b58:	d002      	beq.n	d5b60 <_ZN6AB180514writeRegistersEhPKhjb+0x64>
        wire.unlock();
   d5b5a:	6860      	ldr	r0, [r4, #4]
   d5b5c:	f003 fb7b 	bl	d9256 <_ZN7TwoWire6unlockEv>
    }
    return bResult;
}
   d5b60:	4628      	mov	r0, r5
   d5b62:	e8bd 81f0 	ldmia.w	sp!, {r4, r5, r6, r7, r8, pc}
        bResult = true;
   d5b66:	2501      	movs	r5, #1
   d5b68:	e7f4      	b.n	d5b54 <_ZN6AB180514writeRegistersEhPKhjb+0x58>
   d5b6a:	bf00      	nop
   d5b6c:	000db4ff 	.word	0x000db4ff
   d5b70:	2003e5b8 	.word	0x2003e5b8

000d5b74 <_ZN6AB180513writeRegisterEhhb>:
bool AB1805::writeRegister(uint8_t regAddr, uint8_t value, bool lock) {
   d5b74:	b51f      	push	{r0, r1, r2, r3, r4, lr}
   d5b76:	f88d 200f 	strb.w	r2, [sp, #15]
    return writeRegisters(regAddr, &value, 1, lock);
   d5b7a:	9300      	str	r3, [sp, #0]
   d5b7c:	f10d 020f 	add.w	r2, sp, #15
   d5b80:	2301      	movs	r3, #1
   d5b82:	f7ff ffbb 	bl	d5afc <_ZN6AB180514writeRegistersEhPKhjb>
}
   d5b86:	b005      	add	sp, #20
   d5b88:	f85d fb04 	ldr.w	pc, [sp], #4

000d5b8c <_ZN6AB18056setWDTEi>:
bool AB1805::setWDT(int seconds) {
   d5b8c:	b5f8      	push	{r3, r4, r5, r6, r7, lr}
    _log.info("setWDT %d", seconds);
   d5b8e:	460a      	mov	r2, r1
bool AB1805::setWDT(int seconds) {
   d5b90:	460c      	mov	r4, r1
   d5b92:	4605      	mov	r5, r0
    _log.info("setWDT %d", seconds);
   d5b94:	491a      	ldr	r1, [pc, #104]	; (d5c00 <_ZN6AB18056setWDTEi+0x74>)
   d5b96:	481b      	ldr	r0, [pc, #108]	; (d5c04 <_ZN6AB18056setWDTEi+0x78>)
   d5b98:	f7fe fb97 	bl	d42ca <_ZNK5spark6Logger4infoEPKcz>
    if (seconds < 0) {
   d5b9c:	2c00      	cmp	r4, #0
        seconds = watchdogSecs;
   d5b9e:	bfb8      	it	lt
   d5ba0:	68ec      	ldrlt	r4, [r5, #12]
    if (seconds == 0) {
   d5ba2:	b97c      	cbnz	r4, d5bc4 <_ZN6AB18056setWDTEi+0x38>
        bResult = writeRegister(REG_WDT, 0x00);
   d5ba4:	2301      	movs	r3, #1
   d5ba6:	4622      	mov	r2, r4
   d5ba8:	211b      	movs	r1, #27
   d5baa:	4628      	mov	r0, r5
   d5bac:	f7ff ffe2 	bl	d5b74 <_ZN6AB180513writeRegisterEhhb>
        _log.trace("watchdog cleared bResult=%d", bResult);
   d5bb0:	4915      	ldr	r1, [pc, #84]	; (d5c08 <_ZN6AB18056setWDTEi+0x7c>)
   d5bb2:	4602      	mov	r2, r0
        bResult = writeRegister(REG_WDT, 0x00);
   d5bb4:	4606      	mov	r6, r0
        _log.trace("watchdog cleared bResult=%d", bResult);
   d5bb6:	4813      	ldr	r0, [pc, #76]	; (d5c04 <_ZN6AB18056setWDTEi+0x78>)
   d5bb8:	f7ff febc 	bl	d5934 <_ZNK5spark6Logger5traceEPKcz>
        watchdogSecs = 0;
   d5bbc:	60ec      	str	r4, [r5, #12]
        watchdogUpdatePeriod = 0;
   d5bbe:	616c      	str	r4, [r5, #20]
}
   d5bc0:	4630      	mov	r0, r6
   d5bc2:	bdf8      	pop	{r3, r4, r5, r6, r7, pc}
        if (fourSecs < 1) {
   d5bc4:	2c03      	cmp	r4, #3
   d5bc6:	dd19      	ble.n	d5bfc <_ZN6AB18056setWDTEi+0x70>
        int fourSecs = seconds / 4;
   d5bc8:	10a7      	asrs	r7, r4, #2
   d5bca:	2f1f      	cmp	r7, #31
   d5bcc:	bfa8      	it	ge
   d5bce:	271f      	movge	r7, #31
        bResult = writeRegister(REG_WDT, REG_WDT_RESET | (fourSecs << 2) | REG_WDT_WRB_1_4_HZ);
   d5bd0:	00ba      	lsls	r2, r7, #2
   d5bd2:	f062 027c 	orn	r2, r2, #124	; 0x7c
   d5bd6:	2301      	movs	r3, #1
   d5bd8:	b2d2      	uxtb	r2, r2
   d5bda:	211b      	movs	r1, #27
   d5bdc:	4628      	mov	r0, r5
   d5bde:	f7ff ffc9 	bl	d5b74 <_ZN6AB180513writeRegisterEhhb>
        _log.trace("watchdog set fourSecs=%d bResult=%d", fourSecs, bResult);
   d5be2:	463a      	mov	r2, r7
   d5be4:	4603      	mov	r3, r0
   d5be6:	4909      	ldr	r1, [pc, #36]	; (d5c0c <_ZN6AB18056setWDTEi+0x80>)
        bResult = writeRegister(REG_WDT, REG_WDT_RESET | (fourSecs << 2) | REG_WDT_WRB_1_4_HZ);
   d5be8:	4606      	mov	r6, r0
        _log.trace("watchdog set fourSecs=%d bResult=%d", fourSecs, bResult);
   d5bea:	4806      	ldr	r0, [pc, #24]	; (d5c04 <_ZN6AB18056setWDTEi+0x78>)
   d5bec:	f7ff fea2 	bl	d5934 <_ZNK5spark6Logger5traceEPKcz>
        watchdogUpdatePeriod = (fourSecs * 2000);
   d5bf0:	f44f 63fa 	mov.w	r3, #2000	; 0x7d0
   d5bf4:	435f      	muls	r7, r3
        watchdogSecs = seconds;
   d5bf6:	60ec      	str	r4, [r5, #12]
        watchdogUpdatePeriod = (fourSecs * 2000);
   d5bf8:	616f      	str	r7, [r5, #20]
   d5bfa:	e7e1      	b.n	d5bc0 <_ZN6AB18056setWDTEi+0x34>
            fourSecs = 1;
   d5bfc:	2701      	movs	r7, #1
   d5bfe:	e7e7      	b.n	d5bd0 <_ZN6AB18056setWDTEi+0x44>
   d5c00:	000db524 	.word	0x000db524
   d5c04:	2003e5b8 	.word	0x2003e5b8
   d5c08:	000db52e 	.word	0x000db52e
   d5c0c:	000db54a 	.word	0x000db54a

000d5c10 <_ZN6AB180517systemEventStaticEyi>:
        }
    }
}

// [static] 
void AB1805::systemEventStatic(system_event_t event, int param) {
   d5c10:	460b      	mov	r3, r1
    if (instance) {
   d5c12:	4907      	ldr	r1, [pc, #28]	; (d5c30 <_ZN6AB180517systemEventStaticEyi+0x20>)
void AB1805::systemEventStatic(system_event_t event, int param) {
   d5c14:	4602      	mov	r2, r0
    if (instance) {
   d5c16:	6808      	ldr	r0, [r1, #0]
   d5c18:	b148      	cbz	r0, d5c2e <_ZN6AB180517systemEventStaticEyi+0x1e>
    if (event == reset) {
   d5c1a:	2b00      	cmp	r3, #0
   d5c1c:	bf08      	it	eq
   d5c1e:	f5b2 6f00 	cmpeq.w	r2, #2048	; 0x800
   d5c22:	d104      	bne.n	d5c2e <_ZN6AB180517systemEventStaticEyi+0x1e>
        if (watchdogSecs != 0) {
   d5c24:	68c3      	ldr	r3, [r0, #12]
   d5c26:	b113      	cbz	r3, d5c2e <_ZN6AB180517systemEventStaticEyi+0x1e>
            setWDT(0);
   d5c28:	2100      	movs	r1, #0
   d5c2a:	f7ff bfaf 	b.w	d5b8c <_ZN6AB18056setWDTEi>
        instance->systemEvent(event, param);
    }
}
   d5c2e:	4770      	bx	lr
   d5c30:	2003e5bc 	.word	0x2003e5bc

000d5c34 <_ZN6AB180512maskRegisterEhhhb>:
bool AB1805::maskRegister(uint8_t regAddr, uint8_t andValue, uint8_t orValue, bool lock) {
   d5c34:	e92d 41ff 	stmdb	sp!, {r0, r1, r2, r3, r4, r5, r6, r7, r8, lr}
   d5c38:	f89d 8028 	ldrb.w	r8, [sp, #40]	; 0x28
   d5c3c:	4605      	mov	r5, r0
   d5c3e:	4616      	mov	r6, r2
   d5c40:	461f      	mov	r7, r3
    if (lock) {
   d5c42:	f1b8 0f00 	cmp.w	r8, #0
   d5c46:	d004      	beq.n	d5c52 <_ZN6AB180512maskRegisterEhhhb+0x1e>
        wire.lock();
   d5c48:	6840      	ldr	r0, [r0, #4]
   d5c4a:	9101      	str	r1, [sp, #4]
   d5c4c:	f003 fafa 	bl	d9244 <_ZN7TwoWire4lockEv>
   d5c50:	9901      	ldr	r1, [sp, #4]
    bResult = readRegister(regAddr, value, false);
   d5c52:	9101      	str	r1, [sp, #4]
   d5c54:	2300      	movs	r3, #0
   d5c56:	f10d 020f 	add.w	r2, sp, #15
   d5c5a:	4628      	mov	r0, r5
   d5c5c:	f7ff fefa 	bl	d5a54 <_ZN6AB180512readRegisterEhRhb>
    if (bResult) {
   d5c60:	4604      	mov	r4, r0
   d5c62:	b160      	cbz	r0, d5c7e <_ZN6AB180512maskRegisterEhhhb+0x4a>
        uint8_t newValue = (value & andValue) | orValue;
   d5c64:	f89d 300f 	ldrb.w	r3, [sp, #15]
   d5c68:	ea03 0206 	and.w	r2, r3, r6
   d5c6c:	433a      	orrs	r2, r7
        if (newValue != value) {
   d5c6e:	4293      	cmp	r3, r2
   d5c70:	d005      	beq.n	d5c7e <_ZN6AB180512maskRegisterEhhhb+0x4a>
            bResult = writeRegister(regAddr, newValue, false);
   d5c72:	9901      	ldr	r1, [sp, #4]
   d5c74:	2300      	movs	r3, #0
   d5c76:	4628      	mov	r0, r5
   d5c78:	f7ff ff7c 	bl	d5b74 <_ZN6AB180513writeRegisterEhhb>
   d5c7c:	4604      	mov	r4, r0
    if (lock) {
   d5c7e:	f1b8 0f00 	cmp.w	r8, #0
   d5c82:	d002      	beq.n	d5c8a <_ZN6AB180512maskRegisterEhhhb+0x56>
        wire.unlock();
   d5c84:	6868      	ldr	r0, [r5, #4]
   d5c86:	f003 fae6 	bl	d9256 <_ZN7TwoWire6unlockEv>
}
   d5c8a:	4620      	mov	r0, r4
   d5c8c:	b004      	add	sp, #16
   d5c8e:	e8bd 81f0 	ldmia.w	sp!, {r4, r5, r6, r7, r8, pc}

000d5c92 <_ZN6AB180510isBitClearEhhb>:
bool AB1805::isBitClear(uint8_t regAddr, uint8_t bitMask, bool lock) {
   d5c92:	b513      	push	{r0, r1, r4, lr}
   d5c94:	4614      	mov	r4, r2
    bResult = readRegister(regAddr, value, lock);
   d5c96:	f10d 0207 	add.w	r2, sp, #7
   d5c9a:	f7ff fedb 	bl	d5a54 <_ZN6AB180512readRegisterEhRhb>
    return bResult && ((value & bitMask) == 0);
   d5c9e:	b128      	cbz	r0, d5cac <_ZN6AB180510isBitClearEhhb+0x1a>
   d5ca0:	f89d 3007 	ldrb.w	r3, [sp, #7]
   d5ca4:	421c      	tst	r4, r3
   d5ca6:	bf0c      	ite	eq
   d5ca8:	2001      	moveq	r0, #1
   d5caa:	2000      	movne	r0, #0
}
   d5cac:	b002      	add	sp, #8
   d5cae:	bd10      	pop	{r4, pc}

000d5cb0 <_ZN6AB18058isBitSetEhhb>:
bool AB1805::isBitSet(uint8_t regAddr, uint8_t bitMask, bool lock) {
   d5cb0:	b513      	push	{r0, r1, r4, lr}
   d5cb2:	4614      	mov	r4, r2
    bResult = readRegister(regAddr, value, lock);
   d5cb4:	f10d 0207 	add.w	r2, sp, #7
   d5cb8:	f7ff fecc 	bl	d5a54 <_ZN6AB180512readRegisterEhRhb>
    return bResult && ((value & bitMask) != 0);
   d5cbc:	b128      	cbz	r0, d5cca <_ZN6AB18058isBitSetEhhb+0x1a>
   d5cbe:	f89d 3007 	ldrb.w	r3, [sp, #7]
   d5cc2:	421c      	tst	r4, r3
   d5cc4:	bf14      	ite	ne
   d5cc6:	2001      	movne	r0, #1
   d5cc8:	2000      	moveq	r0, #0
}
   d5cca:	b002      	add	sp, #8
   d5ccc:	bd10      	pop	{r4, pc}

000d5cce <_ZN6AB180516clearRegisterBitEhhb>:
bool AB1805::clearRegisterBit(uint8_t regAddr, uint8_t bitMask, bool lock) {
   d5cce:	b507      	push	{r0, r1, r2, lr}
    return maskRegister(regAddr, ~bitMask, 0x00, lock);
   d5cd0:	43d2      	mvns	r2, r2
   d5cd2:	9300      	str	r3, [sp, #0]
   d5cd4:	b2d2      	uxtb	r2, r2
   d5cd6:	2300      	movs	r3, #0
   d5cd8:	f7ff ffac 	bl	d5c34 <_ZN6AB180512maskRegisterEhhhb>
}
   d5cdc:	b003      	add	sp, #12
   d5cde:	f85d fb04 	ldr.w	pc, [sp], #4
	...

000d5ce4 <_ZN6AB180516updateWakeReasonEv>:
bool AB1805::updateWakeReason() {
   d5ce4:	b537      	push	{r0, r1, r2, r4, r5, lr}
    bool bResult = readRegister(REG_STATUS, status);
   d5ce6:	2301      	movs	r3, #1
   d5ce8:	f10d 0207 	add.w	r2, sp, #7
   d5cec:	210f      	movs	r1, #15
bool AB1805::updateWakeReason() {
   d5cee:	4604      	mov	r4, r0
    bool bResult = readRegister(REG_STATUS, status);
   d5cf0:	f7ff feb0 	bl	d5a54 <_ZN6AB180512readRegisterEhRhb>
    if (!bResult) {
   d5cf4:	4605      	mov	r5, r0
   d5cf6:	b938      	cbnz	r0, d5d08 <_ZN6AB180516updateWakeReasonEv+0x24>
        _log.error(errorMsg, __LINE__);
   d5cf8:	491e      	ldr	r1, [pc, #120]	; (d5d74 <_ZN6AB180516updateWakeReasonEv+0x90>)
   d5cfa:	481f      	ldr	r0, [pc, #124]	; (d5d78 <_ZN6AB180516updateWakeReasonEv+0x94>)
   d5cfc:	22ad      	movs	r2, #173	; 0xad
   d5cfe:	f7ff fe30 	bl	d5962 <_ZNK5spark6Logger5errorEPKcz>
}
   d5d02:	4628      	mov	r0, r5
   d5d04:	b003      	add	sp, #12
   d5d06:	bd30      	pop	{r4, r5, pc}
    if ((status & REG_STATUS_WDT) != 0) {
   d5d08:	f89d 3007 	ldrb.w	r3, [sp, #7]
   d5d0c:	f013 0f20 	tst.w	r3, #32
        wakeReason = WakeReason::WATCHDOG;
   d5d10:	f04f 0301 	mov.w	r3, #1
    if ((status & REG_STATUS_WDT) != 0) {
   d5d14:	d00b      	beq.n	d5d2e <_ZN6AB180516updateWakeReasonEv+0x4a>
        clearRegisterBit(REG_STATUS, REG_STATUS_WDT);
   d5d16:	2220      	movs	r2, #32
        wakeReason = WakeReason::WATCHDOG;
   d5d18:	61e3      	str	r3, [r4, #28]
        clearRegisterBit(REG_STATUS, REG_STATUS_WDT);
   d5d1a:	210f      	movs	r1, #15
   d5d1c:	4620      	mov	r0, r4
   d5d1e:	f7ff ffd6 	bl	d5cce <_ZN6AB180516clearRegisterBitEhhb>
        reason = "WATCHDOG";
   d5d22:	4a16      	ldr	r2, [pc, #88]	; (d5d7c <_ZN6AB180516updateWakeReasonEv+0x98>)
        _log.info("wake reason = %s", reason);
   d5d24:	4916      	ldr	r1, [pc, #88]	; (d5d80 <_ZN6AB180516updateWakeReasonEv+0x9c>)
   d5d26:	4814      	ldr	r0, [pc, #80]	; (d5d78 <_ZN6AB180516updateWakeReasonEv+0x94>)
   d5d28:	f7fe facf 	bl	d42ca <_ZNK5spark6Logger4infoEPKcz>
   d5d2c:	e7e9      	b.n	d5d02 <_ZN6AB180516updateWakeReasonEv+0x1e>
    else if (isBitSet(REG_SLEEP_CTRL, REG_SLEEP_CTRL_SLST)) {
   d5d2e:	2208      	movs	r2, #8
   d5d30:	2117      	movs	r1, #23
   d5d32:	4620      	mov	r0, r4
   d5d34:	f7ff ffbc 	bl	d5cb0 <_ZN6AB18058isBitSetEhhb>
   d5d38:	b118      	cbz	r0, d5d42 <_ZN6AB180516updateWakeReasonEv+0x5e>
        wakeReason = WakeReason::DEEP_POWER_DOWN;
   d5d3a:	2302      	movs	r3, #2
        reason = "DEEP_POWER_DOWN";
   d5d3c:	4a11      	ldr	r2, [pc, #68]	; (d5d84 <_ZN6AB180516updateWakeReasonEv+0xa0>)
        wakeReason = WakeReason::DEEP_POWER_DOWN;
   d5d3e:	61e3      	str	r3, [r4, #28]
   d5d40:	e7f0      	b.n	d5d24 <_ZN6AB180516updateWakeReasonEv+0x40>
    else if ((status & REG_STATUS_TIM) != 0) {
   d5d42:	f89d 3007 	ldrb.w	r3, [sp, #7]
   d5d46:	071a      	lsls	r2, r3, #28
   d5d48:	d509      	bpl.n	d5d5e <_ZN6AB180516updateWakeReasonEv+0x7a>
        wakeReason = WakeReason::COUNTDOWN_TIMER;
   d5d4a:	2303      	movs	r3, #3
   d5d4c:	61e3      	str	r3, [r4, #28]
        clearRegisterBit(REG_STATUS, REG_STATUS_TIM);            
   d5d4e:	2208      	movs	r2, #8
   d5d50:	2301      	movs	r3, #1
   d5d52:	210f      	movs	r1, #15
   d5d54:	4620      	mov	r0, r4
   d5d56:	f7ff ffba 	bl	d5cce <_ZN6AB180516clearRegisterBitEhhb>
        reason = "COUNTDOWN_TIMER";
   d5d5a:	4a0b      	ldr	r2, [pc, #44]	; (d5d88 <_ZN6AB180516updateWakeReasonEv+0xa4>)
   d5d5c:	e7e2      	b.n	d5d24 <_ZN6AB180516updateWakeReasonEv+0x40>
    else if ((status & REG_STATUS_ALM) != 0) {
   d5d5e:	075b      	lsls	r3, r3, #29
   d5d60:	d5cf      	bpl.n	d5d02 <_ZN6AB180516updateWakeReasonEv+0x1e>
        wakeReason = WakeReason::ALARM;
   d5d62:	2204      	movs	r2, #4
   d5d64:	61e2      	str	r2, [r4, #28]
        clearRegisterBit(REG_STATUS, REG_STATUS_ALM);            
   d5d66:	2301      	movs	r3, #1
   d5d68:	210f      	movs	r1, #15
   d5d6a:	4620      	mov	r0, r4
   d5d6c:	f7ff ffaf 	bl	d5cce <_ZN6AB180516clearRegisterBitEhhb>
        reason = "ALARM";
   d5d70:	4a06      	ldr	r2, [pc, #24]	; (d5d8c <_ZN6AB180516updateWakeReasonEv+0xa8>)
   d5d72:	e7d7      	b.n	d5d24 <_ZN6AB180516updateWakeReasonEv+0x40>
   d5d74:	000db59d 	.word	0x000db59d
   d5d78:	2003e5b8 	.word	0x2003e5b8
   d5d7c:	000db56e 	.word	0x000db56e
   d5d80:	000db5bc 	.word	0x000db5bc
   d5d84:	000db577 	.word	0x000db577
   d5d88:	000db587 	.word	0x000db587
   d5d8c:	000db597 	.word	0x000db597

000d5d90 <_ZN6AB180514setRegisterBitEhhb>:
bool AB1805::setRegisterBit(uint8_t regAddr, uint8_t bitMask, bool lock) {
   d5d90:	b507      	push	{r0, r1, r2, lr}
    return maskRegister(regAddr, 0xff, bitMask, lock);
   d5d92:	9300      	str	r3, [sp, #0]
   d5d94:	4613      	mov	r3, r2
   d5d96:	22ff      	movs	r2, #255	; 0xff
   d5d98:	f7ff ff4c 	bl	d5c34 <_ZN6AB180512maskRegisterEhhhb>
}
   d5d9c:	b003      	add	sp, #12
   d5d9e:	f85d fb04 	ldr.w	pc, [sp], #4
	...

000d5da4 <_ZN6AB180517setCountdownTimerEib>:
bool AB1805::setCountdownTimer(int value, bool minutes) {
   d5da4:	b5f8      	push	{r3, r4, r5, r6, r7, lr}
   d5da6:	460f      	mov	r7, r1
   d5da8:	4616      	mov	r6, r2
    bResult = writeRegister(REG_STATUS, REG_STATUS_DEFAULT);
   d5daa:	2301      	movs	r3, #1
   d5dac:	2200      	movs	r2, #0
   d5dae:	210f      	movs	r1, #15
bool AB1805::setCountdownTimer(int value, bool minutes) {
   d5db0:	4605      	mov	r5, r0
    bResult = writeRegister(REG_STATUS, REG_STATUS_DEFAULT);
   d5db2:	f7ff fedf 	bl	d5b74 <_ZN6AB180513writeRegisterEhhb>
    if (!bResult) {
   d5db6:	4604      	mov	r4, r0
   d5db8:	b938      	cbnz	r0, d5dca <_ZN6AB180517setCountdownTimerEib+0x26>
        _log.error(errorMsg, __LINE__);
   d5dba:	f44f 7225 	mov.w	r2, #660	; 0x294
        _log.error(errorMsg, __LINE__);
   d5dbe:	491e      	ldr	r1, [pc, #120]	; (d5e38 <_ZN6AB180517setCountdownTimerEib+0x94>)
   d5dc0:	481e      	ldr	r0, [pc, #120]	; (d5e3c <_ZN6AB180517setCountdownTimerEib+0x98>)
   d5dc2:	f7ff fdce 	bl	d5962 <_ZNK5spark6Logger5errorEPKcz>
}
   d5dc6:	4620      	mov	r0, r4
   d5dc8:	bdf8      	pop	{r3, r4, r5, r6, r7, pc}
    bResult = writeRegister(REG_TIMER_CTRL, REG_TIMER_CTRL_DEFAULT);
   d5dca:	2301      	movs	r3, #1
   d5dcc:	2223      	movs	r2, #35	; 0x23
   d5dce:	2118      	movs	r1, #24
   d5dd0:	4628      	mov	r0, r5
   d5dd2:	f7ff fecf 	bl	d5b74 <_ZN6AB180513writeRegisterEhhb>
    if (!bResult) {
   d5dd6:	4604      	mov	r4, r0
   d5dd8:	b910      	cbnz	r0, d5de0 <_ZN6AB180517setCountdownTimerEib+0x3c>
        _log.error(errorMsg, __LINE__);
   d5dda:	f240 229b 	movw	r2, #667	; 0x29b
   d5dde:	e7ee      	b.n	d5dbe <_ZN6AB180517setCountdownTimerEib+0x1a>
    bResult = writeRegister(REG_TIMER, (uint8_t)value);
   d5de0:	2fff      	cmp	r7, #255	; 0xff
   d5de2:	bfa8      	it	ge
   d5de4:	27ff      	movge	r7, #255	; 0xff
   d5de6:	2f01      	cmp	r7, #1
   d5de8:	bfb8      	it	lt
   d5dea:	2701      	movlt	r7, #1
   d5dec:	2301      	movs	r3, #1
   d5dee:	b2fa      	uxtb	r2, r7
   d5df0:	2119      	movs	r1, #25
   d5df2:	4628      	mov	r0, r5
   d5df4:	f7ff febe 	bl	d5b74 <_ZN6AB180513writeRegisterEhhb>
    if (!bResult) {
   d5df8:	4604      	mov	r4, r0
   d5dfa:	b910      	cbnz	r0, d5e02 <_ZN6AB180517setCountdownTimerEib+0x5e>
        _log.error(errorMsg, __LINE__);
   d5dfc:	f44f 722a 	mov.w	r2, #680	; 0x2a8
   d5e00:	e7dd      	b.n	d5dbe <_ZN6AB180517setCountdownTimerEib+0x1a>
    bResult = setRegisterBit(REG_INT_MASK, REG_INT_MASK_TIE);
   d5e02:	2301      	movs	r3, #1
   d5e04:	2208      	movs	r2, #8
   d5e06:	2112      	movs	r1, #18
   d5e08:	4628      	mov	r0, r5
   d5e0a:	f7ff ffc1 	bl	d5d90 <_ZN6AB180514setRegisterBitEhhb>
    if (!bResult) {
   d5e0e:	4604      	mov	r4, r0
   d5e10:	b910      	cbnz	r0, d5e18 <_ZN6AB180517setCountdownTimerEib+0x74>
        _log.error(errorMsg, __LINE__);
   d5e12:	f240 22af 	movw	r2, #687	; 0x2af
   d5e16:	e7d2      	b.n	d5dbe <_ZN6AB180517setCountdownTimerEib+0x1a>
    uint8_t tfs = (minutes ? REG_TIMER_CTRL_TFS_1_60 : REG_TIMER_CTRL_TFS_1);
   d5e18:	2e00      	cmp	r6, #0
    bResult = writeRegister(REG_TIMER_CTRL, REG_TIMER_CTRL_TE | tfs);
   d5e1a:	f04f 0301 	mov.w	r3, #1
   d5e1e:	bf14      	ite	ne
   d5e20:	2283      	movne	r2, #131	; 0x83
   d5e22:	2282      	moveq	r2, #130	; 0x82
   d5e24:	2118      	movs	r1, #24
   d5e26:	4628      	mov	r0, r5
   d5e28:	f7ff fea4 	bl	d5b74 <_ZN6AB180513writeRegisterEhhb>
    if (!bResult) {
   d5e2c:	4604      	mov	r4, r0
   d5e2e:	2800      	cmp	r0, #0
   d5e30:	d1c9      	bne.n	d5dc6 <_ZN6AB180517setCountdownTimerEib+0x22>
        _log.error(errorMsg, __LINE__);
   d5e32:	f240 22b9 	movw	r2, #697	; 0x2b9
   d5e36:	e7c2      	b.n	d5dbe <_ZN6AB180517setCountdownTimerEib+0x1a>
   d5e38:	000db5cd 	.word	0x000db5cd
   d5e3c:	2003e5b8 	.word	0x2003e5b8

000d5e40 <_ZN6AB180513deepPowerDownEi>:
bool AB1805::deepPowerDown(int seconds) {
   d5e40:	e92d 43f7 	stmdb	sp!, {r0, r1, r2, r4, r5, r6, r7, r8, r9, lr}
    _log.info("deepPowerDown %d", seconds);
   d5e44:	460a      	mov	r2, r1
bool AB1805::deepPowerDown(int seconds) {
   d5e46:	4605      	mov	r5, r0
   d5e48:	460f      	mov	r7, r1
    _log.info("deepPowerDown %d", seconds);
   d5e4a:	484f      	ldr	r0, [pc, #316]	; (d5f88 <_ZN6AB180513deepPowerDownEi+0x148>)
   d5e4c:	494f      	ldr	r1, [pc, #316]	; (d5f8c <_ZN6AB180513deepPowerDownEi+0x14c>)
   d5e4e:	f7fe fa3c 	bl	d42ca <_ZNK5spark6Logger4infoEPKcz>
    bResult = setWDT(0);
   d5e52:	2100      	movs	r1, #0
   d5e54:	4628      	mov	r0, r5
   d5e56:	f7ff fe99 	bl	d5b8c <_ZN6AB18056setWDTEi>
    if (!bResult) {
   d5e5a:	4604      	mov	r4, r0
   d5e5c:	b948      	cbnz	r0, d5e72 <_ZN6AB180513deepPowerDownEi+0x32>
        _log.error(errorMsg, __LINE__);
   d5e5e:	f240 12f7 	movw	r2, #503	; 0x1f7
        _log.error(errorMsg, __LINE__);
   d5e62:	494b      	ldr	r1, [pc, #300]	; (d5f90 <_ZN6AB180513deepPowerDownEi+0x150>)
   d5e64:	4848      	ldr	r0, [pc, #288]	; (d5f88 <_ZN6AB180513deepPowerDownEi+0x148>)
   d5e66:	f7ff fd7c 	bl	d5962 <_ZNK5spark6Logger5errorEPKcz>
}
   d5e6a:	4620      	mov	r0, r4
   d5e6c:	b003      	add	sp, #12
   d5e6e:	e8bd 83f0 	ldmia.w	sp!, {r4, r5, r6, r7, r8, r9, pc}
    bResult = setRegisterBit(REG_OCTRL, REG_OCTRL_O1EN);
   d5e72:	2301      	movs	r3, #1
   d5e74:	461a      	mov	r2, r3
   d5e76:	2130      	movs	r1, #48	; 0x30
   d5e78:	4628      	mov	r0, r5
   d5e7a:	f7ff ff89 	bl	d5d90 <_ZN6AB180514setRegisterBitEhhb>
    if (!bResult) {
   d5e7e:	4604      	mov	r4, r0
   d5e80:	b910      	cbnz	r0, d5e88 <_ZN6AB180513deepPowerDownEi+0x48>
        _log.error(errorMsg, __LINE__);
   d5e82:	f240 2205 	movw	r2, #517	; 0x205
   d5e86:	e7ec      	b.n	d5e62 <_ZN6AB180513deepPowerDownEi+0x22>
    bResult = clearRegisterBit(REG_CTRL_1, REG_CTRL_1_OUT);
   d5e88:	2210      	movs	r2, #16
   d5e8a:	2301      	movs	r3, #1
   d5e8c:	4611      	mov	r1, r2
   d5e8e:	4628      	mov	r0, r5
   d5e90:	f7ff ff1d 	bl	d5cce <_ZN6AB180516clearRegisterBitEhhb>
    if (!bResult) {
   d5e94:	4604      	mov	r4, r0
   d5e96:	b910      	cbnz	r0, d5e9e <_ZN6AB180513deepPowerDownEi+0x5e>
        _log.error(errorMsg, __LINE__);
   d5e98:	f44f 7203 	mov.w	r2, #524	; 0x20c
   d5e9c:	e7e1      	b.n	d5e62 <_ZN6AB180513deepPowerDownEi+0x22>
    bResult = writeRegister(REG_SQW, REG_SQW_DEFAULT);
   d5e9e:	2301      	movs	r3, #1
   d5ea0:	2226      	movs	r2, #38	; 0x26
   d5ea2:	2113      	movs	r1, #19
   d5ea4:	4628      	mov	r0, r5
   d5ea6:	f7ff fe65 	bl	d5b74 <_ZN6AB180513writeRegisterEhhb>
    if (!bResult) {
   d5eaa:	4604      	mov	r4, r0
   d5eac:	b910      	cbnz	r0, d5eb4 <_ZN6AB180513deepPowerDownEi+0x74>
        _log.error(errorMsg, __LINE__);
   d5eae:	f240 2213 	movw	r2, #531	; 0x213
   d5eb2:	e7d6      	b.n	d5e62 <_ZN6AB180513deepPowerDownEi+0x22>
    bResult = maskRegister(REG_CTRL_2, ~REG_CTRL_2_OUT1S_MASK, REG_CTRL_2_OUT1S_SQW);
   d5eb4:	2601      	movs	r6, #1
   d5eb6:	9600      	str	r6, [sp, #0]
   d5eb8:	4633      	mov	r3, r6
   d5eba:	22fc      	movs	r2, #252	; 0xfc
   d5ebc:	2111      	movs	r1, #17
   d5ebe:	4628      	mov	r0, r5
   d5ec0:	f7ff feb8 	bl	d5c34 <_ZN6AB180512maskRegisterEhhhb>
    if (!bResult) {
   d5ec4:	4604      	mov	r4, r0
   d5ec6:	b910      	cbnz	r0, d5ece <_ZN6AB180513deepPowerDownEi+0x8e>
        _log.error(errorMsg, __LINE__);
   d5ec8:	f240 221b 	movw	r2, #539	; 0x21b
   d5ecc:	e7c9      	b.n	d5e62 <_ZN6AB180513deepPowerDownEi+0x22>
    bResult = setCountdownTimer(seconds, false);
   d5ece:	2200      	movs	r2, #0
   d5ed0:	4639      	mov	r1, r7
   d5ed2:	4628      	mov	r0, r5
   d5ed4:	f7ff ff66 	bl	d5da4 <_ZN6AB180517setCountdownTimerEib>
    if (!bResult) {
   d5ed8:	4604      	mov	r4, r0
   d5eda:	b910      	cbnz	r0, d5ee2 <_ZN6AB180513deepPowerDownEi+0xa2>
        _log.error(errorMsg, __LINE__);
   d5edc:	f240 2222 	movw	r2, #546	; 0x222
   d5ee0:	e7bf      	b.n	d5e62 <_ZN6AB180513deepPowerDownEi+0x22>
    bResult = maskRegister(REG_CTRL_1, (uint8_t)~(REG_CTRL_1_STOP | REG_CTRL_1_RSP), REG_CTRL_1_PWR2);
   d5ee2:	9600      	str	r6, [sp, #0]
   d5ee4:	2302      	movs	r3, #2
   d5ee6:	2277      	movs	r2, #119	; 0x77
   d5ee8:	2110      	movs	r1, #16
   d5eea:	4628      	mov	r0, r5
   d5eec:	f7ff fea2 	bl	d5c34 <_ZN6AB180512maskRegisterEhhhb>
    if (!bResult) {
   d5ef0:	4604      	mov	r4, r0
   d5ef2:	b910      	cbnz	r0, d5efa <_ZN6AB180513deepPowerDownEi+0xba>
        _log.error(errorMsg, __LINE__);
   d5ef4:	f240 222b 	movw	r2, #555	; 0x22b
   d5ef8:	e7b3      	b.n	d5e62 <_ZN6AB180513deepPowerDownEi+0x22>
    bResult = setRegisterBit(REG_OSC_CTRL, REG_OSC_CTRL_PWGT);
   d5efa:	4633      	mov	r3, r6
   d5efc:	2204      	movs	r2, #4
   d5efe:	211c      	movs	r1, #28
   d5f00:	4628      	mov	r0, r5
   d5f02:	f7ff ff45 	bl	d5d90 <_ZN6AB180514setRegisterBitEhhb>
    if (!bResult) {
   d5f06:	4604      	mov	r4, r0
   d5f08:	b910      	cbnz	r0, d5f10 <_ZN6AB180513deepPowerDownEi+0xd0>
        _log.error(errorMsg, __LINE__);
   d5f0a:	f240 2232 	movw	r2, #562	; 0x232
   d5f0e:	e7a8      	b.n	d5e62 <_ZN6AB180513deepPowerDownEi+0x22>
    bResult = maskRegister(REG_CTRL_2, (uint8_t)~REG_CTRL_2_OUT2S_MASK, REG_CTRL_2_OUT2S_SLEEP);
   d5f10:	9600      	str	r6, [sp, #0]
   d5f12:	2318      	movs	r3, #24
   d5f14:	22e3      	movs	r2, #227	; 0xe3
   d5f16:	2111      	movs	r1, #17
   d5f18:	4628      	mov	r0, r5
   d5f1a:	f7ff fe8b 	bl	d5c34 <_ZN6AB180512maskRegisterEhhhb>
    if (!bResult) {
   d5f1e:	4604      	mov	r4, r0
   d5f20:	b910      	cbnz	r0, d5f28 <_ZN6AB180513deepPowerDownEi+0xe8>
        _log.error(errorMsg, __LINE__);
   d5f22:	f240 2239 	movw	r2, #569	; 0x239
   d5f26:	e79c      	b.n	d5e62 <_ZN6AB180513deepPowerDownEi+0x22>
    bResult = writeRegister(REG_SLEEP_CTRL, REG_SLEEP_CTRL_SLP | REG_SLEEP_CTRL_SLRES);
   d5f28:	4633      	mov	r3, r6
   d5f2a:	22c0      	movs	r2, #192	; 0xc0
   d5f2c:	2117      	movs	r1, #23
   d5f2e:	4628      	mov	r0, r5
   d5f30:	f7ff fe20 	bl	d5b74 <_ZN6AB180513writeRegisterEhhb>
    if (!bResult) {
   d5f34:	4604      	mov	r4, r0
   d5f36:	b910      	cbnz	r0, d5f3e <_ZN6AB180513deepPowerDownEi+0xfe>
        _log.error(errorMsg, __LINE__);
   d5f38:	f44f 7210 	mov.w	r2, #576	; 0x240
   d5f3c:	e791      	b.n	d5e62 <_ZN6AB180513deepPowerDownEi+0x22>
   d5f3e:	f002 f915 	bl	d816c <HAL_Timer_Get_Milli_Seconds>
        _log.info("REG_SLEEP_CTRL=0x%2x", readRegister(REG_SLEEP_CTRL));
   d5f42:	f8df 9054 	ldr.w	r9, [pc, #84]	; d5f98 <_ZN6AB180513deepPowerDownEi+0x158>
   d5f46:	f8df 8040 	ldr.w	r8, [pc, #64]	; d5f88 <_ZN6AB180513deepPowerDownEi+0x148>
    while(millis() - start < (unsigned long) (seconds * 1000)) {
   d5f4a:	f44f 717a 	mov.w	r1, #1000	; 0x3e8
   d5f4e:	4606      	mov	r6, r0
   d5f50:	434f      	muls	r7, r1
   d5f52:	f002 f90b 	bl	d816c <HAL_Timer_Get_Milli_Seconds>
   d5f56:	1b80      	subs	r0, r0, r6
   d5f58:	42b8      	cmp	r0, r7
   d5f5a:	d20e      	bcs.n	d5f7a <_ZN6AB180513deepPowerDownEi+0x13a>
        _log.info("REG_SLEEP_CTRL=0x%2x", readRegister(REG_SLEEP_CTRL));
   d5f5c:	2201      	movs	r2, #1
   d5f5e:	2117      	movs	r1, #23
   d5f60:	4628      	mov	r0, r5
   d5f62:	f7ff fdbd 	bl	d5ae0 <_ZN6AB180512readRegisterEhb>
   d5f66:	4649      	mov	r1, r9
   d5f68:	4602      	mov	r2, r0
   d5f6a:	4640      	mov	r0, r8
   d5f6c:	f7fe f9ad 	bl	d42ca <_ZNK5spark6Logger4infoEPKcz>
        delay(1000);
   d5f70:	f44f 707a 	mov.w	r0, #1000	; 0x3e8
   d5f74:	f002 fc66 	bl	d8844 <delay>
    while(millis() - start < (unsigned long) (seconds * 1000)) {
   d5f78:	e7eb      	b.n	d5f52 <_ZN6AB180513deepPowerDownEi+0x112>
    _log.error("didn't power down");
   d5f7a:	4906      	ldr	r1, [pc, #24]	; (d5f94 <_ZN6AB180513deepPowerDownEi+0x154>)
   d5f7c:	4802      	ldr	r0, [pc, #8]	; (d5f88 <_ZN6AB180513deepPowerDownEi+0x148>)
   d5f7e:	f7ff fcf0 	bl	d5962 <_ZNK5spark6Logger5errorEPKcz>
    System.reset();
   d5f82:	f003 fd17 	bl	d99b4 <_ZN11SystemClass5resetEv>
    return true;
   d5f86:	e770      	b.n	d5e6a <_ZN6AB180513deepPowerDownEi+0x2a>
   d5f88:	2003e5b8 	.word	0x2003e5b8
   d5f8c:	000db5f8 	.word	0x000db5f8
   d5f90:	000db5ed 	.word	0x000db5ed
   d5f94:	000db61e 	.word	0x000db61e
   d5f98:	000db609 	.word	0x000db609

000d5f9c <_ZN6AB18057readRamEjPhjb>:
bool AB1805::readRam(size_t ramAddr, uint8_t *data, size_t dataLen, bool lock) {
   d5f9c:	e92d 47f3 	stmdb	sp!, {r0, r1, r4, r5, r6, r7, r8, r9, sl, lr}
   d5fa0:	f89d a028 	ldrb.w	sl, [sp, #40]	; 0x28
   d5fa4:	4605      	mov	r5, r0
   d5fa6:	460c      	mov	r4, r1
   d5fa8:	4691      	mov	r9, r2
   d5faa:	461f      	mov	r7, r3
    if (lock) {
   d5fac:	f1ba 0f00 	cmp.w	sl, #0
   d5fb0:	d002      	beq.n	d5fb8 <_ZN6AB18057readRamEjPhjb+0x1c>
        wire.lock();
   d5fb2:	6840      	ldr	r0, [r0, #4]
   d5fb4:	f003 f946 	bl	d9244 <_ZN7TwoWire4lockEv>
    while(dataLen > 0) {
   d5fb8:	b307      	cbz	r7, d5ffc <_ZN6AB18057readRamEjPhjb+0x60>
        if (count > 32) {
   d5fba:	2f20      	cmp	r7, #32
   d5fbc:	463e      	mov	r6, r7
   d5fbe:	bf28      	it	cs
   d5fc0:	2620      	movcs	r6, #32
        if ((ramAddr < 128) && ((ramAddr + count) > 128)) {
   d5fc2:	2c7f      	cmp	r4, #127	; 0x7f
   d5fc4:	d826      	bhi.n	d6014 <_ZN6AB18057readRamEjPhjb+0x78>
   d5fc6:	1933      	adds	r3, r6, r4
   d5fc8:	2b80      	cmp	r3, #128	; 0x80
   d5fca:	d901      	bls.n	d5fd0 <_ZN6AB18057readRamEjPhjb+0x34>
            count = 128 - ramAddr;
   d5fcc:	f1c4 0680 	rsb	r6, r4, #128	; 0x80
            clearRegisterBit(REG_EXT_ADDR, REG_EXT_ADDR_XADA);
   d5fd0:	2301      	movs	r3, #1
   d5fd2:	2204      	movs	r2, #4
   d5fd4:	213f      	movs	r1, #63	; 0x3f
   d5fd6:	4628      	mov	r0, r5
   d5fd8:	f7ff fe79 	bl	d5cce <_ZN6AB180516clearRegisterBitEhhb>
        bResult = readRegisters(REG_ALT_RAM + (ramAddr & 0x7f), data, count, false);
   d5fdc:	2300      	movs	r3, #0
   d5fde:	f064 017f 	orn	r1, r4, #127	; 0x7f
   d5fe2:	9300      	str	r3, [sp, #0]
   d5fe4:	464a      	mov	r2, r9
   d5fe6:	4633      	mov	r3, r6
   d5fe8:	b2c9      	uxtb	r1, r1
   d5fea:	4628      	mov	r0, r5
   d5fec:	f7ff fce4 	bl	d59b8 <_ZN6AB180513readRegistersEhPhjb>
        if (!bResult) {
   d5ff0:	4680      	mov	r8, r0
   d5ff2:	b128      	cbz	r0, d6000 <_ZN6AB18057readRamEjPhjb+0x64>
        ramAddr += count;
   d5ff4:	4434      	add	r4, r6
        dataLen -= count;
   d5ff6:	1bbf      	subs	r7, r7, r6
        data += count;
   d5ff8:	44b1      	add	r9, r6
    while(dataLen > 0) {
   d5ffa:	e7dd      	b.n	d5fb8 <_ZN6AB18057readRamEjPhjb+0x1c>
   d5ffc:	f04f 0801 	mov.w	r8, #1
    if (lock) {
   d6000:	f1ba 0f00 	cmp.w	sl, #0
   d6004:	d002      	beq.n	d600c <_ZN6AB18057readRamEjPhjb+0x70>
        wire.unlock();
   d6006:	6868      	ldr	r0, [r5, #4]
   d6008:	f003 f925 	bl	d9256 <_ZN7TwoWire6unlockEv>
}
   d600c:	4640      	mov	r0, r8
   d600e:	b002      	add	sp, #8
   d6010:	e8bd 87f0 	ldmia.w	sp!, {r4, r5, r6, r7, r8, r9, sl, pc}
            setRegisterBit(REG_EXT_ADDR, REG_EXT_ADDR_XADA);
   d6014:	2301      	movs	r3, #1
   d6016:	2204      	movs	r2, #4
   d6018:	213f      	movs	r1, #63	; 0x3f
   d601a:	4628      	mov	r0, r5
   d601c:	f7ff feb8 	bl	d5d90 <_ZN6AB180514setRegisterBitEhhb>
   d6020:	e7dc      	b.n	d5fdc <_ZN6AB18057readRamEjPhjb+0x40>

000d6022 <_ZN6AB18058writeRamEjPKhjb>:
bool AB1805::writeRam(size_t ramAddr, const uint8_t *data, size_t dataLen, bool lock) {
   d6022:	e92d 47f3 	stmdb	sp!, {r0, r1, r4, r5, r6, r7, r8, r9, sl, lr}
   d6026:	f89d a028 	ldrb.w	sl, [sp, #40]	; 0x28
   d602a:	4605      	mov	r5, r0
   d602c:	460c      	mov	r4, r1
   d602e:	4691      	mov	r9, r2
   d6030:	461f      	mov	r7, r3
    if (lock) {
   d6032:	f1ba 0f00 	cmp.w	sl, #0
   d6036:	d002      	beq.n	d603e <_ZN6AB18058writeRamEjPKhjb+0x1c>
        wire.lock();
   d6038:	6840      	ldr	r0, [r0, #4]
   d603a:	f003 f903 	bl	d9244 <_ZN7TwoWire4lockEv>
    while(dataLen > 0) {
   d603e:	b307      	cbz	r7, d6082 <_ZN6AB18058writeRamEjPKhjb+0x60>
        if (count > 31) {
   d6040:	2f1f      	cmp	r7, #31
   d6042:	463e      	mov	r6, r7
   d6044:	bf28      	it	cs
   d6046:	261f      	movcs	r6, #31
        if ((ramAddr < 128) && ((ramAddr + count) > 128)) {
   d6048:	2c7f      	cmp	r4, #127	; 0x7f
   d604a:	d826      	bhi.n	d609a <_ZN6AB18058writeRamEjPKhjb+0x78>
   d604c:	1933      	adds	r3, r6, r4
   d604e:	2b80      	cmp	r3, #128	; 0x80
   d6050:	d901      	bls.n	d6056 <_ZN6AB18058writeRamEjPKhjb+0x34>
            count = 128 - ramAddr;
   d6052:	f1c4 0680 	rsb	r6, r4, #128	; 0x80
            clearRegisterBit(REG_EXT_ADDR, REG_EXT_ADDR_XADA);
   d6056:	2301      	movs	r3, #1
   d6058:	2204      	movs	r2, #4
   d605a:	213f      	movs	r1, #63	; 0x3f
   d605c:	4628      	mov	r0, r5
   d605e:	f7ff fe36 	bl	d5cce <_ZN6AB180516clearRegisterBitEhhb>
        bResult = writeRegisters(REG_ALT_RAM + (ramAddr & 0x7f), data, count, false);
   d6062:	2300      	movs	r3, #0
   d6064:	f064 017f 	orn	r1, r4, #127	; 0x7f
   d6068:	9300      	str	r3, [sp, #0]
   d606a:	464a      	mov	r2, r9
   d606c:	4633      	mov	r3, r6
   d606e:	b2c9      	uxtb	r1, r1
   d6070:	4628      	mov	r0, r5
   d6072:	f7ff fd43 	bl	d5afc <_ZN6AB180514writeRegistersEhPKhjb>
        if (!bResult) {
   d6076:	4680      	mov	r8, r0
   d6078:	b128      	cbz	r0, d6086 <_ZN6AB18058writeRamEjPKhjb+0x64>
        ramAddr += count;
   d607a:	4434      	add	r4, r6
        dataLen -= count;
   d607c:	1bbf      	subs	r7, r7, r6
        data += count;
   d607e:	44b1      	add	r9, r6
    while(dataLen > 0) {
   d6080:	e7dd      	b.n	d603e <_ZN6AB18058writeRamEjPKhjb+0x1c>
   d6082:	f04f 0801 	mov.w	r8, #1
    if (lock) {
   d6086:	f1ba 0f00 	cmp.w	sl, #0
   d608a:	d002      	beq.n	d6092 <_ZN6AB18058writeRamEjPKhjb+0x70>
        wire.unlock();
   d608c:	6868      	ldr	r0, [r5, #4]
   d608e:	f003 f8e2 	bl	d9256 <_ZN7TwoWire6unlockEv>
}
   d6092:	4640      	mov	r0, r8
   d6094:	b002      	add	sp, #8
   d6096:	e8bd 87f0 	ldmia.w	sp!, {r4, r5, r6, r7, r8, r9, sl, pc}
            setRegisterBit(REG_EXT_ADDR, REG_EXT_ADDR_XADA);
   d609a:	2301      	movs	r3, #1
   d609c:	2204      	movs	r2, #4
   d609e:	213f      	movs	r1, #63	; 0x3f
   d60a0:	4628      	mov	r0, r5
   d60a2:	f7ff fe75 	bl	d5d90 <_ZN6AB180514setRegisterBitEhhb>
   d60a6:	e7dc      	b.n	d6062 <_ZN6AB18058writeRamEjPKhjb+0x40>

000d60a8 <_ZN6AB180510tmToStringEPK2tm>:
String AB1805::tmToString(const struct tm *timeptr) {
   d60a8:	b530      	push	{r4, r5, lr}
   d60aa:	b085      	sub	sp, #20
        timeptr->tm_hour, timeptr->tm_min, timeptr->tm_sec);
   d60ac:	680d      	ldr	r5, [r1, #0]
   d60ae:	e9d1 3204 	ldrd	r3, r2, [r1, #16]
   d60b2:	9503      	str	r5, [sp, #12]
   d60b4:	684d      	ldr	r5, [r1, #4]
   d60b6:	9502      	str	r5, [sp, #8]
   d60b8:	688d      	ldr	r5, [r1, #8]
   d60ba:	9501      	str	r5, [sp, #4]
   d60bc:	68c9      	ldr	r1, [r1, #12]
   d60be:	9100      	str	r1, [sp, #0]
   d60c0:	3301      	adds	r3, #1
   d60c2:	4904      	ldr	r1, [pc, #16]	; (d60d4 <_ZN6AB180510tmToStringEPK2tm+0x2c>)
   d60c4:	f202 726c 	addw	r2, r2, #1900	; 0x76c
String AB1805::tmToString(const struct tm *timeptr) {
   d60c8:	4604      	mov	r4, r0
        timeptr->tm_hour, timeptr->tm_min, timeptr->tm_sec);
   d60ca:	f003 fbe5 	bl	d9898 <_ZN6String6formatEPKcz>
}
   d60ce:	4620      	mov	r0, r4
   d60d0:	b005      	add	sp, #20
   d60d2:	bd30      	pop	{r4, r5, pc}
   d60d4:	000db630 	.word	0x000db630

000d60d8 <_ZN6AB180510bcdToValueEh>:
    return (bcd >> 4) * 10 + (bcd & 0x0f);
   d60d8:	1103      	asrs	r3, r0, #4
}
   d60da:	220a      	movs	r2, #10
    return (bcd >> 4) * 10 + (bcd & 0x0f);
   d60dc:	f000 000f 	and.w	r0, r0, #15
}
   d60e0:	fb02 0003 	mla	r0, r2, r3, r0
   d60e4:	4770      	bx	lr

000d60e6 <_ZN6AB180513registersToTmEPKhP2tmb>:
void AB1805::registersToTm(const uint8_t *array, struct tm *timeptr, bool includeYear) {
   d60e6:	b538      	push	{r3, r4, r5, lr}
   d60e8:	4604      	mov	r4, r0
    timeptr->tm_sec = bcdToValue(*p++);
   d60ea:	7800      	ldrb	r0, [r0, #0]
void AB1805::registersToTm(const uint8_t *array, struct tm *timeptr, bool includeYear) {
   d60ec:	4615      	mov	r5, r2
    timeptr->tm_sec = bcdToValue(*p++);
   d60ee:	f7ff fff3 	bl	d60d8 <_ZN6AB180510bcdToValueEh>
   d60f2:	6008      	str	r0, [r1, #0]
    timeptr->tm_min = bcdToValue(*p++);
   d60f4:	7860      	ldrb	r0, [r4, #1]
   d60f6:	f7ff ffef 	bl	d60d8 <_ZN6AB180510bcdToValueEh>
   d60fa:	6048      	str	r0, [r1, #4]
    timeptr->tm_hour = bcdToValue(*p++);
   d60fc:	78a0      	ldrb	r0, [r4, #2]
   d60fe:	f7ff ffeb 	bl	d60d8 <_ZN6AB180510bcdToValueEh>
   d6102:	6088      	str	r0, [r1, #8]
    timeptr->tm_mday = bcdToValue(*p++);
   d6104:	78e0      	ldrb	r0, [r4, #3]
   d6106:	f7ff ffe7 	bl	d60d8 <_ZN6AB180510bcdToValueEh>
   d610a:	60c8      	str	r0, [r1, #12]
    timeptr->tm_mon = bcdToValue(*p++) - 1; // struct tm is 0-11, not 1-12!
   d610c:	7920      	ldrb	r0, [r4, #4]
   d610e:	f7ff ffe3 	bl	d60d8 <_ZN6AB180510bcdToValueEh>
   d6112:	3801      	subs	r0, #1
   d6114:	6108      	str	r0, [r1, #16]
    if (includeYear) {
   d6116:	b92d      	cbnz	r5, d6124 <_ZN6AB180513registersToTmEPKhP2tmb+0x3e>
    timeptr->tm_mon = bcdToValue(*p++) - 1; // struct tm is 0-11, not 1-12!
   d6118:	1d65      	adds	r5, r4, #5
    timeptr->tm_wday = bcdToValue(*p++);
   d611a:	7828      	ldrb	r0, [r5, #0]
   d611c:	f7ff ffdc 	bl	d60d8 <_ZN6AB180510bcdToValueEh>
   d6120:	6188      	str	r0, [r1, #24]
}
   d6122:	bd38      	pop	{r3, r4, r5, pc}
        timeptr->tm_year = bcdToValue(*p++) + 100;
   d6124:	7960      	ldrb	r0, [r4, #5]
   d6126:	f7ff ffd7 	bl	d60d8 <_ZN6AB180510bcdToValueEh>
   d612a:	3064      	adds	r0, #100	; 0x64
   d612c:	1da5      	adds	r5, r4, #6
   d612e:	6148      	str	r0, [r1, #20]
   d6130:	e7f3      	b.n	d611a <_ZN6AB180513registersToTmEPKhP2tmb+0x34>
	...

000d6134 <_ZN6AB180510getRtcAsTmEP2tm>:
bool AB1805::getRtcAsTm(struct tm *timeptr) {
   d6134:	b570      	push	{r4, r5, r6, lr}
    if (isBitClear(REG_CTRL_1, REG_CTRL_1_WRTC)) {
   d6136:	2301      	movs	r3, #1
bool AB1805::getRtcAsTm(struct tm *timeptr) {
   d6138:	b088      	sub	sp, #32
   d613a:	460d      	mov	r5, r1
    if (isBitClear(REG_CTRL_1, REG_CTRL_1_WRTC)) {
   d613c:	461a      	mov	r2, r3
   d613e:	2110      	movs	r1, #16
bool AB1805::getRtcAsTm(struct tm *timeptr) {
   d6140:	4604      	mov	r4, r0
    if (isBitClear(REG_CTRL_1, REG_CTRL_1_WRTC)) {
   d6142:	f7ff fda6 	bl	d5c92 <_ZN6AB180510isBitClearEhhb>
   d6146:	b1f0      	cbz	r0, d6186 <_ZN6AB180510getRtcAsTmEP2tm+0x52>
        bResult = readRegisters(REG_HUNDREDTH, array, sizeof(array));
   d6148:	2308      	movs	r3, #8
   d614a:	2601      	movs	r6, #1
   d614c:	4620      	mov	r0, r4
   d614e:	9600      	str	r6, [sp, #0]
   d6150:	eb0d 0203 	add.w	r2, sp, r3
   d6154:	2100      	movs	r1, #0
   d6156:	f7ff fc2f 	bl	d59b8 <_ZN6AB180513readRegistersEhPhjb>
        if (bResult) {
   d615a:	4604      	mov	r4, r0
   d615c:	b198      	cbz	r0, d6186 <_ZN6AB180510getRtcAsTmEP2tm+0x52>
            registersToTm(&array[1], timeptr, true);
   d615e:	4632      	mov	r2, r6
   d6160:	4629      	mov	r1, r5
   d6162:	f10d 0009 	add.w	r0, sp, #9
   d6166:	f7ff ffbe 	bl	d60e6 <_ZN6AB180513registersToTmEPKhP2tmb>
            _log.info("getRtcAsTm %s", tmToString(timeptr).c_str());
   d616a:	a804      	add	r0, sp, #16
   d616c:	f7ff ff9c 	bl	d60a8 <_ZN6AB180510tmToStringEPK2tm>
   d6170:	4808      	ldr	r0, [pc, #32]	; (d6194 <_ZN6AB180510getRtcAsTmEP2tm+0x60>)
   d6172:	9a04      	ldr	r2, [sp, #16]
   d6174:	4908      	ldr	r1, [pc, #32]	; (d6198 <_ZN6AB180510getRtcAsTmEP2tm+0x64>)
   d6176:	f7fe f8a8 	bl	d42ca <_ZNK5spark6Logger4infoEPKcz>
   d617a:	a804      	add	r0, sp, #16
   d617c:	f003 fae8 	bl	d9750 <_ZN6StringD1Ev>
}
   d6180:	4620      	mov	r0, r4
   d6182:	b008      	add	sp, #32
   d6184:	bd70      	pop	{r4, r5, r6, pc}
        memset(timeptr, 0, sizeof(*timeptr));
   d6186:	2224      	movs	r2, #36	; 0x24
   d6188:	2100      	movs	r1, #0
   d618a:	4628      	mov	r0, r5
   d618c:	f004 fe3a 	bl	dae04 <memset>
   d6190:	2400      	movs	r4, #0
   d6192:	e7f5      	b.n	d6180 <_ZN6AB180510getRtcAsTmEP2tm+0x4c>
   d6194:	2003e5b8 	.word	0x2003e5b8
   d6198:	000db64e 	.word	0x000db64e

000d619c <_ZN6AB180512getRtcAsTimeERx>:
bool AB1805::getRtcAsTime(time_t &time) {
   d619c:	b530      	push	{r4, r5, lr}
   d619e:	b08b      	sub	sp, #44	; 0x2c
   d61a0:	460d      	mov	r5, r1
    bool bResult = getRtcAsTm(&tmstruct);
   d61a2:	a901      	add	r1, sp, #4
   d61a4:	f7ff ffc6 	bl	d6134 <_ZN6AB180510getRtcAsTmEP2tm>
    if (bResult) {
   d61a8:	4604      	mov	r4, r0
   d61aa:	b120      	cbz	r0, d61b6 <_ZN6AB180512getRtcAsTimeERx+0x1a>
        time = mktime(&tmstruct);
   d61ac:	a801      	add	r0, sp, #4
   d61ae:	f002 fb41 	bl	d8834 <mktime>
   d61b2:	e9c5 0100 	strd	r0, r1, [r5]
}
   d61b6:	4620      	mov	r0, r4
   d61b8:	b00b      	add	sp, #44	; 0x2c
   d61ba:	bd30      	pop	{r4, r5, pc}

000d61bc <_ZN6AB18055setupEb>:
void AB1805::setup(bool callBegin) {
   d61bc:	b510      	push	{r4, lr}
   d61be:	4604      	mov	r4, r0
   d61c0:	b088      	sub	sp, #32
    if (callBegin) {
   d61c2:	b111      	cbz	r1, d61ca <_ZN6AB18055setupEb+0xe>
        wire.begin();
   d61c4:	6840      	ldr	r0, [r0, #4]
   d61c6:	f003 f803 	bl	d91d0 <_ZN7TwoWire5beginEv>
    if (detectChip()) {
   d61ca:	4620      	mov	r0, r4
   d61cc:	f7ff fc4a 	bl	d5a64 <_ZN6AB180510detectChipEv>
   d61d0:	b370      	cbz	r0, d6230 <_ZN6AB18055setupEb+0x74>
        updateWakeReason();
   d61d2:	4620      	mov	r0, r4
   d61d4:	f7ff fd86 	bl	d5ce4 <_ZN6AB180516updateWakeReasonEv>
        if (isBitClear(REG_CTRL_1, REG_CTRL_1_WRTC) && !Time.isValid()) {
   d61d8:	2301      	movs	r3, #1
   d61da:	461a      	mov	r2, r3
   d61dc:	2110      	movs	r1, #16
   d61de:	4620      	mov	r0, r4
   d61e0:	f7ff fd57 	bl	d5c92 <_ZN6AB180510isBitClearEhhb>
   d61e4:	b1d8      	cbz	r0, d621e <_ZN6AB18055setupEb+0x62>
   d61e6:	f003 fe35 	bl	d9e54 <_ZN9TimeClass7isValidEv>
   d61ea:	b9c0      	cbnz	r0, d621e <_ZN6AB18055setupEb+0x62>
            getRtcAsTime(time);
   d61ec:	a902      	add	r1, sp, #8
   d61ee:	4620      	mov	r0, r4
   d61f0:	f7ff ffd4 	bl	d619c <_ZN6AB180512getRtcAsTimeERx>
            Time.setTime(time);
   d61f4:	e9dd 0102 	ldrd	r0, r1, [sp, #8]
   d61f8:	f003 fd32 	bl	d9c60 <_ZN9TimeClass7setTimeEx>
            _log.info("set system clock from RTC %s", Time.format(time, TIME_FORMAT_DEFAULT).c_str());
   d61fc:	4b0f      	ldr	r3, [pc, #60]	; (d623c <_ZN6AB18055setupEb+0x80>)
   d61fe:	4910      	ldr	r1, [pc, #64]	; (d6240 <_ZN6AB18055setupEb+0x84>)
   d6200:	681b      	ldr	r3, [r3, #0]
   d6202:	9300      	str	r3, [sp, #0]
   d6204:	a804      	add	r0, sp, #16
   d6206:	e9dd 2302 	ldrd	r2, r3, [sp, #8]
   d620a:	f003 fde1 	bl	d9dd0 <_ZN9TimeClass6formatExPKc>
   d620e:	480d      	ldr	r0, [pc, #52]	; (d6244 <_ZN6AB18055setupEb+0x88>)
   d6210:	9a04      	ldr	r2, [sp, #16]
   d6212:	490d      	ldr	r1, [pc, #52]	; (d6248 <_ZN6AB18055setupEb+0x8c>)
   d6214:	f7fe f859 	bl	d42ca <_ZNK5spark6Logger4infoEPKcz>
   d6218:	a804      	add	r0, sp, #16
   d621a:	f003 fa99 	bl	d9750 <_ZN6StringD1Ev>
        return system_subscribe_event(events, reinterpret_cast<system_event_handler_t*>(handler), NULL);
   d621e:	4a0b      	ldr	r2, [pc, #44]	; (d624c <_ZN6AB18055setupEb+0x90>)
   d6220:	2300      	movs	r3, #0
   d6222:	2100      	movs	r1, #0
   d6224:	f44f 6000 	mov.w	r0, #2048	; 0x800
   d6228:	f002 f982 	bl	d8530 <system_subscribe_event>
}
   d622c:	b008      	add	sp, #32
   d622e:	bd10      	pop	{r4, pc}
        _log.error("failed to detect AB1805");
   d6230:	4907      	ldr	r1, [pc, #28]	; (d6250 <_ZN6AB18055setupEb+0x94>)
   d6232:	4804      	ldr	r0, [pc, #16]	; (d6244 <_ZN6AB18055setupEb+0x88>)
   d6234:	f7ff fb95 	bl	d5962 <_ZNK5spark6Logger5errorEPKcz>
   d6238:	e7f1      	b.n	d621e <_ZN6AB18055setupEb+0x62>
   d623a:	bf00      	nop
   d623c:	2003e184 	.word	0x2003e184
   d6240:	2003e650 	.word	0x2003e650
   d6244:	2003e5b8 	.word	0x2003e5b8
   d6248:	000db65c 	.word	0x000db65c
   d624c:	000d5c11 	.word	0x000d5c11
   d6250:	000db679 	.word	0x000db679

000d6254 <_ZN6AB180510valueToBcdEi>:
    int tens = (value / 10) % 10;
   d6254:	220a      	movs	r2, #10
   d6256:	fb90 f3f2 	sdiv	r3, r0, r2
    int ones = value % 10;
   d625a:	fb02 0013 	mls	r0, r2, r3, r0
    int tens = (value / 10) % 10;
   d625e:	fb93 f1f2 	sdiv	r1, r3, r2
   d6262:	fb02 3111 	mls	r1, r2, r1, r3
    return (uint8_t) ((tens << 4) | ones);
   d6266:	ea40 1001 	orr.w	r0, r0, r1, lsl #4
}
   d626a:	b2c0      	uxtb	r0, r0
   d626c:	4770      	bx	lr

000d626e <_ZN6AB180513tmToRegistersEPK2tmPhb>:
void AB1805::tmToRegisters(const struct tm *timeptr, uint8_t *array, bool includeYear) {
   d626e:	b570      	push	{r4, r5, r6, lr}
   d6270:	4605      	mov	r5, r0
    *p++ = valueToBcd(timeptr->tm_sec);
   d6272:	6800      	ldr	r0, [r0, #0]
void AB1805::tmToRegisters(const struct tm *timeptr, uint8_t *array, bool includeYear) {
   d6274:	460c      	mov	r4, r1
   d6276:	4616      	mov	r6, r2
    *p++ = valueToBcd(timeptr->tm_sec);
   d6278:	f7ff ffec 	bl	d6254 <_ZN6AB180510valueToBcdEi>
   d627c:	7020      	strb	r0, [r4, #0]
    *p++ = valueToBcd(timeptr->tm_min);
   d627e:	6868      	ldr	r0, [r5, #4]
   d6280:	f7ff ffe8 	bl	d6254 <_ZN6AB180510valueToBcdEi>
   d6284:	7060      	strb	r0, [r4, #1]
    *p++ = valueToBcd(timeptr->tm_hour);
   d6286:	68a8      	ldr	r0, [r5, #8]
   d6288:	f7ff ffe4 	bl	d6254 <_ZN6AB180510valueToBcdEi>
   d628c:	70a0      	strb	r0, [r4, #2]
    *p++ = valueToBcd(timeptr->tm_mday);
   d628e:	68e8      	ldr	r0, [r5, #12]
   d6290:	f7ff ffe0 	bl	d6254 <_ZN6AB180510valueToBcdEi>
   d6294:	70e0      	strb	r0, [r4, #3]
    *p++ = valueToBcd(timeptr->tm_mon + 1); // struct tm is 0-11, not 1-12!
   d6296:	6928      	ldr	r0, [r5, #16]
   d6298:	3001      	adds	r0, #1
   d629a:	f7ff ffdb 	bl	d6254 <_ZN6AB180510valueToBcdEi>
   d629e:	7120      	strb	r0, [r4, #4]
    if (includeYear) {
   d62a0:	b92e      	cbnz	r6, d62ae <_ZN6AB180513tmToRegistersEPK2tmPhb+0x40>
    *p++ = valueToBcd(timeptr->tm_mon + 1); // struct tm is 0-11, not 1-12!
   d62a2:	1d66      	adds	r6, r4, #5
    *p++ = valueToBcd(timeptr->tm_wday);
   d62a4:	69a8      	ldr	r0, [r5, #24]
   d62a6:	f7ff ffd5 	bl	d6254 <_ZN6AB180510valueToBcdEi>
   d62aa:	7030      	strb	r0, [r6, #0]
}
   d62ac:	bd70      	pop	{r4, r5, r6, pc}
        *p++ = valueToBcd(timeptr->tm_year % 100);
   d62ae:	696a      	ldr	r2, [r5, #20]
   d62b0:	2364      	movs	r3, #100	; 0x64
   d62b2:	fb92 f0f3 	sdiv	r0, r2, r3
   d62b6:	fb03 2010 	mls	r0, r3, r0, r2
   d62ba:	f7ff ffcb 	bl	d6254 <_ZN6AB180510valueToBcdEi>
   d62be:	1da6      	adds	r6, r4, #6
   d62c0:	7160      	strb	r0, [r4, #5]
   d62c2:	e7ef      	b.n	d62a4 <_ZN6AB180513tmToRegistersEPK2tmPhb+0x36>

000d62c4 <_ZN6AB180512setRtcFromTmEPK2tmb>:
bool AB1805::setRtcFromTm(const struct tm *timeptr, bool lock) {
   d62c4:	b5f0      	push	{r4, r5, r6, r7, lr}
   d62c6:	b087      	sub	sp, #28
   d62c8:	4605      	mov	r5, r0
    _log.info("setRtcAsTm %s", tmToString(timeptr).c_str());
   d62ca:	a802      	add	r0, sp, #8
bool AB1805::setRtcFromTm(const struct tm *timeptr, bool lock) {
   d62cc:	4616      	mov	r6, r2
   d62ce:	460c      	mov	r4, r1
    _log.info("setRtcAsTm %s", tmToString(timeptr).c_str());
   d62d0:	f7ff feea 	bl	d60a8 <_ZN6AB180510tmToStringEPK2tm>
   d62d4:	481e      	ldr	r0, [pc, #120]	; (d6350 <_ZN6AB180512setRtcFromTmEPK2tmb+0x8c>)
   d62d6:	9a02      	ldr	r2, [sp, #8]
   d62d8:	491e      	ldr	r1, [pc, #120]	; (d6354 <_ZN6AB180512setRtcFromTmEPK2tmb+0x90>)
   d62da:	f7fd fff6 	bl	d42ca <_ZNK5spark6Logger4infoEPKcz>
   d62de:	a802      	add	r0, sp, #8
   d62e0:	f003 fa36 	bl	d9750 <_ZN6StringD1Ev>
    if (lock) {
   d62e4:	b116      	cbz	r6, d62ec <_ZN6AB180512setRtcFromTmEPK2tmb+0x28>
        wire.lock();
   d62e6:	6868      	ldr	r0, [r5, #4]
   d62e8:	f002 ffac 	bl	d9244 <_ZN7TwoWire4lockEv>
    tmToRegisters(timeptr, &array[1], true);
   d62ec:	4620      	mov	r0, r4
   d62ee:	2201      	movs	r2, #1
   d62f0:	f10d 0109 	add.w	r1, sp, #9
    array[0] = 0x00; // hundredths
   d62f4:	2700      	movs	r7, #0
   d62f6:	f88d 7008 	strb.w	r7, [sp, #8]
    tmToRegisters(timeptr, &array[1], true);
   d62fa:	f7ff ffb8 	bl	d626e <_ZN6AB180513tmToRegistersEPK2tmPhb>
    bool bResult = setRegisterBit(REG_CTRL_1, REG_CTRL_1_WRTC);
   d62fe:	2301      	movs	r3, #1
   d6300:	461a      	mov	r2, r3
   d6302:	2110      	movs	r1, #16
   d6304:	4628      	mov	r0, r5
   d6306:	f7ff fd43 	bl	d5d90 <_ZN6AB180514setRegisterBitEhhb>
    if (bResult) {
   d630a:	4604      	mov	r4, r0
   d630c:	b1e8      	cbz	r0, d634a <_ZN6AB180512setRtcFromTmEPK2tmb+0x86>
        bResult = writeRegisters(REG_HUNDREDTH, array, sizeof(array), false);
   d630e:	2308      	movs	r3, #8
   d6310:	9700      	str	r7, [sp, #0]
   d6312:	eb0d 0203 	add.w	r2, sp, r3
   d6316:	4639      	mov	r1, r7
   d6318:	4628      	mov	r0, r5
   d631a:	f7ff fbef 	bl	d5afc <_ZN6AB180514writeRegistersEhPKhjb>
        if (bResult) {
   d631e:	4604      	mov	r4, r0
   d6320:	b160      	cbz	r0, d633c <_ZN6AB180512setRtcFromTmEPK2tmb+0x78>
            clearRegisterBit(REG_CTRL_1, REG_CTRL_1_WRTC);
   d6322:	2301      	movs	r3, #1
   d6324:	461a      	mov	r2, r3
   d6326:	2110      	movs	r1, #16
   d6328:	4628      	mov	r0, r5
   d632a:	f7ff fcd0 	bl	d5cce <_ZN6AB180516clearRegisterBitEhhb>
    if (lock) {
   d632e:	b116      	cbz	r6, d6336 <_ZN6AB180512setRtcFromTmEPK2tmb+0x72>
        wire.unlock();
   d6330:	6868      	ldr	r0, [r5, #4]
   d6332:	f002 ff90 	bl	d9256 <_ZN7TwoWire6unlockEv>
}
   d6336:	4620      	mov	r0, r4
   d6338:	b007      	add	sp, #28
   d633a:	bdf0      	pop	{r4, r5, r6, r7, pc}
            _log.error(errorMsg, __LINE__);
   d633c:	f44f 728d 	mov.w	r2, #282	; 0x11a
        _log.error(errorMsg, __LINE__);
   d6340:	4905      	ldr	r1, [pc, #20]	; (d6358 <_ZN6AB180512setRtcFromTmEPK2tmb+0x94>)
   d6342:	4803      	ldr	r0, [pc, #12]	; (d6350 <_ZN6AB180512setRtcFromTmEPK2tmb+0x8c>)
   d6344:	f7ff fb0d 	bl	d5962 <_ZNK5spark6Logger5errorEPKcz>
   d6348:	e7f1      	b.n	d632e <_ZN6AB180512setRtcFromTmEPK2tmb+0x6a>
   d634a:	f44f 728f 	mov.w	r2, #286	; 0x11e
   d634e:	e7f7      	b.n	d6340 <_ZN6AB180512setRtcFromTmEPK2tmb+0x7c>
   d6350:	2003e5b8 	.word	0x2003e5b8
   d6354:	000db691 	.word	0x000db691
   d6358:	000db69f 	.word	0x000db69f

000d635c <_ZN6AB180514setRtcFromTimeExb>:
bool AB1805::setRtcFromTime(time_t time, bool lock) {
   d635c:	b513      	push	{r0, r1, r4, lr}
   d635e:	4604      	mov	r4, r0
    struct tm *tm = gmtime(&time);
   d6360:	4668      	mov	r0, sp
bool AB1805::setRtcFromTime(time_t time, bool lock) {
   d6362:	e9cd 2300 	strd	r2, r3, [sp]
    struct tm *tm = gmtime(&time);
   d6366:	f004 fd13 	bl	dad90 <gmtime>
    return setRtcFromTm(tm, lock);
   d636a:	f89d 2010 	ldrb.w	r2, [sp, #16]
    struct tm *tm = gmtime(&time);
   d636e:	4601      	mov	r1, r0
    return setRtcFromTm(tm, lock);
   d6370:	4620      	mov	r0, r4
   d6372:	f7ff ffa7 	bl	d62c4 <_ZN6AB180512setRtcFromTmEPK2tmb>
}
   d6376:	b002      	add	sp, #8
   d6378:	bd10      	pop	{r4, pc}
	...

000d637c <_ZN6AB18054loopEv>:
void AB1805::loop() {
   d637c:	b5f0      	push	{r4, r5, r6, r7, lr}
    if (!timeSet && Time.isValid() && Particle.timeSyncedLast() != 0) {
   d637e:	7e05      	ldrb	r5, [r0, #24]
void AB1805::loop() {
   d6380:	b089      	sub	sp, #36	; 0x24
   d6382:	4604      	mov	r4, r0
    if (!timeSet && Time.isValid() && Particle.timeSyncedLast() != 0) {
   d6384:	bb75      	cbnz	r5, d63e4 <_ZN6AB18054loopEv+0x68>
   d6386:	f003 fd65 	bl	d9e54 <_ZN9TimeClass7isValidEv>
   d638a:	b358      	cbz	r0, d63e4 <_ZN6AB18054loopEv+0x68>
        tm = 0;
   d638c:	2600      	movs	r6, #0
   d638e:	2700      	movs	r7, #0
        return spark_sync_time_last(nullptr, &tm);
   d6390:	a904      	add	r1, sp, #16
   d6392:	4628      	mov	r0, r5
        tm = 0;
   d6394:	e9cd 6704 	strd	r6, r7, [sp, #16]
        return spark_sync_time_last(nullptr, &tm);
   d6398:	f002 f97c 	bl	d8694 <spark_sync_time_last>
   d639c:	b310      	cbz	r0, d63e4 <_ZN6AB18054loopEv+0x68>
        timeSet = true;
   d639e:	2501      	movs	r5, #1
   d63a0:	7625      	strb	r5, [r4, #24]
        time_t time = Time.now();
   d63a2:	f003 fd74 	bl	d9e8e <_ZN9TimeClass3nowEv>
        setRtcFromTime(time);
   d63a6:	9500      	str	r5, [sp, #0]
        time_t time = Time.now();
   d63a8:	4602      	mov	r2, r0
   d63aa:	17c3      	asrs	r3, r0, #31
        setRtcFromTime(time);
   d63ac:	4620      	mov	r0, r4
        time_t time = Time.now();
   d63ae:	e9cd 2302 	strd	r2, r3, [sp, #8]
        setRtcFromTime(time);
   d63b2:	f7ff ffd3 	bl	d635c <_ZN6AB180514setRtcFromTimeExb>
        getRtcAsTime(time);
   d63b6:	a902      	add	r1, sp, #8
   d63b8:	4620      	mov	r0, r4
        time = 0;
   d63ba:	e9cd 6702 	strd	r6, r7, [sp, #8]
        getRtcAsTime(time);
   d63be:	f7ff feed 	bl	d619c <_ZN6AB180512getRtcAsTimeERx>
        _log.info("set RTC from cloud %s", Time.format(time, TIME_FORMAT_DEFAULT).c_str());
   d63c2:	4b12      	ldr	r3, [pc, #72]	; (d640c <_ZN6AB18054loopEv+0x90>)
   d63c4:	4912      	ldr	r1, [pc, #72]	; (d6410 <_ZN6AB18054loopEv+0x94>)
   d63c6:	681b      	ldr	r3, [r3, #0]
   d63c8:	9300      	str	r3, [sp, #0]
   d63ca:	a804      	add	r0, sp, #16
   d63cc:	e9dd 2302 	ldrd	r2, r3, [sp, #8]
   d63d0:	f003 fcfe 	bl	d9dd0 <_ZN9TimeClass6formatExPKc>
   d63d4:	480f      	ldr	r0, [pc, #60]	; (d6414 <_ZN6AB18054loopEv+0x98>)
   d63d6:	9a04      	ldr	r2, [sp, #16]
   d63d8:	490f      	ldr	r1, [pc, #60]	; (d6418 <_ZN6AB18054loopEv+0x9c>)
   d63da:	f7fd ff76 	bl	d42ca <_ZNK5spark6Logger4infoEPKcz>
   d63de:	a804      	add	r0, sp, #16
   d63e0:	f003 f9b6 	bl	d9750 <_ZN6StringD1Ev>
    if (watchdogUpdatePeriod) {
   d63e4:	6963      	ldr	r3, [r4, #20]
   d63e6:	b173      	cbz	r3, d6406 <_ZN6AB18054loopEv+0x8a>
   d63e8:	f001 fec0 	bl	d816c <HAL_Timer_Get_Milli_Seconds>
        if (millis() - lastWatchdogMillis >= watchdogUpdatePeriod) {
   d63ec:	6923      	ldr	r3, [r4, #16]
   d63ee:	1ac0      	subs	r0, r0, r3
   d63f0:	6963      	ldr	r3, [r4, #20]
   d63f2:	4298      	cmp	r0, r3
   d63f4:	d307      	bcc.n	d6406 <_ZN6AB18054loopEv+0x8a>
   d63f6:	f001 feb9 	bl	d816c <HAL_Timer_Get_Milli_Seconds>
            setWDT();
   d63fa:	f04f 31ff 	mov.w	r1, #4294967295	; 0xffffffff
            lastWatchdogMillis = millis();
   d63fe:	6120      	str	r0, [r4, #16]
            setWDT();
   d6400:	4620      	mov	r0, r4
   d6402:	f7ff fbc3 	bl	d5b8c <_ZN6AB18056setWDTEi>
}
   d6406:	b009      	add	sp, #36	; 0x24
   d6408:	bdf0      	pop	{r4, r5, r6, r7, pc}
   d640a:	bf00      	nop
   d640c:	2003e184 	.word	0x2003e184
   d6410:	2003e650 	.word	0x2003e650
   d6414:	2003e5b8 	.word	0x2003e5b8
   d6418:	000db6ba 	.word	0x000db6ba

000d641c <_GLOBAL__sub_I__ZN6AB18058instanceE>:
        name_(name) {
   d641c:	4b01      	ldr	r3, [pc, #4]	; (d6424 <_GLOBAL__sub_I__ZN6AB18058instanceE+0x8>)
   d641e:	4a02      	ldr	r2, [pc, #8]	; (d6428 <_GLOBAL__sub_I__ZN6AB18058instanceE+0xc>)
   d6420:	601a      	str	r2, [r3, #0]
}
   d6422:	4770      	bx	lr
   d6424:	2003e5b8 	.word	0x2003e5b8
   d6428:	000db6d0 	.word	0x000db6d0

000d642c <_ZN8particle11SPISettingsD1Ev>:
  SPISettings()
  {
  }

  virtual ~SPISettings() {
  }
   d642c:	4770      	bx	lr

000d642e <_ZN8particle11SPISettingsD0Ev>:
  virtual ~SPISettings() {
   d642e:	b510      	push	{r4, lr}
  }
   d6430:	2110      	movs	r1, #16
  virtual ~SPISettings() {
   d6432:	4604      	mov	r4, r0
  }
   d6434:	f003 fff5 	bl	da422 <_ZdlPvj>
   d6438:	4620      	mov	r0, r4
   d643a:	bd10      	pop	{r4, pc}

000d643c <_ZN5Print6printfEPKcz>:
    size_t println(double, int = 2);
    size_t println(const Printable&);
    size_t println(void);
    size_t println(const __FlashStringHelper*);

    size_t printf(const char* format, ...) __attribute__ ((format(printf, 2, 3)))
   d643c:	b40e      	push	{r1, r2, r3}
   d643e:	b503      	push	{r0, r1, lr}
   d6440:	ab03      	add	r3, sp, #12
    {
        va_list args;
        va_start(args, format);
        auto r = this->vprintf(false, format, args);
   d6442:	2100      	movs	r1, #0
    size_t printf(const char* format, ...) __attribute__ ((format(printf, 2, 3)))
   d6444:	f853 2b04 	ldr.w	r2, [r3], #4
        va_start(args, format);
   d6448:	9301      	str	r3, [sp, #4]
        auto r = this->vprintf(false, format, args);
   d644a:	f003 f88c 	bl	d9566 <_ZN5Print7vprintfEbPKcSt9__va_list>
        va_end(args);
        return r;
    }
   d644e:	b002      	add	sp, #8
   d6450:	f85d eb04 	ldr.w	lr, [sp], #4
   d6454:	b003      	add	sp, #12
   d6456:	4770      	bx	lr

000d6458 <_ZNK8particle11SPISettings7printToER5Print>:
  bool operator!=(const SPISettings& other) const
  {
    return !(other == *this);
  }

  virtual size_t printTo(Print& p) const
   d6458:	b573      	push	{r0, r1, r4, r5, r6, lr}
   d645a:	4604      	mov	r4, r0
   d645c:	4608      	mov	r0, r1
  {
    if (default_ && clock_ == 0)
   d645e:	7922      	ldrb	r2, [r4, #4]
   d6460:	68a3      	ldr	r3, [r4, #8]
   d6462:	b132      	cbz	r2, d6472 <_ZNK8particle11SPISettings7printToER5Print+0x1a>
   d6464:	b9a3      	cbnz	r3, d6490 <_ZNK8particle11SPISettings7printToER5Print+0x38>
      return p.print("<SPISettings default>");
   d6466:	490b      	ldr	r1, [pc, #44]	; (d6494 <_ZNK8particle11SPISettings7printToER5Print+0x3c>)
    else
      return p.printf("<SPISettings %s%u %s MODE%u>", default_ ? "default " : "", (unsigned int)clock_,
          bitOrder_ == MSBFIRST ? "MSB" : "LSB", (unsigned int)dataMode_);
  }
   d6468:	b002      	add	sp, #8
   d646a:	e8bd 4070 	ldmia.w	sp!, {r4, r5, r6, lr}
      return p.print("<SPISettings default>");
   d646e:	f003 b849 	b.w	d9504 <_ZN5Print5printEPKc>
      return p.printf("<SPISettings %s%u %s MODE%u>", default_ ? "default " : "", (unsigned int)clock_,
   d6472:	4a09      	ldr	r2, [pc, #36]	; (d6498 <_ZNK8particle11SPISettings7printToER5Print+0x40>)
   d6474:	7b26      	ldrb	r6, [r4, #12]
   d6476:	4d09      	ldr	r5, [pc, #36]	; (d649c <_ZNK8particle11SPISettings7printToER5Print+0x44>)
   d6478:	4909      	ldr	r1, [pc, #36]	; (d64a0 <_ZNK8particle11SPISettings7printToER5Print+0x48>)
   d647a:	7b64      	ldrb	r4, [r4, #13]
   d647c:	2e01      	cmp	r6, #1
   d647e:	bf18      	it	ne
   d6480:	4629      	movne	r1, r5
   d6482:	e9cd 1400 	strd	r1, r4, [sp]
   d6486:	4907      	ldr	r1, [pc, #28]	; (d64a4 <_ZNK8particle11SPISettings7printToER5Print+0x4c>)
   d6488:	f7ff ffd8 	bl	d643c <_ZN5Print6printfEPKcz>
  }
   d648c:	b002      	add	sp, #8
   d648e:	bd70      	pop	{r4, r5, r6, pc}
      return p.printf("<SPISettings %s%u %s MODE%u>", default_ ? "default " : "", (unsigned int)clock_,
   d6490:	4a05      	ldr	r2, [pc, #20]	; (d64a8 <_ZNK8particle11SPISettings7printToER5Print+0x50>)
   d6492:	e7ef      	b.n	d6474 <_ZNK8particle11SPISettings7printToER5Print+0x1c>
   d6494:	000db705 	.word	0x000db705
   d6498:	000db230 	.word	0x000db230
   d649c:	000db701 	.word	0x000db701
   d64a0:	000db6fd 	.word	0x000db6fd
   d64a4:	000db71b 	.word	0x000db71b
   d64a8:	000db6f4 	.word	0x000db6f4

000d64ac <_ZNSt14_Function_baseD1Ev>:
	{ __functor._M_access<_Functor*>() = new _Functor(std::move(__f)); }
      };

    _Function_base() : _M_manager(nullptr) { }

    ~_Function_base()
   d64ac:	b510      	push	{r4, lr}
    {
      if (_M_manager)
   d64ae:	6883      	ldr	r3, [r0, #8]
    ~_Function_base()
   d64b0:	4604      	mov	r4, r0
      if (_M_manager)
   d64b2:	b113      	cbz	r3, d64ba <_ZNSt14_Function_baseD1Ev+0xe>
	_M_manager(_M_functor, _M_functor, __destroy_functor);
   d64b4:	2203      	movs	r2, #3
   d64b6:	4601      	mov	r1, r0
   d64b8:	4798      	blx	r3
    }
   d64ba:	4620      	mov	r0, r4
   d64bc:	bd10      	pop	{r4, pc}

000d64be <_ZN7TwoWire5writeEi>:
  bool unlock();

  inline size_t write(unsigned long n) { return write((uint8_t)n); }
  inline size_t write(long n) { return write((uint8_t)n); }
  inline size_t write(unsigned int n) { return write((uint8_t)n); }
  inline size_t write(int n) { return write((uint8_t)n); }
   d64be:	6803      	ldr	r3, [r0, #0]
   d64c0:	b2c9      	uxtb	r1, r1
   d64c2:	689b      	ldr	r3, [r3, #8]
   d64c4:	4718      	bx	r3
	...

000d64c8 <_ZN16AssetTrackerBaseC1Ev>:
}

//
//
//
AssetTrackerBase::AssetTrackerBase() : LegacyAdapter(gps) {
   d64c8:	b538      	push	{r3, r4, r5, lr}
   d64ca:	f100 0508 	add.w	r5, r0, #8
   d64ce:	4604      	mov	r4, r0
   d64d0:	4629      	mov	r1, r5
   d64d2:	f000 fa59 	bl	d6988 <_ZN13LegacyAdapterC1ER11TinyGPSPlus>
   d64d6:	4b12      	ldr	r3, [pc, #72]	; (d6520 <_ZN16AssetTrackerBaseC1Ev+0x58>)
   d64d8:	6023      	str	r3, [r4, #0]
   d64da:	4628      	mov	r0, r5
   d64dc:	2500      	movs	r5, #0
   d64de:	f000 fa96 	bl	d6a0e <_ZN11TinyGPSPlusC1Ev>
   d64e2:	f884 51a8 	strb.w	r5, [r4, #424]	; 0x1a8
   d64e6:	f003 ff6f 	bl	da3c8 <_Z19__fetch_global_Wirev>
   d64ea:	2342      	movs	r3, #66	; 0x42
   d64ec:	f884 31b0 	strb.w	r3, [r4, #432]	; 0x1b0
   d64f0:	f8c4 01ac 	str.w	r0, [r4, #428]	; 0x1ac
   d64f4:	f003 fd7c 	bl	d9ff0 <_Z22__fetch_global_Serial1v>
   d64f8:	23ff      	movs	r3, #255	; 0xff
   d64fa:	f8a4 31e4 	strh.w	r3, [r4, #484]	; 0x1e4
	instance = this;
   d64fe:	4b09      	ldr	r3, [pc, #36]	; (d6524 <_ZN16AssetTrackerBaseC1Ev+0x5c>)
    _Function_base() : _M_manager(nullptr) { }
   d6500:	f8c4 51c4 	str.w	r5, [r4, #452]	; 0x1c4
   d6504:	601c      	str	r4, [r3, #0]
AssetTrackerBase::AssetTrackerBase() : LegacyAdapter(gps) {
   d6506:	e9c4 056d 	strd	r0, r5, [r4, #436]	; 0x1b4
	pointer _M_start;
	pointer _M_finish;
	pointer _M_end_of_storage;

	_Vector_impl_data() _GLIBCXX_NOEXCEPT
	: _M_start(), _M_finish(), _M_end_of_storage()
   d650a:	e9c4 5573 	strd	r5, r5, [r4, #460]	; 0x1cc
   d650e:	e9c4 5575 	strd	r5, r5, [r4, #468]	; 0x1d4
   d6512:	e9c4 5577 	strd	r5, r5, [r4, #476]	; 0x1dc
   d6516:	f8c4 51e8 	str.w	r5, [r4, #488]	; 0x1e8
}
   d651a:	4620      	mov	r0, r4
   d651c:	bd38      	pop	{r3, r4, r5, pc}
   d651e:	bf00      	nop
   d6520:	000db784 	.word	0x000db784
   d6524:	2003e5cc 	.word	0x2003e5cc

000d6528 <_ZN16AssetTrackerBase17startThreadedModeEv>:
		}
	}

}

void AssetTrackerBase::startThreadedMode() {
   d6528:	b5f7      	push	{r0, r1, r2, r4, r5, r6, r7, lr}
	if (thread == NULL) {
   d652a:	f8d0 61b8 	ldr.w	r6, [r0, #440]	; 0x1b8
void AssetTrackerBase::startThreadedMode() {
   d652e:	4607      	mov	r7, r0
	if (thread == NULL) {
   d6530:	2e00      	cmp	r6, #0
   d6532:	d139      	bne.n	d65a8 <_ZN16AssetTrackerBase17startThreadedModeEv+0x80>
		thread = new Thread("AssetTracker", threadFunctionStatic, this, OS_THREAD_PRIORITY_DEFAULT, 2048);
   d6534:	2004      	movs	r0, #4
   d6536:	f7fd fdae 	bl	d4096 <_Znwj>
   d653a:	4605      	mov	r5, r0
   d653c:	b390      	cbz	r0, d65a4 <_ZN16AssetTrackerBase17startThreadedModeEv+0x7c>
    {
    }

    Thread(const char* name, os_thread_fn_t function, void* function_param=NULL,
            os_thread_prio_t priority=OS_THREAD_PRIORITY_DEFAULT, size_t stack_size=OS_THREAD_STACK_SIZE_DEFAULT)
        : d_(new(std::nothrow) Data)
   d653e:	491b      	ldr	r1, [pc, #108]	; (d65ac <_ZN16AssetTrackerBase17startThreadedModeEv+0x84>)
   d6540:	2014      	movs	r0, #20
   d6542:	f003 ff70 	bl	da426 <_ZnwjRKSt9nothrow_t>
   d6546:	b128      	cbz	r0, d6554 <_ZN16AssetTrackerBase17startThreadedModeEv+0x2c>
            exited(false) {
   d6548:	e9c0 6600 	strd	r6, r6, [r0]
   d654c:	e9c0 6602 	strd	r6, r6, [r0, #8]
   d6550:	7406      	strb	r6, [r0, #16]
   d6552:	7446      	strb	r6, [r0, #17]
      static_assert( !is_rvalue_reference<_Dp>::value,
		     "unique_ptr's deleter type must be a function object type"
		     " or an lvalue reference type" );

      __uniq_ptr_impl() = default;
      __uniq_ptr_impl(pointer __p) : _M_t() { _M_ptr() = __p; }
   d6554:	6028      	str	r0, [r5, #0]
    {
        if (!d_) {
   d6556:	b1a0      	cbz	r0, d6582 <_ZN16AssetTrackerBase17startThreadedModeEv+0x5a>
            goto error;
        }
        d_->func = function;
   d6558:	4b15      	ldr	r3, [pc, #84]	; (d65b0 <_ZN16AssetTrackerBase17startThreadedModeEv+0x88>)
        d_->func_param = function_param;
        if (os_thread_create(&d_->handle, name, priority, &Thread::run, d_.get(), stack_size) != 0) {
   d655a:	4916      	ldr	r1, [pc, #88]	; (d65b4 <_ZN16AssetTrackerBase17startThreadedModeEv+0x8c>)
        d_->func_param = function_param;
   d655c:	e9c0 3702 	strd	r3, r7, [r0, #8]
        if (os_thread_create(&d_->handle, name, priority, &Thread::run, d_.get(), stack_size) != 0) {
   d6560:	f44f 6300 	mov.w	r3, #2048	; 0x800
   d6564:	e9cd 0300 	strd	r0, r3, [sp]
   d6568:	2202      	movs	r2, #2
   d656a:	4b13      	ldr	r3, [pc, #76]	; (d65b8 <_ZN16AssetTrackerBase17startThreadedModeEv+0x90>)
   d656c:	3004      	adds	r0, #4
   d656e:	f001 fd85 	bl	d807c <os_thread_create>
   d6572:	b930      	cbnz	r0, d6582 <_ZN16AssetTrackerBase17startThreadedModeEv+0x5a>
      template<typename _Del>
      __uniq_ptr_impl(pointer __p, _Del&& __d)
	: _M_t(__p, std::forward<_Del>(__d)) { }

      pointer&   _M_ptr() { return std::get<0>(_M_t); }
      pointer    _M_ptr() const { return std::get<0>(_M_t); }
   d6574:	682b      	ldr	r3, [r5, #0]
            goto error;
        }
        while (!d_->started) {
   d6576:	7c1b      	ldrb	r3, [r3, #16]
   d6578:	b9a3      	cbnz	r3, d65a4 <_ZN16AssetTrackerBase17startThreadedModeEv+0x7c>
            // FIXME: This used to be os_thread_yield() but for some unknown reasons sometimes
            // it doesn't let the new thread to run.
            HAL_Delay_Milliseconds(1);
   d657a:	2001      	movs	r0, #1
   d657c:	f001 fde6 	bl	d814c <HAL_Delay_Milliseconds>
        while (!d_->started) {
   d6580:	e7f8      	b.n	d6574 <_ZN16AssetTrackerBase17startThreadedModeEv+0x4c>
#endif
    {
      // concept requirements
      __glibcxx_function_requires(_SGIAssignableConcept<_Tp>)

      _Tp __tmp = _GLIBCXX_MOVE(__a);
   d6582:	682c      	ldr	r4, [r5, #0]
      __a = _GLIBCXX_MOVE(__b);
   d6584:	2300      	movs	r3, #0
   d6586:	602b      	str	r3, [r5, #0]
      {
	static_assert(__is_invocable<deleter_type&, pointer>::value,
		      "unique_ptr's deleter must be invocable with a pointer");
	using std::swap;
	swap(_M_t._M_ptr(), __p);
	if (__p != pointer())
   d6588:	b164      	cbz	r4, d65a4 <_ZN16AssetTrackerBase17startThreadedModeEv+0x7c>
	if (__ptr != nullptr)
   d658a:	6826      	ldr	r6, [r4, #0]
   d658c:	b136      	cbz	r6, d659c <_ZN16AssetTrackerBase17startThreadedModeEv+0x74>
   *  @ingroup functors
   *
   *  Polymorphic function wrapper.
   */
  template<typename _Res, typename... _ArgTypes>
    class function<_Res(_ArgTypes...)>
   d658e:	4630      	mov	r0, r6
   d6590:	f7ff ff8c 	bl	d64ac <_ZNSt14_Function_baseD1Ev>
	delete __ptr;
   d6594:	2110      	movs	r1, #16
   d6596:	4630      	mov	r0, r6
   d6598:	f003 ff43 	bl	da422 <_ZdlPvj>
   d659c:	2114      	movs	r1, #20
   d659e:	4620      	mov	r0, r4
   d65a0:	f003 ff3f 	bl	da422 <_ZdlPvj>
   d65a4:	f8c7 51b8 	str.w	r5, [r7, #440]	; 0x1b8
	}
}
   d65a8:	b003      	add	sp, #12
   d65aa:	bdf0      	pop	{r4, r5, r6, r7, pc}
   d65ac:	000dbb40 	.word	0x000dbb40
   d65b0:	000d6973 	.word	0x000d6973
   d65b4:	000db738 	.word	0x000db738
   d65b8:	000d676f 	.word	0x000d676f

000d65bc <_ZN16AssetTrackerBase7withI2CER7TwoWireh>:
	useWire = false;
	serialPort = port;
	return *this;
}

AssetTrackerBase &AssetTrackerBase::withI2C(TwoWire &wire, uint8_t addr) {
   d65bc:	b510      	push	{r4, lr}
	useWire = true;
   d65be:	2301      	movs	r3, #1
   d65c0:	f880 31a8 	strb.w	r3, [r0, #424]	; 0x1a8
	this->wire = wire;
   d65c4:	f8d0 31ac 	ldr.w	r3, [r0, #428]	; 0x1ac
AssetTrackerBase &AssetTrackerBase::withI2C(TwoWire &wire, uint8_t addr) {
   d65c8:	4604      	mov	r4, r0
#define   getFloat(skipChar)  parseFloat(skipChar)
#define   getString( pre_string, post_string, buffer, length)
readBytesBetween( pre_string, terminator, buffer, length)
*/

class Stream : public Print
   d65ca:	6848      	ldr	r0, [r1, #4]
class Print
   d65cc:	6058      	str	r0, [r3, #4]
   d65ce:	6888      	ldr	r0, [r1, #8]
   d65d0:	6098      	str	r0, [r3, #8]
   d65d2:	68c8      	ldr	r0, [r1, #12]
   d65d4:	60d8      	str	r0, [r3, #12]
class TwoWire : public Stream
   d65d6:	7c08      	ldrb	r0, [r1, #16]
   d65d8:	7418      	strb	r0, [r3, #16]
	this->wireAddr = addr;

	wire.begin();
   d65da:	4608      	mov	r0, r1
	this->wireAddr = addr;
   d65dc:	f884 21b0 	strb.w	r2, [r4, #432]	; 0x1b0
	wire.begin();
   d65e0:	f002 fdf6 	bl	d91d0 <_ZN7TwoWire5beginEv>

	return *this;
}
   d65e4:	4620      	mov	r0, r4
   d65e6:	bd10      	pop	{r4, pc}

000d65e8 <_ZN16AssetTrackerBase22wireReadBytesAvailableEv>:


uint16_t AssetTrackerBase::wireReadBytesAvailable() {
   d65e8:	b538      	push	{r3, r4, r5, lr}
   d65ea:	4604      	mov	r4, r0
	uint8_t res;

	wire.beginTransmission(wireAddr);
   d65ec:	f890 11b0 	ldrb.w	r1, [r0, #432]	; 0x1b0
   d65f0:	f8d0 01ac 	ldr.w	r0, [r0, #428]	; 0x1ac
   d65f4:	f002 fe1b 	bl	d922e <_ZN7TwoWire17beginTransmissionEh>
	wire.write(0xfd);
   d65f8:	21fd      	movs	r1, #253	; 0xfd
   d65fa:	f8d4 01ac 	ldr.w	r0, [r4, #428]	; 0x1ac
   d65fe:	f7ff ff5e 	bl	d64be <_ZN7TwoWire5writeEi>
	res = wire.endTransmission(false);
   d6602:	f8d4 01ac 	ldr.w	r0, [r4, #428]	; 0x1ac
   d6606:	2100      	movs	r1, #0
   d6608:	f002 fe18 	bl	d923c <_ZN7TwoWire15endTransmissionEh>
	if (res != 0) {
   d660c:	b108      	cbz	r0, d6612 <_ZN16AssetTrackerBase22wireReadBytesAvailableEv+0x2a>
		// Log.info("wireReadBytesAvailable I2C error %u", res);
		return 0;
   d660e:	2000      	movs	r0, #0

	uint16_t available = wire.read() << 8;
	available |= wire.read();

	return available;
}
   d6610:	bd38      	pop	{r3, r4, r5, pc}
	res = wire.requestFrom(wireAddr, (uint8_t) 2, (uint8_t) true);
   d6612:	f894 11b0 	ldrb.w	r1, [r4, #432]	; 0x1b0
   d6616:	f8d4 01ac 	ldr.w	r0, [r4, #428]	; 0x1ac
   d661a:	2301      	movs	r3, #1
   d661c:	2202      	movs	r2, #2
   d661e:	f002 fdf4 	bl	d920a <_ZN7TwoWire11requestFromEhjh>
	if (res != 2) {
   d6622:	b2c0      	uxtb	r0, r0
   d6624:	2802      	cmp	r0, #2
   d6626:	d1f2      	bne.n	d660e <_ZN16AssetTrackerBase22wireReadBytesAvailableEv+0x26>
	uint16_t available = wire.read() << 8;
   d6628:	f8d4 01ac 	ldr.w	r0, [r4, #428]	; 0x1ac
   d662c:	6803      	ldr	r3, [r0, #0]
   d662e:	695b      	ldr	r3, [r3, #20]
   d6630:	4798      	blx	r3
   d6632:	4605      	mov	r5, r0
	available |= wire.read();
   d6634:	f8d4 01ac 	ldr.w	r0, [r4, #428]	; 0x1ac
   d6638:	6803      	ldr	r3, [r0, #0]
   d663a:	695b      	ldr	r3, [r3, #20]
   d663c:	4798      	blx	r3
   d663e:	ea40 2005 	orr.w	r0, r0, r5, lsl #8
   d6642:	b280      	uxth	r0, r0
	return available;
   d6644:	e7e4      	b.n	d6610 <_ZN16AssetTrackerBase22wireReadBytesAvailableEv+0x28>

000d6646 <_ZN16AssetTrackerBase13wireReadBytesEPhj>:

int AssetTrackerBase::wireReadBytes(uint8_t *buf, size_t len) {
   d6646:	e92d 43f8 	stmdb	sp!, {r3, r4, r5, r6, r7, r8, r9, lr}
   d664a:	4607      	mov	r7, r0
   d664c:	4688      	mov	r8, r1
	uint8_t res;

	// Log.info("wireReadBytes len=%u", len);

	wire.beginTransmission(wireAddr);
   d664e:	f890 11b0 	ldrb.w	r1, [r0, #432]	; 0x1b0
   d6652:	f8d0 01ac 	ldr.w	r0, [r0, #428]	; 0x1ac
int AssetTrackerBase::wireReadBytes(uint8_t *buf, size_t len) {
   d6656:	4615      	mov	r5, r2
	wire.beginTransmission(wireAddr);
   d6658:	f002 fde9 	bl	d922e <_ZN7TwoWire17beginTransmissionEh>
	wire.write(0xff);
   d665c:	21ff      	movs	r1, #255	; 0xff
   d665e:	f8d7 01ac 	ldr.w	r0, [r7, #428]	; 0x1ac
   d6662:	f7ff ff2c 	bl	d64be <_ZN7TwoWire5writeEi>
	res = wire.endTransmission(false);
   d6666:	f8d7 01ac 	ldr.w	r0, [r7, #428]	; 0x1ac
   d666a:	2100      	movs	r1, #0
   d666c:	f002 fde6 	bl	d923c <_ZN7TwoWire15endTransmissionEh>
	if (res != 0) {
   d6670:	b118      	cbz	r0, d667a <_ZN16AssetTrackerBase13wireReadBytesEPhj+0x34>
		// Log.info("wireReadBytes I2C error %u", res);
		return -1;
   d6672:	f04f 30ff 	mov.w	r0, #4294967295	; 0xffffffff
			buf[offset + ii] = wire.read();
		}
		offset += reqLen;
 	}
	return len;
}
   d6676:	e8bd 83f8 	ldmia.w	sp!, {r3, r4, r5, r6, r7, r8, r9, pc}
	size_t offset = 0;
   d667a:	4604      	mov	r4, r0
	while(offset < len) {
   d667c:	42a5      	cmp	r5, r4
   d667e:	d920      	bls.n	d66c2 <_ZN16AssetTrackerBase13wireReadBytesEPhj+0x7c>
		size_t reqLen = (len - offset);
   d6680:	1b2e      	subs	r6, r5, r4
		if (reqLen > 32) {
   d6682:	2e20      	cmp	r6, #32
   d6684:	bf28      	it	cs
   d6686:	2620      	movcs	r6, #32
		res = wire.requestFrom(wireAddr, (uint8_t) reqLen, (uint8_t) ((offset + reqLen) == len));
   d6688:	eb04 0906 	add.w	r9, r4, r6
   d668c:	eba5 0209 	sub.w	r2, r5, r9
   d6690:	4253      	negs	r3, r2
   d6692:	4153      	adcs	r3, r2
   d6694:	f897 11b0 	ldrb.w	r1, [r7, #432]	; 0x1b0
   d6698:	f8d7 01ac 	ldr.w	r0, [r7, #428]	; 0x1ac
   d669c:	4632      	mov	r2, r6
   d669e:	f002 fdb4 	bl	d920a <_ZN7TwoWire11requestFromEhjh>
		if (res != reqLen) {
   d66a2:	b2c0      	uxtb	r0, r0
   d66a4:	4286      	cmp	r6, r0
   d66a6:	d1e4      	bne.n	d6672 <_ZN16AssetTrackerBase13wireReadBytesEPhj+0x2c>
   d66a8:	4444      	add	r4, r8
   d66aa:	4426      	add	r6, r4
			buf[offset + ii] = wire.read();
   d66ac:	f8d7 01ac 	ldr.w	r0, [r7, #428]	; 0x1ac
   d66b0:	6803      	ldr	r3, [r0, #0]
   d66b2:	695b      	ldr	r3, [r3, #20]
   d66b4:	4798      	blx	r3
   d66b6:	f804 0b01 	strb.w	r0, [r4], #1
		for(size_t ii = 0; ii < reqLen; ii++) {
   d66ba:	42a6      	cmp	r6, r4
   d66bc:	d1f6      	bne.n	d66ac <_ZN16AssetTrackerBase13wireReadBytesEPhj+0x66>
		offset += reqLen;
   d66be:	464c      	mov	r4, r9
   d66c0:	e7dc      	b.n	d667c <_ZN16AssetTrackerBase13wireReadBytesEPhj+0x36>
	return len;
   d66c2:	4628      	mov	r0, r5
   d66c4:	e7d7      	b.n	d6676 <_ZN16AssetTrackerBase13wireReadBytesEPhj+0x30>
	...

000d66c8 <_ZN12AssetTrackerC1Ev>:


//
//
//
AssetTracker::AssetTracker() : AssetTrackerLIS3DH(&accel), accel(SPI, A2, WKP) {
   d66c8:	b537      	push	{r0, r1, r2, r4, r5, lr}
   d66ca:	4604      	mov	r4, r0
   d66cc:	f7ff fefc 	bl	d64c8 <_ZN16AssetTrackerBaseC1Ev>
   d66d0:	4b1c      	ldr	r3, [pc, #112]	; (d6744 <_ZN12AssetTrackerC1Ev+0x7c>)
   d66d2:	6023      	str	r3, [r4, #0]
   d66d4:	f504 70fa 	add.w	r0, r4, #500	; 0x1f4
   d66d8:	3310      	adds	r3, #16
   d66da:	f8c4 31ec 	str.w	r3, [r4, #492]	; 0x1ec

#ifdef SYSTEM_VERSION_v151RC1
	// In 1.5.0-rc.1, SPI interfaces are handled differently. You can still pass in SPI, SPI1, etc.
	// but the code to handle it varies
	LIS3DHSPI(::particle::SpiProxy<HAL_SPI_INTERFACE1> &spiProxy, int ss = A2, int intPin = -1) : 
		LIS3DH(intPin), spi(spiProxy.instance()), ss(ss), spiSettings(10 * MHZ, MSBFIRST, SPI_MODE0){};
   d66de:	2108      	movs	r1, #8
AssetTrackerLIS3DH::AssetTrackerLIS3DH(LIS3DH *accel) : accel(accel) {
   d66e0:	f8c4 01f0 	str.w	r0, [r4, #496]	; 0x1f0
   d66e4:	f000 fe1c 	bl	d7320 <_ZN6LIS3DHC1Ei>

template <hal_spi_interface_t Interface>
class SpiProxy {
public:
    static SPIClass& instance() {
        static SPIClass instance(Interface);
   d66e8:	4d17      	ldr	r5, [pc, #92]	; (d6748 <_ZN12AssetTrackerC1Ev+0x80>)
   d66ea:	4b18      	ldr	r3, [pc, #96]	; (d674c <_ZN12AssetTrackerC1Ev+0x84>)
   d66ec:	f8c4 31f4 	str.w	r3, [r4, #500]	; 0x1f4
   d66f0:	7829      	ldrb	r1, [r5, #0]
   d66f2:	f3bf 8f5b 	dmb	ish
   d66f6:	f011 0101 	ands.w	r1, r1, #1
   d66fa:	d10b      	bne.n	d6714 <_ZN12AssetTrackerC1Ev+0x4c>
   d66fc:	4628      	mov	r0, r5
   d66fe:	9101      	str	r1, [sp, #4]
   d6700:	f7fd fcda 	bl	d40b8 <__cxa_guard_acquire>
   d6704:	9901      	ldr	r1, [sp, #4]
   d6706:	b128      	cbz	r0, d6714 <_ZN12AssetTrackerC1Ev+0x4c>
   d6708:	4811      	ldr	r0, [pc, #68]	; (d6750 <_ZN12AssetTrackerC1Ev+0x88>)
   d670a:	f002 ff77 	bl	d95fc <_ZN8SPIClassC1E19hal_spi_interface_t>
   d670e:	4628      	mov	r0, r5
   d6710:	f7fd fcd7 	bl	d40c2 <__cxa_guard_release>
   d6714:	4b0e      	ldr	r3, [pc, #56]	; (d6750 <_ZN12AssetTrackerC1Ev+0x88>)
   d6716:	f8c4 3200 	str.w	r3, [r4, #512]	; 0x200
   d671a:	2311      	movs	r3, #17
   d671c:	f8c4 3204 	str.w	r3, [r4, #516]	; 0x204
   d6720:	2300      	movs	r3, #0
      dataMode_{dataMode}
   d6722:	4a0c      	ldr	r2, [pc, #48]	; (d6754 <_ZN12AssetTrackerC1Ev+0x8c>)
   d6724:	f884 3208 	strb.w	r3, [r4, #520]	; 0x208
   d6728:	f884 3210 	strb.w	r3, [r4, #528]	; 0x210
   d672c:	4b0a      	ldr	r3, [pc, #40]	; (d6758 <_ZN12AssetTrackerC1Ev+0x90>)
   d672e:	f8c4 3214 	str.w	r3, [r4, #532]	; 0x214
}
   d6732:	4620      	mov	r0, r4
   d6734:	2301      	movs	r3, #1
   d6736:	f8c4 220c 	str.w	r2, [r4, #524]	; 0x20c
   d673a:	f8a4 3218 	strh.w	r3, [r4, #536]	; 0x218
   d673e:	b003      	add	sp, #12
   d6740:	bd30      	pop	{r4, r5, pc}
   d6742:	bf00      	nop
   d6744:	000db764 	.word	0x000db764
   d6748:	2003e5c0 	.word	0x2003e5c0
   d674c:	000db7e4 	.word	0x000db7e4
   d6750:	2003e5c4 	.word	0x2003e5c4
   d6754:	000db750 	.word	0x000db750
   d6758:	00989680 	.word	0x00989680

000d675c <_ZNKSt8functionIFvvEEclEv>:
  template<typename _Res, typename... _ArgTypes>
    _Res
    function<_Res(_ArgTypes...)>::
    operator()(_ArgTypes... __args) const
    {
      if (_M_empty())
   d675c:	6882      	ldr	r2, [r0, #8]
    function<_Res(_ArgTypes...)>::
   d675e:	b510      	push	{r4, lr}
      if (_M_empty())
   d6760:	b90a      	cbnz	r2, d6766 <_ZNKSt8functionIFvvEEclEv+0xa>
	__throw_bad_function_call();
   d6762:	f003 fe64 	bl	da42e <_ZSt25__throw_bad_function_callv>
      return _M_invoker(_M_functor, std::forward<_ArgTypes>(__args)...);
    }
   d6766:	e8bd 4010 	ldmia.w	sp!, {r4, lr}
      return _M_invoker(_M_functor, std::forward<_ArgTypes>(__args)...);
   d676a:	68c3      	ldr	r3, [r0, #12]
   d676c:	4718      	bx	r3

000d676e <_ZN6Thread3runEPv>:
        return *this;
    }

private:

    static os_thread_return_t run(void* param) {
   d676e:	b510      	push	{r4, lr}
        Data* th = (Data*)param;
        th->started = true;
   d6770:	2301      	movs	r3, #1
   d6772:	7403      	strb	r3, [r0, #16]
        if (th->func) {
   d6774:	6883      	ldr	r3, [r0, #8]
    static os_thread_return_t run(void* param) {
   d6776:	4604      	mov	r4, r0
        if (th->func) {
   d6778:	b143      	cbz	r3, d678c <_ZN6Thread3runEPv+0x1e>
            (*(th->func))(th->func_param);
   d677a:	68c0      	ldr	r0, [r0, #12]
   d677c:	4798      	blx	r3
        } else if (th->wrapper) {
            (*(th->wrapper))();
        }
        th->exited = true;
   d677e:	2301      	movs	r3, #1
   d6780:	7463      	strb	r3, [r4, #17]
        os_thread_exit(nullptr);
   d6782:	2000      	movs	r0, #0
    }
   d6784:	e8bd 4010 	ldmia.w	sp!, {r4, lr}
        os_thread_exit(nullptr);
   d6788:	f001 bcc0 	b.w	d810c <os_thread_exit>
      pointer    _M_ptr() const { return std::get<0>(_M_t); }
   d678c:	6800      	ldr	r0, [r0, #0]
        } else if (th->wrapper) {
   d678e:	2800      	cmp	r0, #0
   d6790:	d0f5      	beq.n	d677e <_ZN6Thread3runEPv+0x10>
            (*(th->wrapper))();
   d6792:	f7ff ffe3 	bl	d675c <_ZNKSt8functionIFvvEEclEv>
   d6796:	e7f2      	b.n	d677e <_ZN6Thread3runEPv+0x10>

000d6798 <_ZNSt6vectorISt8functionIFvvEESaIS2_EED1Ev>:
       *  The dtor only erases the elements, and note that if the
       *  elements themselves are pointers, the pointed-to memory is
       *  not touched in any way.  Managing the pointer is the user's
       *  responsibility.
       */
      ~vector() _GLIBCXX_NOEXCEPT
   d6798:	b570      	push	{r4, r5, r6, lr}
      {
	std::_Destroy(this->_M_impl._M_start, this->_M_impl._M_finish,
   d679a:	e9d0 5600 	ldrd	r5, r6, [r0]
      ~vector() _GLIBCXX_NOEXCEPT
   d679e:	4604      	mov	r4, r0
    {
      template<typename _ForwardIterator>
        static void
        __destroy(_ForwardIterator __first, _ForwardIterator __last)
	{
	  for (; __first != __last; ++__first)
   d67a0:	42ae      	cmp	r6, r5
   d67a2:	d004      	beq.n	d67ae <_ZNSt6vectorISt8functionIFvvEESaIS2_EED1Ev+0x16>
    class function<_Res(_ArgTypes...)>
   d67a4:	4628      	mov	r0, r5
   d67a6:	f7ff fe81 	bl	d64ac <_ZNSt14_Function_baseD1Ev>
   d67aa:	3510      	adds	r5, #16
   d67ac:	e7f8      	b.n	d67a0 <_ZNSt6vectorISt8functionIFvvEESaIS2_EED1Ev+0x8>
	_M_deallocate(_M_impl._M_start,
   d67ae:	6820      	ldr	r0, [r4, #0]
	if (__p)
   d67b0:	b108      	cbz	r0, d67b6 <_ZNSt6vectorISt8functionIFvvEESaIS2_EED1Ev+0x1e>
	  {
	    ::operator delete(__p, std::align_val_t(alignof(_Tp)));
	    return;
	  }
#endif
	::operator delete(__p);
   d67b2:	f7fd fc74 	bl	d409e <_ZdlPv>
		      _M_get_Tp_allocator());
	_GLIBCXX_ASAN_ANNOTATE_BEFORE_DEALLOC;
      }
   d67b6:	4620      	mov	r0, r4
   d67b8:	bd70      	pop	{r4, r5, r6, pc}
	...

000d67bc <_ZN16AssetTrackerBaseD1Ev>:
AssetTrackerBase::~AssetTrackerBase() {
   d67bc:	b510      	push	{r4, lr}
   d67be:	4b0e      	ldr	r3, [pc, #56]	; (d67f8 <_ZN16AssetTrackerBaseD1Ev+0x3c>)
   d67c0:	6003      	str	r3, [r0, #0]
   d67c2:	4604      	mov	r4, r0
	if (mutex) {
   d67c4:	f8d0 01e8 	ldr.w	r0, [r0, #488]	; 0x1e8
   d67c8:	b120      	cbz	r0, d67d4 <_ZN16AssetTrackerBaseD1Ev+0x18>
		os_mutex_destroy(mutex);
   d67ca:	f001 fc77 	bl	d80bc <os_mutex_destroy>
		mutex = 0;
   d67ce:	2300      	movs	r3, #0
   d67d0:	f8c4 31e8 	str.w	r3, [r4, #488]	; 0x1e8
AssetTrackerBase::~AssetTrackerBase() {
   d67d4:	f504 70ec 	add.w	r0, r4, #472	; 0x1d8
   d67d8:	f7ff ffde 	bl	d6798 <_ZNSt6vectorISt8functionIFvvEESaIS2_EED1Ev>
   d67dc:	f504 70e6 	add.w	r0, r4, #460	; 0x1cc
   d67e0:	f7ff ffda 	bl	d6798 <_ZNSt6vectorISt8functionIFvvEESaIS2_EED1Ev>
   d67e4:	f504 70de 	add.w	r0, r4, #444	; 0x1bc
   d67e8:	f7ff fe60 	bl	d64ac <_ZNSt14_Function_baseD1Ev>
   d67ec:	4620      	mov	r0, r4
   d67ee:	f000 f8c3 	bl	d6978 <_ZN13LegacyAdapterD1Ev>
}
   d67f2:	4620      	mov	r0, r4
   d67f4:	bd10      	pop	{r4, pc}
   d67f6:	bf00      	nop
   d67f8:	000db784 	.word	0x000db784

000d67fc <_ZN16AssetTrackerBaseD0Ev>:
AssetTrackerBase::~AssetTrackerBase() {
   d67fc:	b510      	push	{r4, lr}
   d67fe:	4604      	mov	r4, r0
}
   d6800:	f7ff ffdc 	bl	d67bc <_ZN16AssetTrackerBaseD1Ev>
   d6804:	4620      	mov	r0, r4
   d6806:	f44f 71f6 	mov.w	r1, #492	; 0x1ec
   d680a:	f003 fe0a 	bl	da422 <_ZdlPvj>
   d680e:	4620      	mov	r0, r4
   d6810:	bd10      	pop	{r4, pc}
	...

000d6814 <_ZN12AssetTrackerD1Ev>:

AssetTracker::~AssetTracker() {
   d6814:	b510      	push	{r4, lr}
   d6816:	4b08      	ldr	r3, [pc, #32]	; (d6838 <_ZN12AssetTrackerD1Ev+0x24>)
   d6818:	f103 0208 	add.w	r2, r3, #8
   d681c:	3318      	adds	r3, #24
   d681e:	4604      	mov	r4, r0
   d6820:	6002      	str	r2, [r0, #0]
   d6822:	f8c0 31ec 	str.w	r3, [r0, #492]	; 0x1ec
   d6826:	f500 70fa 	add.w	r0, r0, #500	; 0x1f4
   d682a:	f000 fd19 	bl	d7260 <_ZN9LIS3DHSPID1Ev>
   d682e:	4620      	mov	r0, r4
   d6830:	f7ff ffc4 	bl	d67bc <_ZN16AssetTrackerBaseD1Ev>

}
   d6834:	4620      	mov	r0, r4
   d6836:	bd10      	pop	{r4, pc}
   d6838:	000db75c 	.word	0x000db75c

000d683c <_ZThn492_N12AssetTrackerD1Ev>:
	AssetTracker();

	/**
	 * @brief Destructor
	 */
	virtual ~AssetTracker();
   d683c:	f5a0 70f6 	sub.w	r0, r0, #492	; 0x1ec
   d6840:	f7ff bfe8 	b.w	d6814 <_ZN12AssetTrackerD1Ev>

000d6844 <_ZN12AssetTrackerD0Ev>:
AssetTracker::~AssetTracker() {
   d6844:	b510      	push	{r4, lr}
   d6846:	4604      	mov	r4, r0
}
   d6848:	f7ff ffe4 	bl	d6814 <_ZN12AssetTrackerD1Ev>
   d684c:	4620      	mov	r0, r4
   d684e:	f44f 7107 	mov.w	r1, #540	; 0x21c
   d6852:	f003 fde6 	bl	da422 <_ZdlPvj>
   d6856:	4620      	mov	r0, r4
   d6858:	bd10      	pop	{r4, pc}

000d685a <_ZThn492_N12AssetTrackerD0Ev>:
   d685a:	f5a0 70f6 	sub.w	r0, r0, #492	; 0x1ec
   d685e:	f7ff bff1 	b.w	d6844 <_ZN12AssetTrackerD0Ev>

000d6862 <_ZNKSt8functionIFbcEEclEc>:
    function<_Res(_ArgTypes...)>::
   d6862:	b507      	push	{r0, r1, r2, lr}
      if (_M_empty())
   d6864:	6882      	ldr	r2, [r0, #8]
    function<_Res(_ArgTypes...)>::
   d6866:	f88d 1007 	strb.w	r1, [sp, #7]
      if (_M_empty())
   d686a:	b90a      	cbnz	r2, d6870 <_ZNKSt8functionIFbcEEclEc+0xe>
	__throw_bad_function_call();
   d686c:	f003 fddf 	bl	da42e <_ZSt25__throw_bad_function_callv>
      return _M_invoker(_M_functor, std::forward<_ArgTypes>(__args)...);
   d6870:	68c3      	ldr	r3, [r0, #12]
   d6872:	f10d 0107 	add.w	r1, sp, #7
   d6876:	4798      	blx	r3
    }
   d6878:	b003      	add	sp, #12
   d687a:	f85d fb04 	ldr.w	pc, [sp], #4

000d687e <_ZN16AssetTrackerBase9updateGPSEv>:
void AssetTrackerBase::updateGPS(void) {
   d687e:	e92d 47f0 	stmdb	sp!, {r4, r5, r6, r7, r8, r9, sl, lr}
	if (!useWire) {
   d6882:	f890 71a8 	ldrb.w	r7, [r0, #424]	; 0x1a8
void AssetTrackerBase::updateGPS(void) {
   d6886:	b08a      	sub	sp, #40	; 0x28
   d6888:	4604      	mov	r4, r0
	if (!useWire) {
   d688a:	b9ff      	cbnz	r7, d68cc <_ZN16AssetTrackerBase9updateGPSEv+0x4e>
			hasSentence |= gps.encode(c);
   d688c:	f100 0608 	add.w	r6, r0, #8
				externalDecoder(c);
   d6890:	f500 75de 	add.w	r5, r0, #444	; 0x1bc
		while (serialPort.available() > 0) {
   d6894:	f8d4 01b4 	ldr.w	r0, [r4, #436]	; 0x1b4
   d6898:	6803      	ldr	r3, [r0, #0]
   d689a:	691b      	ldr	r3, [r3, #16]
   d689c:	4798      	blx	r3
   d689e:	2800      	cmp	r0, #0
   d68a0:	dd45      	ble.n	d692e <_ZN16AssetTrackerBase9updateGPSEv+0xb0>
			char c = (char)serialPort.read();
   d68a2:	f8d4 01b4 	ldr.w	r0, [r4, #436]	; 0x1b4
   d68a6:	6803      	ldr	r3, [r0, #0]
   d68a8:	695b      	ldr	r3, [r3, #20]
   d68aa:	4798      	blx	r3
   d68ac:	b2c1      	uxtb	r1, r0
			hasSentence |= gps.encode(c);
   d68ae:	4630      	mov	r0, r6
   d68b0:	9101      	str	r1, [sp, #4]
   d68b2:	f000 fb47 	bl	d6f44 <_ZN11TinyGPSPlus6encodeEc>
			if (externalDecoder) {
   d68b6:	f8d4 31c4 	ldr.w	r3, [r4, #452]	; 0x1c4
			hasSentence |= gps.encode(c);
   d68ba:	4338      	orrs	r0, r7
   d68bc:	b2c7      	uxtb	r7, r0
			if (externalDecoder) {
   d68be:	2b00      	cmp	r3, #0
   d68c0:	d0e8      	beq.n	d6894 <_ZN16AssetTrackerBase9updateGPSEv+0x16>
				externalDecoder(c);
   d68c2:	9901      	ldr	r1, [sp, #4]
   d68c4:	4628      	mov	r0, r5
   d68c6:	f7ff ffcc 	bl	d6862 <_ZNKSt8functionIFbcEEclEc>
   d68ca:	e7e3      	b.n	d6894 <_ZN16AssetTrackerBase9updateGPSEv+0x16>
		WITH_LOCK(wire) {
   d68cc:	f8d0 81ac 	ldr.w	r8, [r0, #428]	; 0x1ac
    {
    public:
      typedef _Mutex mutex_type;

      explicit lock_guard(mutex_type& __m) : _M_device(__m)
      { _M_device.lock(); }
   d68d0:	4640      	mov	r0, r8
   d68d2:	f002 fcb7 	bl	d9244 <_ZN7TwoWire4lockEv>
			uint16_t available = wireReadBytesAvailable();
   d68d6:	4620      	mov	r0, r4
   d68d8:	f7ff fe86 	bl	d65e8 <_ZN16AssetTrackerBase22wireReadBytesAvailableEv>
			if (available > 32) {
   d68dc:	2820      	cmp	r0, #32
			uint16_t available = wireReadBytesAvailable();
   d68de:	4606      	mov	r6, r0
			if (available > 32) {
   d68e0:	d802      	bhi.n	d68e8 <_ZN16AssetTrackerBase9updateGPSEv+0x6a>
			if (available > 0) {
   d68e2:	b910      	cbnz	r0, d68ea <_ZN16AssetTrackerBase9updateGPSEv+0x6c>
	bool hasSentence = false;
   d68e4:	2700      	movs	r7, #0
   d68e6:	e01f      	b.n	d6928 <_ZN16AssetTrackerBase9updateGPSEv+0xaa>
				available = 32;
   d68e8:	2620      	movs	r6, #32
				if (wireReadBytes(buf, available) == available) {
   d68ea:	4632      	mov	r2, r6
   d68ec:	a902      	add	r1, sp, #8
   d68ee:	4620      	mov	r0, r4
   d68f0:	f7ff fea9 	bl	d6646 <_ZN16AssetTrackerBase13wireReadBytesEPhj>
   d68f4:	42b0      	cmp	r0, r6
   d68f6:	d1f5      	bne.n	d68e4 <_ZN16AssetTrackerBase9updateGPSEv+0x66>
   d68f8:	ad02      	add	r5, sp, #8
   d68fa:	442e      	add	r6, r5
	bool hasSentence = false;
   d68fc:	2700      	movs	r7, #0
						hasSentence |= gps.encode(buf[ii]);
   d68fe:	f104 0908 	add.w	r9, r4, #8
							externalDecoder(buf[ii]);
   d6902:	f504 7ade 	add.w	sl, r4, #444	; 0x1bc
						hasSentence |= gps.encode(buf[ii]);
   d6906:	f815 1b01 	ldrb.w	r1, [r5], #1
   d690a:	4648      	mov	r0, r9
   d690c:	f000 fb1a 	bl	d6f44 <_ZN11TinyGPSPlus6encodeEc>
						if (externalDecoder) {
   d6910:	f8d4 31c4 	ldr.w	r3, [r4, #452]	; 0x1c4
						hasSentence |= gps.encode(buf[ii]);
   d6914:	4338      	orrs	r0, r7
   d6916:	b2c7      	uxtb	r7, r0
						if (externalDecoder) {
   d6918:	b123      	cbz	r3, d6924 <_ZN16AssetTrackerBase9updateGPSEv+0xa6>
							externalDecoder(buf[ii]);
   d691a:	f815 1c01 	ldrb.w	r1, [r5, #-1]
   d691e:	4650      	mov	r0, sl
   d6920:	f7ff ff9f 	bl	d6862 <_ZNKSt8functionIFbcEEclEc>
					for(uint16_t ii = 0; ii < available; ii++) {
   d6924:	42b5      	cmp	r5, r6
   d6926:	d1ee      	bne.n	d6906 <_ZN16AssetTrackerBase9updateGPSEv+0x88>

      lock_guard(mutex_type& __m, adopt_lock_t) noexcept : _M_device(__m)
      { } // calling thread owns mutex

      ~lock_guard()
      { _M_device.unlock(); }
   d6928:	4640      	mov	r0, r8
   d692a:	f002 fc94 	bl	d9256 <_ZN7TwoWire6unlockEv>
	if (hasSentence) {
   d692e:	b157      	cbz	r7, d6946 <_ZN16AssetTrackerBase9updateGPSEv+0xc8>

      _GLIBCXX_CONSTEXPR __normal_iterator() _GLIBCXX_NOEXCEPT
      : _M_current(_Iterator()) { }

      explicit
      __normal_iterator(const _Iterator& __i) _GLIBCXX_NOEXCEPT
   d6930:	f8d4 51d8 	ldr.w	r5, [r4, #472]	; 0x1d8
		for(auto it = sentenceCallbacks.begin(); it != sentenceCallbacks.end(); it++) {
   d6934:	f8d4 31dc 	ldr.w	r3, [r4, #476]	; 0x1dc
   d6938:	429d      	cmp	r5, r3
   d693a:	d004      	beq.n	d6946 <_ZN16AssetTrackerBase9updateGPSEv+0xc8>
			(*it)();
   d693c:	4628      	mov	r0, r5
   d693e:	f7ff ff0d 	bl	d675c <_ZNKSt8functionIFvvEEclEv>
   d6942:	3510      	adds	r5, #16
	return *this;
      }

      __normal_iterator
      operator++(int) _GLIBCXX_NOEXCEPT
      { return __normal_iterator(_M_current++); }
   d6944:	e7f6      	b.n	d6934 <_ZN16AssetTrackerBase9updateGPSEv+0xb6>
}
   d6946:	b00a      	add	sp, #40	; 0x28
   d6948:	e8bd 87f0 	ldmia.w	sp!, {r4, r5, r6, r7, r8, r9, sl, pc}

000d694c <_ZN16AssetTrackerBase14threadFunctionEv>:
void AssetTrackerBase::threadFunction() {
   d694c:	b538      	push	{r3, r4, r5, lr}
   d694e:	4604      	mov	r4, r0
		updateGPS();
   d6950:	4620      	mov	r0, r4
   d6952:	f7ff ff94 	bl	d687e <_ZN16AssetTrackerBase9updateGPSEv>
      __normal_iterator(const _Iterator& __i) _GLIBCXX_NOEXCEPT
   d6956:	f8d4 51cc 	ldr.w	r5, [r4, #460]	; 0x1cc
		for(auto it = threadCallbacks.begin(); it != threadCallbacks.end(); it++) {
   d695a:	f8d4 31d0 	ldr.w	r3, [r4, #464]	; 0x1d0
   d695e:	429d      	cmp	r5, r3
   d6960:	d004      	beq.n	d696c <_ZN16AssetTrackerBase14threadFunctionEv+0x20>
			(*it)();
   d6962:	4628      	mov	r0, r5
   d6964:	f7ff fefa 	bl	d675c <_ZNKSt8functionIFvvEEclEv>
   d6968:	3510      	adds	r5, #16
      { return __normal_iterator(_M_current++); }
   d696a:	e7f6      	b.n	d695a <_ZN16AssetTrackerBase14threadFunctionEv+0xe>
		os_thread_yield();
   d696c:	f001 fb8e 	bl	d808c <os_thread_yield>
	}
   d6970:	e7ee      	b.n	d6950 <_ZN16AssetTrackerBase14threadFunctionEv+0x4>

000d6972 <_ZN16AssetTrackerBase20threadFunctionStaticEPv>:
void AssetTrackerBase::threadFunctionStatic(void *param) {
   d6972:	b508      	push	{r3, lr}
	static_cast<AssetTracker *>(param)->threadFunction();
   d6974:	f7ff ffea 	bl	d694c <_ZN16AssetTrackerBase14threadFunctionEv>

000d6978 <_ZN13LegacyAdapterD1Ev>:

}

LegacyAdapter::~LegacyAdapter() {

}
   d6978:	4770      	bx	lr

000d697a <_ZN13LegacyAdapterD0Ev>:
LegacyAdapter::~LegacyAdapter() {
   d697a:	b510      	push	{r4, lr}
}
   d697c:	2108      	movs	r1, #8
LegacyAdapter::~LegacyAdapter() {
   d697e:	4604      	mov	r4, r0
}
   d6980:	f003 fd4f 	bl	da422 <_ZdlPvj>
   d6984:	4620      	mov	r0, r4
   d6986:	bd10      	pop	{r4, pc}

000d6988 <_ZN13LegacyAdapterC1ER11TinyGPSPlus>:
LegacyAdapter::LegacyAdapter(TinyGPSPlus &gpsData) : gpsData(gpsData) {
   d6988:	4a01      	ldr	r2, [pc, #4]	; (d6990 <_ZN13LegacyAdapterC1ER11TinyGPSPlus+0x8>)
   d698a:	e9c0 2100 	strd	r2, r1, [r0]
}
   d698e:	4770      	bx	lr
   d6990:	000db794 	.word	0x000db794

000d6994 <_ZN11TinyGPSDataC1Ev>:
	TinyGPSLocation() : valid(false), updated(false), lastCommitTime(0)
   d6994:	2200      	movs	r2, #0
	TinyGPSDate() : valid(false), updated(false), date(0), newDate(0), lastCommitTime(0)
   d6996:	e9c0 220f 	strd	r2, r2, [r0, #60]	; 0x3c
	TinyGPSTime() : valid(false), updated(false), time(0), newTime(0), lastCommitTime(0)
   d699a:	e9c0 2213 	strd	r2, r2, [r0, #76]	; 0x4c
	TinyGPSDecimal() : valid(false), updated(false), lastCommitTime(0), val(0), newval(0)
   d699e:	e9c0 2217 	strd	r2, r2, [r0, #92]	; 0x5c
   d69a2:	e9c0 221b 	strd	r2, r2, [r0, #108]	; 0x6c
	TinyGPSLocation() : valid(false), updated(false), lastCommitTime(0)
   d69a6:	8002      	strh	r2, [r0, #0]
	RawDegrees() : deg(0), billionths(0), negative(false)
   d69a8:	8082      	strh	r2, [r0, #4]
   d69aa:	6082      	str	r2, [r0, #8]
   d69ac:	7302      	strb	r2, [r0, #12]
   d69ae:	8202      	strh	r2, [r0, #16]
   d69b0:	6142      	str	r2, [r0, #20]
   d69b2:	7602      	strb	r2, [r0, #24]
   d69b4:	8382      	strh	r2, [r0, #28]
   d69b6:	6202      	str	r2, [r0, #32]
   d69b8:	f880 2024 	strb.w	r2, [r0, #36]	; 0x24
   d69bc:	8502      	strh	r2, [r0, #40]	; 0x28
   d69be:	62c2      	str	r2, [r0, #44]	; 0x2c
   d69c0:	f880 2030 	strb.w	r2, [r0, #48]	; 0x30
	TinyGPSLocation() : valid(false), updated(false), lastCommitTime(0)
   d69c4:	6342      	str	r2, [r0, #52]	; 0x34
	TinyGPSDate() : valid(false), updated(false), date(0), newDate(0), lastCommitTime(0)
   d69c6:	8702      	strh	r2, [r0, #56]	; 0x38
   d69c8:	6442      	str	r2, [r0, #68]	; 0x44
	TinyGPSTime() : valid(false), updated(false), time(0), newTime(0), lastCommitTime(0)
   d69ca:	f8a0 2048 	strh.w	r2, [r0, #72]	; 0x48
   d69ce:	6542      	str	r2, [r0, #84]	; 0x54
	TinyGPSDecimal() : valid(false), updated(false), lastCommitTime(0), val(0), newval(0)
   d69d0:	f8a0 2058 	strh.w	r2, [r0, #88]	; 0x58
   d69d4:	6642      	str	r2, [r0, #100]	; 0x64
   d69d6:	f8a0 2068 	strh.w	r2, [r0, #104]	; 0x68
   d69da:	6742      	str	r2, [r0, #116]	; 0x74
   d69dc:	f8a0 2078 	strh.w	r2, [r0, #120]	; 0x78
   d69e0:	e9c0 221f 	strd	r2, r2, [r0, #124]	; 0x7c
   d69e4:	e9c0 2223 	strd	r2, r2, [r0, #140]	; 0x8c
	TinyGPSInteger() : valid(false), updated(false), lastCommitTime(0), val(0), newval(0)
   d69e8:	e9c0 2227 	strd	r2, r2, [r0, #156]	; 0x9c
	TinyGPSDecimal() : valid(false), updated(false), lastCommitTime(0), val(0), newval(0)
   d69ec:	e9c0 222b 	strd	r2, r2, [r0, #172]	; 0xac
   d69f0:	f8c0 2084 	str.w	r2, [r0, #132]	; 0x84
   d69f4:	f8a0 2088 	strh.w	r2, [r0, #136]	; 0x88
   d69f8:	f8c0 2094 	str.w	r2, [r0, #148]	; 0x94
	TinyGPSInteger() : valid(false), updated(false), lastCommitTime(0), val(0), newval(0)
   d69fc:	f8a0 2098 	strh.w	r2, [r0, #152]	; 0x98
   d6a00:	f8c0 20a4 	str.w	r2, [r0, #164]	; 0xa4
	TinyGPSDecimal() : valid(false), updated(false), lastCommitTime(0), val(0), newval(0)
   d6a04:	f8a0 20a8 	strh.w	r2, [r0, #168]	; 0xa8
   d6a08:	f8c0 20b4 	str.w	r2, [r0, #180]	; 0xb4
class TinyGPSData {
   d6a0c:	4770      	bx	lr

000d6a0e <_ZN11TinyGPSPlusC1Ev>:
	return value * value;
}
#endif
// End

TinyGPSPlus::TinyGPSPlus()
   d6a0e:	b510      	push	{r4, lr}
   d6a10:	4604      	mov	r4, r0
  ,  customElts(0)
  ,  customCandidates(0)
  ,  encodedCharCount(0)
  ,  sentencesWithFixCount(0)
  ,  failedChecksumCount(0)
  ,  passedChecksumCount(0)
   d6a12:	f7ff ffbf 	bl	d6994 <_ZN11TinyGPSDataC1Ev>
   d6a16:	f104 00b8 	add.w	r0, r4, #184	; 0xb8
   d6a1a:	f7ff ffbb 	bl	d6994 <_ZN11TinyGPSDataC1Ev>
   d6a1e:	2302      	movs	r3, #2
   d6a20:	f884 3181 	strb.w	r3, [r4, #385]	; 0x181
   d6a24:	2300      	movs	r3, #0
   d6a26:	e9c4 3362 	strd	r3, r3, [r4, #392]	; 0x188
   d6a2a:	e9c4 3364 	strd	r3, r3, [r4, #400]	; 0x190
   d6a2e:	e9c4 3366 	strd	r3, r3, [r4, #408]	; 0x198
   d6a32:	f8a4 3182 	strh.w	r3, [r4, #386]	; 0x182
   d6a36:	f884 3184 	strb.w	r3, [r4, #388]	; 0x184
   d6a3a:	f8a4 3170 	strh.w	r3, [r4, #368]	; 0x170
{
  term[0] = '\0';
   d6a3e:	f884 3172 	strb.w	r3, [r4, #370]	; 0x172
}
   d6a42:	4620      	mov	r0, r4
   d6a44:	bd10      	pop	{r4, pc}

000d6a46 <_ZN11TinyGPSPlus7fromHexEc>:
//
// internal utilities
//
int TinyGPSPlus::fromHex(char a)
{
  if (a >= 'A' && a <= 'F')
   d6a46:	f1a1 0341 	sub.w	r3, r1, #65	; 0x41
   d6a4a:	2b05      	cmp	r3, #5
   d6a4c:	d802      	bhi.n	d6a54 <_ZN11TinyGPSPlus7fromHexEc+0xe>
    return a - 'A' + 10;
   d6a4e:	f1a1 0037 	sub.w	r0, r1, #55	; 0x37
   d6a52:	4770      	bx	lr
  else if (a >= 'a' && a <= 'f')
   d6a54:	f1a1 0361 	sub.w	r3, r1, #97	; 0x61
   d6a58:	2b05      	cmp	r3, #5
    return a - 'a' + 10;
   d6a5a:	bf94      	ite	ls
   d6a5c:	f1a1 0057 	subls.w	r0, r1, #87	; 0x57
  else
    return a - '0';
   d6a60:	f1a1 0030 	subhi.w	r0, r1, #48	; 0x30
}
   d6a64:	4770      	bx	lr

000d6a66 <_ZN11TinyGPSPlus12parseDecimalEPKc>:

// static
// Parse a (potentially negative) number with up to 2 decimal digits -xxxx.yy
int32_t TinyGPSPlus::parseDecimal(const char *term)
{
   d6a66:	b538      	push	{r3, r4, r5, lr}
  bool negative = *term == '-';
   d6a68:	7805      	ldrb	r5, [r0, #0]
{
   d6a6a:	4604      	mov	r4, r0
  if (negative) ++term;
   d6a6c:	2d2d      	cmp	r5, #45	; 0x2d
   d6a6e:	bf08      	it	eq
   d6a70:	3401      	addeq	r4, #1
  int32_t ret = 100 * (int32_t)atol(term);
   d6a72:	4620      	mov	r0, r4
   d6a74:	f004 f97a 	bl	dad6c <atol>
   d6a78:	2364      	movs	r3, #100	; 0x64
   d6a7a:	4358      	muls	r0, r3
   d6a7c:	4622      	mov	r2, r4
  while (isdigit(*term)) ++term;
   d6a7e:	f814 3b01 	ldrb.w	r3, [r4], #1
   d6a82:	f1a3 0130 	sub.w	r1, r3, #48	; 0x30
   d6a86:	2909      	cmp	r1, #9
   d6a88:	d9f8      	bls.n	d6a7c <_ZN11TinyGPSPlus12parseDecimalEPKc+0x16>
  if (*term == '.' && isdigit(term[1]))
   d6a8a:	2b2e      	cmp	r3, #46	; 0x2e
   d6a8c:	d10b      	bne.n	d6aa6 <_ZN11TinyGPSPlus12parseDecimalEPKc+0x40>
   d6a8e:	7853      	ldrb	r3, [r2, #1]
   d6a90:	3b30      	subs	r3, #48	; 0x30
   d6a92:	2b09      	cmp	r3, #9
   d6a94:	d807      	bhi.n	d6aa6 <_ZN11TinyGPSPlus12parseDecimalEPKc+0x40>
  {
    ret += 10 * (term[1] - '0');
   d6a96:	210a      	movs	r1, #10
   d6a98:	fb01 0003 	mla	r0, r1, r3, r0
    if (isdigit(term[2]))
   d6a9c:	7893      	ldrb	r3, [r2, #2]
   d6a9e:	3b30      	subs	r3, #48	; 0x30
   d6aa0:	2b09      	cmp	r3, #9
      ret += term[2] - '0';
   d6aa2:	bf98      	it	ls
   d6aa4:	18c0      	addls	r0, r0, r3
  }
  return negative ? -ret : ret;
   d6aa6:	2d2d      	cmp	r5, #45	; 0x2d
   d6aa8:	bf08      	it	eq
   d6aaa:	4240      	negeq	r0, r0
}
   d6aac:	bd38      	pop	{r3, r4, r5, pc}
	...

000d6ab0 <_ZN11TinyGPSPlus12parseDegreesEPKcR10RawDegrees>:

// static
// Parse degrees in that funny NMEA format DDMM.MMMM
void TinyGPSPlus::parseDegrees(const char *term, RawDegrees &deg)
{
   d6ab0:	b538      	push	{r3, r4, r5, lr}
   d6ab2:	460d      	mov	r5, r1
   d6ab4:	4604      	mov	r4, r0
  uint32_t leftOfDecimal = (uint32_t)atol(term);
   d6ab6:	f004 f959 	bl	dad6c <atol>
  uint16_t minutes = (uint16_t)(leftOfDecimal % 100);
   d6aba:	2264      	movs	r2, #100	; 0x64
  uint32_t multiplier = 10000000UL;
  uint32_t tenMillionthsOfMinutes = minutes * multiplier;
   d6abc:	4b13      	ldr	r3, [pc, #76]	; (d6b0c <_ZN11TinyGPSPlus12parseDegreesEPKcR10RawDegrees+0x5c>)
  uint16_t minutes = (uint16_t)(leftOfDecimal % 100);
   d6abe:	fbb0 f1f2 	udiv	r1, r0, r2
   d6ac2:	fb02 0011 	mls	r0, r2, r1, r0
  uint32_t tenMillionthsOfMinutes = minutes * multiplier;
   d6ac6:	4343      	muls	r3, r0

  deg.deg = (int16_t)(leftOfDecimal / 100);
   d6ac8:	8029      	strh	r1, [r5, #0]
   d6aca:	4620      	mov	r0, r4

  while (isdigit(*term))
   d6acc:	7802      	ldrb	r2, [r0, #0]
   d6ace:	f1a2 0430 	sub.w	r4, r2, #48	; 0x30
   d6ad2:	2c09      	cmp	r4, #9
   d6ad4:	4601      	mov	r1, r0
   d6ad6:	f100 0001 	add.w	r0, r0, #1
   d6ada:	d9f7      	bls.n	d6acc <_ZN11TinyGPSPlus12parseDegreesEPKcR10RawDegrees+0x1c>
    ++term;

  if (*term == '.')
   d6adc:	2a2e      	cmp	r2, #46	; 0x2e
   d6ade:	d10b      	bne.n	d6af8 <_ZN11TinyGPSPlus12parseDegreesEPKcR10RawDegrees+0x48>
  uint32_t multiplier = 10000000UL;
   d6ae0:	480a      	ldr	r0, [pc, #40]	; (d6b0c <_ZN11TinyGPSPlus12parseDegreesEPKcR10RawDegrees+0x5c>)
    while (isdigit(*++term))
    {
      multiplier /= 10;
   d6ae2:	240a      	movs	r4, #10
    while (isdigit(*++term))
   d6ae4:	f811 2f01 	ldrb.w	r2, [r1, #1]!
   d6ae8:	3a30      	subs	r2, #48	; 0x30
   d6aea:	2a09      	cmp	r2, #9
   d6aec:	d804      	bhi.n	d6af8 <_ZN11TinyGPSPlus12parseDegreesEPKcR10RawDegrees+0x48>
      multiplier /= 10;
   d6aee:	fbb0 f0f4 	udiv	r0, r0, r4
      tenMillionthsOfMinutes += (*term - '0') * multiplier;
   d6af2:	fb00 3302 	mla	r3, r0, r2, r3
    while (isdigit(*++term))
   d6af6:	e7f5      	b.n	d6ae4 <_ZN11TinyGPSPlus12parseDegreesEPKcR10RawDegrees+0x34>
    }

  deg.billionths = (5 * tenMillionthsOfMinutes + 1) / 3;
   d6af8:	eb03 0383 	add.w	r3, r3, r3, lsl #2
   d6afc:	3301      	adds	r3, #1
   d6afe:	2203      	movs	r2, #3
   d6b00:	fbb3 f3f2 	udiv	r3, r3, r2
   d6b04:	606b      	str	r3, [r5, #4]
  deg.negative = false;
   d6b06:	2300      	movs	r3, #0
   d6b08:	722b      	strb	r3, [r5, #8]
}
   d6b0a:	bd38      	pop	{r3, r4, r5, pc}
   d6b0c:	00989680 	.word	0x00989680

000d6b10 <_ZN15TinyGPSLocation6commitEv>:
  int direction = (int)((course + 11.25f) / 22.5f);
  return directions[direction % 16];
}

void TinyGPSLocation::commit()
{
   d6b10:	b510      	push	{r4, lr}
   rawLatData = rawNewLatData;
   d6b12:	4603      	mov	r3, r0
{
   d6b14:	4604      	mov	r4, r0
   rawLatData = rawNewLatData;
   d6b16:	f853 2f1c 	ldr.w	r2, [r3, #28]!
   d6b1a:	6042      	str	r2, [r0, #4]
   d6b1c:	685a      	ldr	r2, [r3, #4]
   d6b1e:	6082      	str	r2, [r0, #8]
   d6b20:	7a1b      	ldrb	r3, [r3, #8]
   d6b22:	7303      	strb	r3, [r0, #12]
   rawLngData = rawNewLngData;
   d6b24:	4603      	mov	r3, r0
   d6b26:	f853 2f28 	ldr.w	r2, [r3, #40]!
   d6b2a:	6102      	str	r2, [r0, #16]
   d6b2c:	685a      	ldr	r2, [r3, #4]
   d6b2e:	6142      	str	r2, [r0, #20]
   d6b30:	7a1b      	ldrb	r3, [r3, #8]
   d6b32:	7603      	strb	r3, [r0, #24]
   d6b34:	f001 fb1a 	bl	d816c <HAL_Timer_Get_Milli_Seconds>
   lastCommitTime = millis();
   valid = updated = true;
   d6b38:	f240 1301 	movw	r3, #257	; 0x101
   lastCommitTime = millis();
   d6b3c:	6360      	str	r0, [r4, #52]	; 0x34
   valid = updated = true;
   d6b3e:	8023      	strh	r3, [r4, #0]
}
   d6b40:	bd10      	pop	{r4, pc}
   d6b42:	0000      	movs	r0, r0
   d6b44:	0000      	movs	r0, r0
	...

000d6b48 <_ZN15TinyGPSLocation3latEv>:
{
   TinyGPSPlus::parseDegrees(term, rawNewLngData);
}

double TinyGPSLocation::lat()
{
   d6b48:	b5d0      	push	{r4, r6, r7, lr}
   updated = false;
   d6b4a:	2300      	movs	r3, #0
{
   d6b4c:	4604      	mov	r4, r0
   updated = false;
   d6b4e:	7043      	strb	r3, [r0, #1]
   double ret = rawLatData.deg + rawLatData.billionths / 1000000000.0;
   d6b50:	6880      	ldr	r0, [r0, #8]
   d6b52:	f003 fdb1 	bl	da6b8 <__aeabi_ui2d>
   d6b56:	a30c      	add	r3, pc, #48	; (adr r3, d6b88 <_ZN15TinyGPSLocation3latEv+0x40>)
   d6b58:	e9d3 2300 	ldrd	r2, r3, [r3]
   d6b5c:	f003 ff50 	bl	daa00 <__aeabi_ddiv>
   d6b60:	4606      	mov	r6, r0
   d6b62:	88a0      	ldrh	r0, [r4, #4]
   d6b64:	460f      	mov	r7, r1
   d6b66:	f003 fdb7 	bl	da6d8 <__aeabi_i2d>
   d6b6a:	460b      	mov	r3, r1
   d6b6c:	4602      	mov	r2, r0
   d6b6e:	4639      	mov	r1, r7
   d6b70:	4630      	mov	r0, r6
   d6b72:	f003 fc65 	bl	da440 <__adddf3>
   return rawLatData.negative ? -ret : ret;
   d6b76:	7b23      	ldrb	r3, [r4, #12]
   d6b78:	b113      	cbz	r3, d6b80 <_ZN15TinyGPSLocation3latEv+0x38>
   d6b7a:	f101 4300 	add.w	r3, r1, #2147483648	; 0x80000000
   d6b7e:	4619      	mov	r1, r3
}
   d6b80:	ec41 0b10 	vmov	d0, r0, r1
   d6b84:	bdd0      	pop	{r4, r6, r7, pc}
   d6b86:	bf00      	nop
   d6b88:	00000000 	.word	0x00000000
   d6b8c:	41cdcd65 	.word	0x41cdcd65

000d6b90 <_ZN15TinyGPSLocation3lngEv>:

double TinyGPSLocation::lng()
{
   d6b90:	b5d0      	push	{r4, r6, r7, lr}
   updated = false;
   d6b92:	2300      	movs	r3, #0
{
   d6b94:	4604      	mov	r4, r0
   updated = false;
   d6b96:	7043      	strb	r3, [r0, #1]
   double ret = rawLngData.deg + rawLngData.billionths / 1000000000.0;
   d6b98:	6940      	ldr	r0, [r0, #20]
   d6b9a:	f003 fd8d 	bl	da6b8 <__aeabi_ui2d>
   d6b9e:	a30c      	add	r3, pc, #48	; (adr r3, d6bd0 <_ZN15TinyGPSLocation3lngEv+0x40>)
   d6ba0:	e9d3 2300 	ldrd	r2, r3, [r3]
   d6ba4:	f003 ff2c 	bl	daa00 <__aeabi_ddiv>
   d6ba8:	4606      	mov	r6, r0
   d6baa:	8a20      	ldrh	r0, [r4, #16]
   d6bac:	460f      	mov	r7, r1
   d6bae:	f003 fd93 	bl	da6d8 <__aeabi_i2d>
   d6bb2:	460b      	mov	r3, r1
   d6bb4:	4602      	mov	r2, r0
   d6bb6:	4639      	mov	r1, r7
   d6bb8:	4630      	mov	r0, r6
   d6bba:	f003 fc41 	bl	da440 <__adddf3>
   return rawLngData.negative ? -ret : ret;
   d6bbe:	7e23      	ldrb	r3, [r4, #24]
   d6bc0:	b113      	cbz	r3, d6bc8 <_ZN15TinyGPSLocation3lngEv+0x38>
   d6bc2:	f101 4300 	add.w	r3, r1, #2147483648	; 0x80000000
   d6bc6:	4619      	mov	r1, r3
}
   d6bc8:	ec41 0b10 	vmov	d0, r0, r1
   d6bcc:	bdd0      	pop	{r4, r6, r7, pc}
   d6bce:	bf00      	nop
   d6bd0:	00000000 	.word	0x00000000
   d6bd4:	41cdcd65 	.word	0x41cdcd65

000d6bd8 <_ZN11TinyGPSDate6commitEv>:

void TinyGPSDate::commit()
{
   d6bd8:	b510      	push	{r4, lr}
   date = newDate;
   d6bda:	6883      	ldr	r3, [r0, #8]
   d6bdc:	6043      	str	r3, [r0, #4]
{
   d6bde:	4604      	mov	r4, r0
   d6be0:	f001 fac4 	bl	d816c <HAL_Timer_Get_Milli_Seconds>
   lastCommitTime = millis();
   valid = updated = true;
   d6be4:	f240 1301 	movw	r3, #257	; 0x101
   lastCommitTime = millis();
   d6be8:	60e0      	str	r0, [r4, #12]
   valid = updated = true;
   d6bea:	8023      	strh	r3, [r4, #0]
}
   d6bec:	bd10      	pop	{r4, pc}

000d6bee <_ZN11TinyGPSTime6commitEv>:

void TinyGPSTime::commit()
{
   d6bee:	b510      	push	{r4, lr}
   time = newTime;
   d6bf0:	6883      	ldr	r3, [r0, #8]
   d6bf2:	6043      	str	r3, [r0, #4]
{
   d6bf4:	4604      	mov	r4, r0
   d6bf6:	f001 fab9 	bl	d816c <HAL_Timer_Get_Milli_Seconds>
   lastCommitTime = millis();
   valid = updated = true;
   d6bfa:	f240 1301 	movw	r3, #257	; 0x101
   lastCommitTime = millis();
   d6bfe:	60e0      	str	r0, [r4, #12]
   valid = updated = true;
   d6c00:	8023      	strh	r3, [r4, #0]
}
   d6c02:	bd10      	pop	{r4, pc}

000d6c04 <_ZN11TinyGPSTime7setTimeEPKc>:

void TinyGPSTime::setTime(const char *term)
{
   d6c04:	b510      	push	{r4, lr}
   d6c06:	4604      	mov	r4, r0
   newTime = (uint32_t)TinyGPSPlus::parseDecimal(term);
   d6c08:	4608      	mov	r0, r1
   d6c0a:	f7ff ff2c 	bl	d6a66 <_ZN11TinyGPSPlus12parseDecimalEPKc>
   d6c0e:	60a0      	str	r0, [r4, #8]
}
   d6c10:	bd10      	pop	{r4, pc}

000d6c12 <_ZN11TinyGPSDate7setDateEPKc>:

void TinyGPSDate::setDate(const char *term)
{
   d6c12:	b510      	push	{r4, lr}
   d6c14:	4604      	mov	r4, r0
   newDate = atol(term);
   d6c16:	4608      	mov	r0, r1
   d6c18:	f004 f8a8 	bl	dad6c <atol>
   d6c1c:	60a0      	str	r0, [r4, #8]
}
   d6c1e:	bd10      	pop	{r4, pc}

000d6c20 <_ZN14TinyGPSDecimal6commitEv>:
   updated = false;
   return time % 100;
}

void TinyGPSDecimal::commit()
{
   d6c20:	b510      	push	{r4, lr}
   val = newval;
   d6c22:	68c3      	ldr	r3, [r0, #12]
   d6c24:	6083      	str	r3, [r0, #8]
{
   d6c26:	4604      	mov	r4, r0
   d6c28:	f001 faa0 	bl	d816c <HAL_Timer_Get_Milli_Seconds>
   lastCommitTime = millis();
   valid = updated = true;
   d6c2c:	f240 1301 	movw	r3, #257	; 0x101
   lastCommitTime = millis();
   d6c30:	6060      	str	r0, [r4, #4]
   valid = updated = true;
   d6c32:	8023      	strh	r3, [r4, #0]
}
   d6c34:	bd10      	pop	{r4, pc}

000d6c36 <_ZN14TinyGPSDecimal3setEPKc>:

void TinyGPSDecimal::set(const char *term)
{
   d6c36:	b510      	push	{r4, lr}
   d6c38:	4604      	mov	r4, r0
   newval = TinyGPSPlus::parseDecimal(term);
   d6c3a:	4608      	mov	r0, r1
   d6c3c:	f7ff ff13 	bl	d6a66 <_ZN11TinyGPSPlus12parseDecimalEPKc>
   d6c40:	60e0      	str	r0, [r4, #12]
}
   d6c42:	bd10      	pop	{r4, pc}

000d6c44 <_ZN14TinyGPSInteger6commitEv>:

void TinyGPSInteger::commit()
{
   d6c44:	b510      	push	{r4, lr}
   val = newval;
   d6c46:	68c3      	ldr	r3, [r0, #12]
   d6c48:	6083      	str	r3, [r0, #8]
{
   d6c4a:	4604      	mov	r4, r0
   d6c4c:	f001 fa8e 	bl	d816c <HAL_Timer_Get_Milli_Seconds>
   lastCommitTime = millis();
   valid = updated = true;
   d6c50:	f240 1301 	movw	r3, #257	; 0x101
   lastCommitTime = millis();
   d6c54:	6060      	str	r0, [r4, #4]
   valid = updated = true;
   d6c56:	8023      	strh	r3, [r4, #0]
}
   d6c58:	bd10      	pop	{r4, pc}

000d6c5a <_ZN14TinyGPSInteger3setEPKc>:

void TinyGPSInteger::set(const char *term)
{
   d6c5a:	b510      	push	{r4, lr}
   d6c5c:	4604      	mov	r4, r0
   newval = atol(term);
   d6c5e:	4608      	mov	r0, r1
   d6c60:	f004 f884 	bl	dad6c <atol>
   d6c64:	60e0      	str	r0, [r4, #12]
}
   d6c66:	bd10      	pop	{r4, pc}

000d6c68 <_ZN13TinyGPSCustom6commitEv>:
   // Insert this item into the GPS tree
   gps.insertCustom(this, _sentenceName, _termNumber);
}

void TinyGPSCustom::commit()
{
   d6c68:	b510      	push	{r4, lr}
   strcpy(this->buffer, this->stagingBuffer);
   d6c6a:	4601      	mov	r1, r0
{
   d6c6c:	4604      	mov	r4, r0
   strcpy(this->buffer, this->stagingBuffer);
   d6c6e:	3010      	adds	r0, #16
   d6c70:	f004 f8fe 	bl	dae70 <strcpy>
   d6c74:	f001 fa7a 	bl	d816c <HAL_Timer_Get_Milli_Seconds>
   lastCommitTime = millis();
   valid = updated = true;
   d6c78:	f240 1301 	movw	r3, #257	; 0x101
   lastCommitTime = millis();
   d6c7c:	6220      	str	r0, [r4, #32]
   valid = updated = true;
   d6c7e:	84a3      	strh	r3, [r4, #36]	; 0x24
}
   d6c80:	bd10      	pop	{r4, pc}

000d6c82 <_ZN13TinyGPSCustom3setEPKc>:

void TinyGPSCustom::set(const char *term)
{
   strncpy(this->stagingBuffer, term, sizeof(this->stagingBuffer));
   d6c82:	2210      	movs	r2, #16
   d6c84:	f004 b921 	b.w	daeca <strncpy>

000d6c88 <_ZN11TinyGPSPlus16endOfTermHandlerEv>:
{
   d6c88:	b5f8      	push	{r3, r4, r5, r6, r7, lr}
  if (isChecksumTerm)
   d6c8a:	f890 5171 	ldrb.w	r5, [r0, #369]	; 0x171
{
   d6c8e:	4604      	mov	r4, r0
  if (isChecksumTerm)
   d6c90:	2d00      	cmp	r5, #0
   d6c92:	f000 8088 	beq.w	d6da6 <_ZN11TinyGPSPlus16endOfTermHandlerEv+0x11e>
    byte checksum = 16 * fromHex(term[0]) + fromHex(term[1]);
   d6c96:	f890 1172 	ldrb.w	r1, [r0, #370]	; 0x172
   d6c9a:	f7ff fed4 	bl	d6a46 <_ZN11TinyGPSPlus7fromHexEc>
   d6c9e:	f894 1173 	ldrb.w	r1, [r4, #371]	; 0x173
   d6ca2:	4602      	mov	r2, r0
   d6ca4:	4620      	mov	r0, r4
   d6ca6:	f7ff fece 	bl	d6a46 <_ZN11TinyGPSPlus7fromHexEc>
    if (checksum == parity)
   d6caa:	f894 3170 	ldrb.w	r3, [r4, #368]	; 0x170
    byte checksum = 16 * fromHex(term[0]) + fromHex(term[1]);
   d6cae:	eb00 1002 	add.w	r0, r0, r2, lsl #4
    if (checksum == parity)
   d6cb2:	b2c0      	uxtb	r0, r0
   d6cb4:	4283      	cmp	r3, r0
   d6cb6:	d16e      	bne.n	d6d96 <_ZN11TinyGPSPlus16endOfTermHandlerEv+0x10e>
      passedChecksumCount++;
   d6cb8:	f8d4 319c 	ldr.w	r3, [r4, #412]	; 0x19c
   d6cbc:	3301      	adds	r3, #1
   d6cbe:	f8c4 319c 	str.w	r3, [r4, #412]	; 0x19c
      if (sentenceHasFix)
   d6cc2:	f894 3184 	ldrb.w	r3, [r4, #388]	; 0x184
   d6cc6:	b123      	cbz	r3, d6cd2 <_ZN11TinyGPSPlus16endOfTermHandlerEv+0x4a>
        ++sentencesWithFixCount;
   d6cc8:	f8d4 3194 	ldr.w	r3, [r4, #404]	; 0x194
   d6ccc:	3301      	adds	r3, #1
   d6cce:	f8c4 3194 	str.w	r3, [r4, #404]	; 0x194
      switch(curSentenceType)
   d6cd2:	f894 3181 	ldrb.w	r3, [r4, #385]	; 0x181
   d6cd6:	b3e3      	cbz	r3, d6d52 <_ZN11TinyGPSPlus16endOfTermHandlerEv+0xca>
   d6cd8:	2b01      	cmp	r3, #1
   d6cda:	d12b      	bne.n	d6d34 <_ZN11TinyGPSPlus16endOfTermHandlerEv+0xac>
    	tempData.date.commit();
   d6cdc:	f104 00f0 	add.w	r0, r4, #240	; 0xf0
   d6ce0:	f7ff ff7a 	bl	d6bd8 <_ZN11TinyGPSDate6commitEv>
    	tempData.time.commit();
   d6ce4:	f504 7080 	add.w	r0, r4, #256	; 0x100
   d6ce8:	f7ff ff81 	bl	d6bee <_ZN11TinyGPSTime6commitEv>
        if (sentenceHasFix)
   d6cec:	f894 3184 	ldrb.w	r3, [r4, #388]	; 0x184
   d6cf0:	f104 06b8 	add.w	r6, r4, #184	; 0xb8
   d6cf4:	b15b      	cbz	r3, d6d0e <_ZN11TinyGPSPlus16endOfTermHandlerEv+0x86>
           tempData.location.commit();
   d6cf6:	4630      	mov	r0, r6
   d6cf8:	f7ff ff0a 	bl	d6b10 <_ZN15TinyGPSLocation6commitEv>
           tempData.speed.commit();
   d6cfc:	f504 7088 	add.w	r0, r4, #272	; 0x110
   d6d00:	f7ff ff8e 	bl	d6c20 <_ZN14TinyGPSDecimal6commitEv>
           tempData.course.commit();
   d6d04:	f504 7090 	add.w	r0, r4, #288	; 0x120
        tempData.hdop.commit();
   d6d08:	f7ff ff8a 	bl	d6c20 <_ZN14TinyGPSDecimal6commitEv>
   d6d0c:	e005      	b.n	d6d1a <_ZN11TinyGPSPlus16endOfTermHandlerEv+0x92>
	void invalidate() { valid = false; }
   d6d0e:	f884 30b8 	strb.w	r3, [r4, #184]	; 0xb8
	void invalidate() { valid = false; }
   d6d12:	f884 3110 	strb.w	r3, [r4, #272]	; 0x110
   d6d16:	f884 3120 	strb.w	r3, [r4, #288]	; 0x120
        os_thread_scheduling(false, NULL);
   d6d1a:	2100      	movs	r1, #0
   d6d1c:	4608      	mov	r0, r1
   d6d1e:	f001 f9bd 	bl	d809c <os_thread_scheduling>
        	TinyGPSData::operator=(tempData);
   d6d22:	4631      	mov	r1, r6
   d6d24:	22b8      	movs	r2, #184	; 0xb8
   d6d26:	4620      	mov	r0, r4
   d6d28:	f004 f844 	bl	dadb4 <memcpy>
        os_thread_scheduling(true, NULL);
   d6d2c:	2100      	movs	r1, #0
   d6d2e:	2001      	movs	r0, #1
   d6d30:	f001 f9b4 	bl	d809c <os_thread_scheduling>
      for (TinyGPSCustom *p = customCandidates; p != NULL && strcmp(p->sentenceName, customCandidates->sentenceName) == 0; p = p->next)
   d6d34:	f8d4 618c 	ldr.w	r6, [r4, #396]	; 0x18c
   d6d38:	b39e      	cbz	r6, d6da2 <_ZN11TinyGPSPlus16endOfTermHandlerEv+0x11a>
   d6d3a:	f8d4 318c 	ldr.w	r3, [r4, #396]	; 0x18c
   d6d3e:	6ab0      	ldr	r0, [r6, #40]	; 0x28
   d6d40:	6a99      	ldr	r1, [r3, #40]	; 0x28
   d6d42:	f004 f88b 	bl	dae5c <strcmp>
   d6d46:	bb60      	cbnz	r0, d6da2 <_ZN11TinyGPSPlus16endOfTermHandlerEv+0x11a>
         p->commit();
   d6d48:	4630      	mov	r0, r6
   d6d4a:	f7ff ff8d 	bl	d6c68 <_ZN13TinyGPSCustom6commitEv>
      for (TinyGPSCustom *p = customCandidates; p != NULL && strcmp(p->sentenceName, customCandidates->sentenceName) == 0; p = p->next)
   d6d4e:	6b36      	ldr	r6, [r6, #48]	; 0x30
   d6d50:	e7f2      	b.n	d6d38 <_ZN11TinyGPSPlus16endOfTermHandlerEv+0xb0>
        tempData.time.commit();
   d6d52:	f504 7080 	add.w	r0, r4, #256	; 0x100
   d6d56:	f7ff ff4a 	bl	d6bee <_ZN11TinyGPSTime6commitEv>
        if (sentenceHasFix)
   d6d5a:	f894 3184 	ldrb.w	r3, [r4, #388]	; 0x184
   d6d5e:	f104 06b8 	add.w	r6, r4, #184	; 0xb8
   d6d62:	b18b      	cbz	r3, d6d88 <_ZN11TinyGPSPlus16endOfTermHandlerEv+0x100>
          tempData.location.commit();
   d6d64:	4630      	mov	r0, r6
   d6d66:	f7ff fed3 	bl	d6b10 <_ZN15TinyGPSLocation6commitEv>
          tempData.altitude.commit();
   d6d6a:	f504 7098 	add.w	r0, r4, #304	; 0x130
   d6d6e:	f7ff ff57 	bl	d6c20 <_ZN14TinyGPSDecimal6commitEv>
          tempData.geoidSeparation.commit();
   d6d72:	f504 70a0 	add.w	r0, r4, #320	; 0x140
   d6d76:	f7ff ff53 	bl	d6c20 <_ZN14TinyGPSDecimal6commitEv>
        tempData.satellites.commit();
   d6d7a:	f504 70a8 	add.w	r0, r4, #336	; 0x150
   d6d7e:	f7ff ff61 	bl	d6c44 <_ZN14TinyGPSInteger6commitEv>
        tempData.hdop.commit();
   d6d82:	f504 70b0 	add.w	r0, r4, #352	; 0x160
   d6d86:	e7bf      	b.n	d6d08 <_ZN11TinyGPSPlus16endOfTermHandlerEv+0x80>
	void invalidate() { valid = false; }
   d6d88:	f884 30b8 	strb.w	r3, [r4, #184]	; 0xb8
	void invalidate() { valid = false; }
   d6d8c:	f884 3130 	strb.w	r3, [r4, #304]	; 0x130
   d6d90:	f884 3140 	strb.w	r3, [r4, #320]	; 0x140
   d6d94:	e7f1      	b.n	d6d7a <_ZN11TinyGPSPlus16endOfTermHandlerEv+0xf2>
      ++failedChecksumCount;
   d6d96:	f8d4 3198 	ldr.w	r3, [r4, #408]	; 0x198
   d6d9a:	3301      	adds	r3, #1
   d6d9c:	f8c4 3198 	str.w	r3, [r4, #408]	; 0x198
    return false;
   d6da0:	2500      	movs	r5, #0
}
   d6da2:	4628      	mov	r0, r5
   d6da4:	bdf8      	pop	{r3, r4, r5, r6, r7, pc}
  if (curTermNumber == 0)
   d6da6:	f890 2182 	ldrb.w	r2, [r0, #386]	; 0x182
   d6daa:	bb6a      	cbnz	r2, d6e08 <_ZN11TinyGPSPlus16endOfTermHandlerEv+0x180>
    if (!strcmp(term, _GPRMCterm) || !strcmp(term, "GNRMC"))
   d6dac:	f500 76b9 	add.w	r6, r0, #370	; 0x172
   d6db0:	4960      	ldr	r1, [pc, #384]	; (d6f34 <_ZN11TinyGPSPlus16endOfTermHandlerEv+0x2ac>)
   d6db2:	4630      	mov	r0, r6
   d6db4:	f004 f852 	bl	dae5c <strcmp>
   d6db8:	b120      	cbz	r0, d6dc4 <_ZN11TinyGPSPlus16endOfTermHandlerEv+0x13c>
   d6dba:	495f      	ldr	r1, [pc, #380]	; (d6f38 <_ZN11TinyGPSPlus16endOfTermHandlerEv+0x2b0>)
   d6dbc:	4630      	mov	r0, r6
   d6dbe:	f004 f84d 	bl	dae5c <strcmp>
   d6dc2:	b998      	cbnz	r0, d6dec <_ZN11TinyGPSPlus16endOfTermHandlerEv+0x164>
      curSentenceType = GPS_SENTENCE_GPRMC;
   d6dc4:	2301      	movs	r3, #1
      curSentenceType = GPS_SENTENCE_OTHER;
   d6dc6:	f884 3181 	strb.w	r3, [r4, #385]	; 0x181
    for (customCandidates = customElts; customCandidates != NULL && strcmp(customCandidates->sentenceName, term) < 0; customCandidates = customCandidates->next);
   d6dca:	f8d4 3188 	ldr.w	r3, [r4, #392]	; 0x188
   d6dce:	f8c4 318c 	str.w	r3, [r4, #396]	; 0x18c
   d6dd2:	f8d4 718c 	ldr.w	r7, [r4, #396]	; 0x18c
   d6dd6:	2f00      	cmp	r7, #0
   d6dd8:	d0e3      	beq.n	d6da2 <_ZN11TinyGPSPlus16endOfTermHandlerEv+0x11a>
   d6dda:	6ab8      	ldr	r0, [r7, #40]	; 0x28
   d6ddc:	4631      	mov	r1, r6
   d6dde:	f004 f83d 	bl	dae5c <strcmp>
   d6de2:	2800      	cmp	r0, #0
   d6de4:	f280 809f 	bge.w	d6f26 <_ZN11TinyGPSPlus16endOfTermHandlerEv+0x29e>
   d6de8:	6b3b      	ldr	r3, [r7, #48]	; 0x30
   d6dea:	e7f0      	b.n	d6dce <_ZN11TinyGPSPlus16endOfTermHandlerEv+0x146>
    else if (!strcmp(term, _GPGGAterm) ||!strcmp(term, "GNGGA"))
   d6dec:	4953      	ldr	r1, [pc, #332]	; (d6f3c <_ZN11TinyGPSPlus16endOfTermHandlerEv+0x2b4>)
   d6dee:	4630      	mov	r0, r6
   d6df0:	f004 f834 	bl	dae5c <strcmp>
   d6df4:	b120      	cbz	r0, d6e00 <_ZN11TinyGPSPlus16endOfTermHandlerEv+0x178>
   d6df6:	4952      	ldr	r1, [pc, #328]	; (d6f40 <_ZN11TinyGPSPlus16endOfTermHandlerEv+0x2b8>)
   d6df8:	4630      	mov	r0, r6
   d6dfa:	f004 f82f 	bl	dae5c <strcmp>
   d6dfe:	b908      	cbnz	r0, d6e04 <_ZN11TinyGPSPlus16endOfTermHandlerEv+0x17c>
      curSentenceType = GPS_SENTENCE_GPGGA;
   d6e00:	2300      	movs	r3, #0
   d6e02:	e7e0      	b.n	d6dc6 <_ZN11TinyGPSPlus16endOfTermHandlerEv+0x13e>
      curSentenceType = GPS_SENTENCE_OTHER;
   d6e04:	2302      	movs	r3, #2
   d6e06:	e7de      	b.n	d6dc6 <_ZN11TinyGPSPlus16endOfTermHandlerEv+0x13e>
  if (curSentenceType != GPS_SENTENCE_OTHER && term[0])
   d6e08:	f890 1181 	ldrb.w	r1, [r0, #385]	; 0x181
   d6e0c:	2902      	cmp	r1, #2
   d6e0e:	d024      	beq.n	d6e5a <_ZN11TinyGPSPlus16endOfTermHandlerEv+0x1d2>
   d6e10:	f890 3172 	ldrb.w	r3, [r0, #370]	; 0x172
   d6e14:	b30b      	cbz	r3, d6e5a <_ZN11TinyGPSPlus16endOfTermHandlerEv+0x1d2>
    switch(COMBINE(curSentenceType, curTermNumber))
   d6e16:	ea42 1241 	orr.w	r2, r2, r1, lsl #5
   d6e1a:	3a01      	subs	r2, #1
   d6e1c:	2a28      	cmp	r2, #40	; 0x28
   d6e1e:	d81c      	bhi.n	d6e5a <_ZN11TinyGPSPlus16endOfTermHandlerEv+0x1d2>
   d6e20:	e8df f002 	tbb	[pc, r2]
   d6e24:	4a433c15 	.word	0x4a433c15
   d6e28:	726b664d 	.word	0x726b664d
   d6e2c:	1b7c1b77 	.word	0x1b7c1b77
   d6e30:	1b1b1b1b 	.word	0x1b1b1b1b
   d6e34:	1b1b1b1b 	.word	0x1b1b1b1b
   d6e38:	1b1b1b1b 	.word	0x1b1b1b1b
   d6e3c:	1b1b1b1b 	.word	0x1b1b1b1b
   d6e40:	1b1b1b1b 	.word	0x1b1b1b1b
   d6e44:	433c3515 	.word	0x433c3515
   d6e48:	5b544d4a 	.word	0x5b544d4a
   d6e4c:	60          	.byte	0x60
   d6e4d:	00          	.byte	0x00
	  tempData.time.setTime(term);
   d6e4e:	f500 71b9 	add.w	r1, r0, #370	; 0x172
   d6e52:	f500 7080 	add.w	r0, r0, #256	; 0x100
   d6e56:	f7ff fed5 	bl	d6c04 <_ZN11TinyGPSTime7setTimeEPKc>
  for (TinyGPSCustom *p = customCandidates; p != NULL && strcmp(p->sentenceName, customCandidates->sentenceName) == 0 && p->termNumber <= curTermNumber; p = p->next)
   d6e5a:	f8d4 618c 	ldr.w	r6, [r4, #396]	; 0x18c
         p->set(term);
   d6e5e:	f504 77b9 	add.w	r7, r4, #370	; 0x172
  for (TinyGPSCustom *p = customCandidates; p != NULL && strcmp(p->sentenceName, customCandidates->sentenceName) == 0 && p->termNumber <= curTermNumber; p = p->next)
   d6e62:	2e00      	cmp	r6, #0
   d6e64:	d09d      	beq.n	d6da2 <_ZN11TinyGPSPlus16endOfTermHandlerEv+0x11a>
   d6e66:	f8d4 318c 	ldr.w	r3, [r4, #396]	; 0x18c
   d6e6a:	6ab0      	ldr	r0, [r6, #40]	; 0x28
   d6e6c:	6a99      	ldr	r1, [r3, #40]	; 0x28
   d6e6e:	f003 fff5 	bl	dae5c <strcmp>
   d6e72:	2800      	cmp	r0, #0
   d6e74:	d195      	bne.n	d6da2 <_ZN11TinyGPSPlus16endOfTermHandlerEv+0x11a>
   d6e76:	6af2      	ldr	r2, [r6, #44]	; 0x2c
   d6e78:	f894 3182 	ldrb.w	r3, [r4, #386]	; 0x182
   d6e7c:	429a      	cmp	r2, r3
   d6e7e:	dc90      	bgt.n	d6da2 <_ZN11TinyGPSPlus16endOfTermHandlerEv+0x11a>
    if (p->termNumber == curTermNumber)
   d6e80:	d103      	bne.n	d6e8a <_ZN11TinyGPSPlus16endOfTermHandlerEv+0x202>
         p->set(term);
   d6e82:	4639      	mov	r1, r7
   d6e84:	4630      	mov	r0, r6
   d6e86:	f7ff fefc 	bl	d6c82 <_ZN13TinyGPSCustom3setEPKc>
  for (TinyGPSCustom *p = customCandidates; p != NULL && strcmp(p->sentenceName, customCandidates->sentenceName) == 0 && p->termNumber <= curTermNumber; p = p->next)
   d6e8a:	6b36      	ldr	r6, [r6, #48]	; 0x30
   d6e8c:	e7e9      	b.n	d6e62 <_ZN11TinyGPSPlus16endOfTermHandlerEv+0x1da>
      sentenceHasFix = term[0] == 'A';
   d6e8e:	f1a3 0041 	sub.w	r0, r3, #65	; 0x41
   d6e92:	4243      	negs	r3, r0
   d6e94:	4143      	adcs	r3, r0
      sentenceHasFix = term[0] > '0';
   d6e96:	f884 3184 	strb.w	r3, [r4, #388]	; 0x184
      break;
   d6e9a:	e7de      	b.n	d6e5a <_ZN11TinyGPSPlus16endOfTermHandlerEv+0x1d2>
   TinyGPSPlus::parseDegrees(term, rawNewLatData);
   d6e9c:	f100 01d4 	add.w	r1, r0, #212	; 0xd4
   TinyGPSPlus::parseDegrees(term, rawNewLngData);
   d6ea0:	f504 70b9 	add.w	r0, r4, #370	; 0x172
   d6ea4:	f7ff fe04 	bl	d6ab0 <_ZN11TinyGPSPlus12parseDegreesEPKcR10RawDegrees>
}
   d6ea8:	e7d7      	b.n	d6e5a <_ZN11TinyGPSPlus16endOfTermHandlerEv+0x1d2>
      tempData.location.rawNewLatData.negative = term[0] == 'S';
   d6eaa:	f1a3 0153 	sub.w	r1, r3, #83	; 0x53
   d6eae:	424b      	negs	r3, r1
   d6eb0:	414b      	adcs	r3, r1
   d6eb2:	f880 30dc 	strb.w	r3, [r0, #220]	; 0xdc
      break;
   d6eb6:	e7d0      	b.n	d6e5a <_ZN11TinyGPSPlus16endOfTermHandlerEv+0x1d2>
   TinyGPSPlus::parseDegrees(term, rawNewLngData);
   d6eb8:	f100 01e0 	add.w	r1, r0, #224	; 0xe0
   d6ebc:	e7f0      	b.n	d6ea0 <_ZN11TinyGPSPlus16endOfTermHandlerEv+0x218>
      tempData.location.rawNewLngData.negative = term[0] == 'W';
   d6ebe:	f1a3 0257 	sub.w	r2, r3, #87	; 0x57
   d6ec2:	4253      	negs	r3, r2
   d6ec4:	4153      	adcs	r3, r2
   d6ec6:	f880 30e8 	strb.w	r3, [r0, #232]	; 0xe8
      break;
   d6eca:	e7c6      	b.n	d6e5a <_ZN11TinyGPSPlus16endOfTermHandlerEv+0x1d2>
	  tempData.speed.set(term);
   d6ecc:	f500 71b9 	add.w	r1, r0, #370	; 0x172
   d6ed0:	f500 7088 	add.w	r0, r0, #272	; 0x110
	  tempData.geoidSeparation.set(term);
   d6ed4:	f7ff feaf 	bl	d6c36 <_ZN14TinyGPSDecimal3setEPKc>
      break;
   d6ed8:	e7bf      	b.n	d6e5a <_ZN11TinyGPSPlus16endOfTermHandlerEv+0x1d2>
	  tempData.course.set(term);
   d6eda:	f500 71b9 	add.w	r1, r0, #370	; 0x172
   d6ede:	f500 7090 	add.w	r0, r0, #288	; 0x120
   d6ee2:	e7f7      	b.n	d6ed4 <_ZN11TinyGPSPlus16endOfTermHandlerEv+0x24c>
	  tempData.date.setDate(term);
   d6ee4:	f500 71b9 	add.w	r1, r0, #370	; 0x172
   d6ee8:	30f0      	adds	r0, #240	; 0xf0
   d6eea:	f7ff fe92 	bl	d6c12 <_ZN11TinyGPSDate7setDateEPKc>
      break;
   d6eee:	e7b4      	b.n	d6e5a <_ZN11TinyGPSPlus16endOfTermHandlerEv+0x1d2>
      sentenceHasFix = term[0] > '0';
   d6ef0:	2b30      	cmp	r3, #48	; 0x30
   d6ef2:	bf94      	ite	ls
   d6ef4:	2300      	movls	r3, #0
   d6ef6:	2301      	movhi	r3, #1
   d6ef8:	e7cd      	b.n	d6e96 <_ZN11TinyGPSPlus16endOfTermHandlerEv+0x20e>
	  tempData.satellites.set(term);
   d6efa:	f500 71b9 	add.w	r1, r0, #370	; 0x172
   d6efe:	f500 70a8 	add.w	r0, r0, #336	; 0x150
   d6f02:	f7ff feaa 	bl	d6c5a <_ZN14TinyGPSInteger3setEPKc>
      break;
   d6f06:	e7a8      	b.n	d6e5a <_ZN11TinyGPSPlus16endOfTermHandlerEv+0x1d2>
	  tempData.hdop.set(term);
   d6f08:	f500 71b9 	add.w	r1, r0, #370	; 0x172
   d6f0c:	f500 70b0 	add.w	r0, r0, #352	; 0x160
   d6f10:	e7e0      	b.n	d6ed4 <_ZN11TinyGPSPlus16endOfTermHandlerEv+0x24c>
	  tempData.altitude.set(term);
   d6f12:	f500 71b9 	add.w	r1, r0, #370	; 0x172
   d6f16:	f500 7098 	add.w	r0, r0, #304	; 0x130
   d6f1a:	e7db      	b.n	d6ed4 <_ZN11TinyGPSPlus16endOfTermHandlerEv+0x24c>
	  tempData.geoidSeparation.set(term);
   d6f1c:	f500 71b9 	add.w	r1, r0, #370	; 0x172
   d6f20:	f500 70a0 	add.w	r0, r0, #320	; 0x140
   d6f24:	e7d6      	b.n	d6ed4 <_ZN11TinyGPSPlus16endOfTermHandlerEv+0x24c>
    if (customCandidates != NULL && strcmp(customCandidates->sentenceName, term) > 0)
   d6f26:	f43f af3c 	beq.w	d6da2 <_ZN11TinyGPSPlus16endOfTermHandlerEv+0x11a>
       customCandidates = NULL;
   d6f2a:	2300      	movs	r3, #0
   d6f2c:	f8c4 318c 	str.w	r3, [r4, #396]	; 0x18c
   d6f30:	e737      	b.n	d6da2 <_ZN11TinyGPSPlus16endOfTermHandlerEv+0x11a>
   d6f32:	bf00      	nop
   d6f34:	000db79c 	.word	0x000db79c
   d6f38:	000db7a2 	.word	0x000db7a2
   d6f3c:	000db7a8 	.word	0x000db7a8
   d6f40:	000db7ae 	.word	0x000db7ae

000d6f44 <_ZN11TinyGPSPlus6encodeEc>:
{
   d6f44:	b538      	push	{r3, r4, r5, lr}
  ++encodedCharCount;
   d6f46:	f8d0 3190 	ldr.w	r3, [r0, #400]	; 0x190
  switch(c)
   d6f4a:	2924      	cmp	r1, #36	; 0x24
  ++encodedCharCount;
   d6f4c:	f103 0301 	add.w	r3, r3, #1
{
   d6f50:	4604      	mov	r4, r0
   d6f52:	460d      	mov	r5, r1
  ++encodedCharCount;
   d6f54:	f8c0 3190 	str.w	r3, [r0, #400]	; 0x190
  switch(c)
   d6f58:	d03a      	beq.n	d6fd0 <_ZN11TinyGPSPlus6encodeEc+0x8c>
   d6f5a:	f890 3183 	ldrb.w	r3, [r0, #387]	; 0x183
   d6f5e:	d814      	bhi.n	d6f8a <_ZN11TinyGPSPlus6encodeEc+0x46>
   d6f60:	290a      	cmp	r1, #10
   d6f62:	d01c      	beq.n	d6f9e <_ZN11TinyGPSPlus6encodeEc+0x5a>
   d6f64:	290d      	cmp	r1, #13
   d6f66:	d01a      	beq.n	d6f9e <_ZN11TinyGPSPlus6encodeEc+0x5a>
    if (curTermOffset < sizeof(term) - 1)
   d6f68:	2b0d      	cmp	r3, #13
      term[curTermOffset++] = c;
   d6f6a:	bf9f      	itttt	ls
   d6f6c:	1c5a      	addls	r2, r3, #1
   d6f6e:	191b      	addls	r3, r3, r4
   d6f70:	f884 2183 	strbls.w	r2, [r4, #387]	; 0x183
   d6f74:	f883 5172 	strbls.w	r5, [r3, #370]	; 0x172
    if (!isChecksumTerm)
   d6f78:	f894 0171 	ldrb.w	r0, [r4, #369]	; 0x171
   d6f7c:	bb98      	cbnz	r0, d6fe6 <_ZN11TinyGPSPlus6encodeEc+0xa2>
      parity ^= c;
   d6f7e:	f894 1170 	ldrb.w	r1, [r4, #368]	; 0x170
   d6f82:	404d      	eors	r5, r1
   d6f84:	f884 5170 	strb.w	r5, [r4, #368]	; 0x170
   d6f88:	e021      	b.n	d6fce <_ZN11TinyGPSPlus6encodeEc+0x8a>
  switch(c)
   d6f8a:	292a      	cmp	r1, #42	; 0x2a
   d6f8c:	d007      	beq.n	d6f9e <_ZN11TinyGPSPlus6encodeEc+0x5a>
   d6f8e:	292c      	cmp	r1, #44	; 0x2c
   d6f90:	d1ea      	bne.n	d6f68 <_ZN11TinyGPSPlus6encodeEc+0x24>
    parity ^= (uint8_t)c;
   d6f92:	f890 2170 	ldrb.w	r2, [r0, #368]	; 0x170
   d6f96:	f082 022c 	eor.w	r2, r2, #44	; 0x2c
   d6f9a:	f880 2170 	strb.w	r2, [r0, #368]	; 0x170
      if (curTermOffset < sizeof(term))
   d6f9e:	2b0e      	cmp	r3, #14
   d6fa0:	f04f 0000 	mov.w	r0, #0
   d6fa4:	d805      	bhi.n	d6fb2 <_ZN11TinyGPSPlus6encodeEc+0x6e>
        term[curTermOffset] = 0;
   d6fa6:	4423      	add	r3, r4
   d6fa8:	f883 0172 	strb.w	r0, [r3, #370]	; 0x172
        isValidSentence = endOfTermHandler();
   d6fac:	4620      	mov	r0, r4
   d6fae:	f7ff fe6b 	bl	d6c88 <_ZN11TinyGPSPlus16endOfTermHandlerEv>
      ++curTermNumber;
   d6fb2:	f894 3182 	ldrb.w	r3, [r4, #386]	; 0x182
   d6fb6:	3301      	adds	r3, #1
   d6fb8:	f884 3182 	strb.w	r3, [r4, #386]	; 0x182
      curTermOffset = 0;
   d6fbc:	2300      	movs	r3, #0
   d6fbe:	f884 3183 	strb.w	r3, [r4, #387]	; 0x183
      isChecksumTerm = c == '*';
   d6fc2:	f1a5 032a 	sub.w	r3, r5, #42	; 0x2a
   d6fc6:	425d      	negs	r5, r3
   d6fc8:	415d      	adcs	r5, r3
   d6fca:	f884 5171 	strb.w	r5, [r4, #369]	; 0x171
}
   d6fce:	bd38      	pop	{r3, r4, r5, pc}
    parity = 0;
   d6fd0:	2000      	movs	r0, #0
    curSentenceType = GPS_SENTENCE_OTHER;
   d6fd2:	2302      	movs	r3, #2
    parity = 0;
   d6fd4:	f8a4 0170 	strh.w	r0, [r4, #368]	; 0x170
    curSentenceType = GPS_SENTENCE_OTHER;
   d6fd8:	f884 3181 	strb.w	r3, [r4, #385]	; 0x181
    curTermNumber = curTermOffset = 0;
   d6fdc:	f8a4 0182 	strh.w	r0, [r4, #386]	; 0x182
    sentenceHasFix = false;
   d6fe0:	f884 0184 	strb.w	r0, [r4, #388]	; 0x184
    return false;
   d6fe4:	e7f3      	b.n	d6fce <_ZN11TinyGPSPlus6encodeEc+0x8a>
    return false;
   d6fe6:	2000      	movs	r0, #0
   d6fe8:	e7f1      	b.n	d6fce <_ZN11TinyGPSPlus6encodeEc+0x8a>

000d6fea <_ZSt4swapISt9_Any_dataENSt9enable_ifIXsrSt6__and_IJSt6__not_ISt15__is_tuple_likeIT_EESt21is_move_constructibleIS5_ESt18is_move_assignableIS5_EEE5valueEvE4typeERS5_SF_>:
    swap(_Tp& __a, _Tp& __b)
   d6fea:	b513      	push	{r0, r1, r4, lr}
   d6fec:	460b      	mov	r3, r1
   d6fee:	4602      	mov	r2, r0
      _Tp __tmp = _GLIBCXX_MOVE(__a);
   d6ff0:	e9d0 0100 	ldrd	r0, r1, [r0]
   d6ff4:	466c      	mov	r4, sp
   d6ff6:	e884 0003 	stmia.w	r4, {r0, r1}
      __a = _GLIBCXX_MOVE(__b);
   d6ffa:	e893 0003 	ldmia.w	r3, {r0, r1}
   d6ffe:	e882 0003 	stmia.w	r2, {r0, r1}
      __b = _GLIBCXX_MOVE(__tmp);
   d7002:	e894 0003 	ldmia.w	r4, {r0, r1}
   d7006:	e883 0003 	stmia.w	r3, {r0, r1}
    }
   d700a:	b002      	add	sp, #8
   d700c:	bd10      	pop	{r4, pc}
	...

000d7010 <_GLOBAL__sub_I__ZN16UbloxCommandBaseC2EPhj>:
   d7010:	4b03      	ldr	r3, [pc, #12]	; (d7020 <_GLOBAL__sub_I__ZN16UbloxCommandBaseC2EPhj+0x10>)
   d7012:	2201      	movs	r2, #1
   d7014:	701a      	strb	r2, [r3, #0]
   d7016:	4b03      	ldr	r3, [pc, #12]	; (d7024 <_GLOBAL__sub_I__ZN16UbloxCommandBaseC2EPhj+0x14>)
   d7018:	4a03      	ldr	r2, [pc, #12]	; (d7028 <_GLOBAL__sub_I__ZN16UbloxCommandBaseC2EPhj+0x18>)
   d701a:	601a      	str	r2, [r3, #0]
bool AssistNowDownload::alloc(size_t bufferSize) {
	this->bufferSize = bufferSize;
	this->buffer = new uint8_t[bufferSize];

	return (this->buffer != NULL);
}
   d701c:	4770      	bx	lr
   d701e:	bf00      	nop
   d7020:	2003e5d4 	.word	0x2003e5d4
   d7024:	2003e5d0 	.word	0x2003e5d0
   d7028:	000db7b4 	.word	0x000db7b4

000d702c <_ZN7DS18B20C1Etb>:
#include "DS18B20.h"

DS18B20::DS18B20(uint16_t pin, bool singleDrop)
   d702c:	b537      	push	{r0, r1, r2, r4, r5, lr}
{
  memset(_data, 0, sizeof(_data));
   d702e:	2300      	movs	r3, #0
   d7030:	6043      	str	r3, [r0, #4]
   d7032:	6083      	str	r3, [r0, #8]
   d7034:	60c3      	str	r3, [r0, #12]
  memset(_addr, 0, sizeof(_addr));
   d7036:	6103      	str	r3, [r0, #16]
   d7038:	6143      	str	r3, [r0, #20]
  _dataCRC    = 0; 
   d703a:	8303      	strh	r3, [r0, #24]
  _readCRC    = 0;
  _singleDrop = singleDrop;
   d703c:	7682      	strb	r2, [r0, #26]
DS18B20::DS18B20(uint16_t pin, bool singleDrop)
   d703e:	4604      	mov	r4, r0
  ds          = new OneWire(pin);
   d7040:	200e      	movs	r0, #14
DS18B20::DS18B20(uint16_t pin, bool singleDrop)
   d7042:	9101      	str	r1, [sp, #4]
  ds          = new OneWire(pin);
   d7044:	f7fd f827 	bl	d4096 <_Znwj>
   d7048:	4605      	mov	r5, r0
   d704a:	b110      	cbz	r0, d7052 <_ZN7DS18B20C1Etb+0x26>
   d704c:	9901      	ldr	r1, [sp, #4]
   d704e:	f000 fba9 	bl	d77a4 <_ZN7OneWireC1Et>
}
   d7052:	4620      	mov	r0, r4
  ds          = new OneWire(pin);
   d7054:	6025      	str	r5, [r4, #0]
}
   d7056:	b003      	add	sp, #12
   d7058:	bd30      	pop	{r4, r5, pc}

000d705a <_ZN7DS18B206searchEPh>:
{
  return search(_addr);
}

boolean DS18B20::search(uint8_t addr[8])
{
   d705a:	b538      	push	{r3, r4, r5, lr}
  boolean isSuccess = ds->search(_addr);
   d705c:	f100 0510 	add.w	r5, r0, #16
{
   d7060:	460c      	mov	r4, r1
  boolean isSuccess = ds->search(_addr);
   d7062:	6800      	ldr	r0, [r0, #0]
   d7064:	4629      	mov	r1, r5
   d7066:	f000 fc8d 	bl	d7984 <_ZN7OneWire6searchEPh>
   d706a:	1e03      	subs	r3, r0, #0
  if (isSuccess) memcpy(addr, _addr, 8);
   d706c:	bf1d      	ittte	ne
   d706e:	682b      	ldrne	r3, [r5, #0]
   d7070:	6023      	strne	r3, [r4, #0]
   d7072:	686b      	ldrne	r3, [r5, #4]
  else           memset(addr, 0, 8);
   d7074:	6023      	streq	r3, [r4, #0]
  boolean isSuccess = ds->search(_addr);
   d7076:	bf14      	ite	ne
   d7078:	2001      	movne	r0, #1
   d707a:	2000      	moveq	r0, #0
  else           memset(addr, 0, 8);
   d707c:	6063      	str	r3, [r4, #4]
  return isSuccess;
}
   d707e:	bd38      	pop	{r3, r4, r5, pc}

000d7080 <_ZN7DS18B20D1Ev>:

DS18B20::~DS18B20()
   d7080:	b510      	push	{r4, lr}
   d7082:	4604      	mov	r4, r0
{
  delete(ds);
   d7084:	6800      	ldr	r0, [r0, #0]
   d7086:	b110      	cbz	r0, d708e <_ZN7DS18B20D1Ev+0xe>
   d7088:	210e      	movs	r1, #14
   d708a:	f003 f9ca 	bl	da422 <_ZdlPvj>
}
   d708e:	4620      	mov	r0, r4
   d7090:	bd10      	pop	{r4, pc}

000d7092 <_ZN7DS18B2011resetsearchEv>:
  memcpy(_addr, addr, 8);
}

void DS18B20::resetsearch()
{
  ds->reset_search();
   d7092:	6800      	ldr	r0, [r0, #0]
   d7094:	f000 bc6e 	b.w	d7974 <_ZN7OneWire12reset_searchEv>

000d7098 <_ZN7DS18B2014getTemperatureEPhb>:
  }
  return getTemperature(_addr, forceSelect);
}

float DS18B20::getTemperature(uint8_t addr[8], bool forceSelect)
{
   d7098:	e92d 41f0 	stmdb	sp!, {r4, r5, r6, r7, r8, lr}
  float celsius = NAN;
  if (!_singleDrop && addr[0] == WIRE_UNKNOWN) return NAN;
   d709c:	7e83      	ldrb	r3, [r0, #26]
{
   d709e:	4604      	mov	r4, r0
   d70a0:	460d      	mov	r5, r1
   d70a2:	4616      	mov	r6, r2
  if (!_singleDrop && addr[0] == WIRE_UNKNOWN) return NAN;
   d70a4:	b92b      	cbnz	r3, d70b2 <_ZN7DS18B2014getTemperatureEPhb+0x1a>
   d70a6:	780b      	ldrb	r3, [r1, #0]
   d70a8:	b91b      	cbnz	r3, d70b2 <_ZN7DS18B2014getTemperatureEPhb+0x1a>
  // because the result is a 16 bit signed integer, it should
  // be stored to an "int16_t" type, which is always 16 bits
  // even when compiled on a 32 bit processor.

  int16_t raw;
  switch(addr[0]) 
   d70aa:	ed9f 0a57 	vldr	s0, [pc, #348]	; d7208 <_ZN7DS18B2014getTemperatureEPhb+0x170>
      celsius = NAN;
      break;                            
  }
  
  return celsius;
}
   d70ae:	e8bd 81f0 	ldmia.w	sp!, {r4, r5, r6, r7, r8, pc}
  ds->reset();
   d70b2:	6820      	ldr	r0, [r4, #0]
   d70b4:	f000 fb80 	bl	d77b8 <_ZN7OneWire5resetEv>
  if (_singleDrop && !forceSelect)
   d70b8:	7ea3      	ldrb	r3, [r4, #26]
   d70ba:	2b00      	cmp	r3, #0
   d70bc:	d05d      	beq.n	d717a <_ZN7DS18B2014getTemperatureEPhb+0xe2>
   d70be:	2e00      	cmp	r6, #0
   d70c0:	d15b      	bne.n	d717a <_ZN7DS18B2014getTemperatureEPhb+0xe2>
    ds->skip();
   d70c2:	6820      	ldr	r0, [r4, #0]
   d70c4:	f000 fc52 	bl	d796c <_ZN7OneWire4skipEv>
  ds->write(0x44);        // start conversion, with parasite power on at the end
   d70c8:	2200      	movs	r2, #0
   d70ca:	2144      	movs	r1, #68	; 0x44
   d70cc:	6820      	ldr	r0, [r4, #0]
   d70ce:	f000 fc08 	bl	d78e2 <_ZN7OneWire5writeEhh>
  delay(750);     // maybe 750ms is enough, maybe not
   d70d2:	f240 20ee 	movw	r0, #750	; 0x2ee
   d70d6:	f001 fbb5 	bl	d8844 <delay>
  ds->reset();
   d70da:	6820      	ldr	r0, [r4, #0]
   d70dc:	f000 fb6c 	bl	d77b8 <_ZN7OneWire5resetEv>
  if (_singleDrop && !forceSelect)
   d70e0:	7ea3      	ldrb	r3, [r4, #26]
   d70e2:	2b00      	cmp	r3, #0
   d70e4:	d04e      	beq.n	d7184 <_ZN7DS18B2014getTemperatureEPhb+0xec>
   d70e6:	2e00      	cmp	r6, #0
   d70e8:	d14c      	bne.n	d7184 <_ZN7DS18B2014getTemperatureEPhb+0xec>
    ds->skip();
   d70ea:	6820      	ldr	r0, [r4, #0]
   d70ec:	f000 fc3e 	bl	d796c <_ZN7OneWire4skipEv>
  ds->write(0xBE);         // Read Scratchpad
   d70f0:	6820      	ldr	r0, [r4, #0]
   d70f2:	2200      	movs	r2, #0
   d70f4:	21be      	movs	r1, #190	; 0xbe
   d70f6:	f000 fbf4 	bl	d78e2 <_ZN7OneWire5writeEhh>
  if (addr[0] == WIRE_DS2438) {
   d70fa:	782b      	ldrb	r3, [r5, #0]
   d70fc:	2b26      	cmp	r3, #38	; 0x26
   d70fe:	d104      	bne.n	d710a <_ZN7DS18B2014getTemperatureEPhb+0x72>
    ds->write(0x00,0);     // DS2438 requires a page to read
   d7100:	2200      	movs	r2, #0
   d7102:	6820      	ldr	r0, [r4, #0]
   d7104:	4611      	mov	r1, r2
   d7106:	f000 fbec 	bl	d78e2 <_ZN7OneWire5writeEhh>
   d710a:	1d26      	adds	r6, r4, #4
   d710c:	f104 080d 	add.w	r8, r4, #13
   d7110:	4637      	mov	r7, r6
    _data[i] = ds->read();
   d7112:	6820      	ldr	r0, [r4, #0]
   d7114:	f000 fc08 	bl	d7928 <_ZN7OneWire4readEv>
   d7118:	f806 0b01 	strb.w	r0, [r6], #1
  for (int i = 0; i < 9; i++)
   d711c:	4546      	cmp	r6, r8
   d711e:	d1f8      	bne.n	d7112 <_ZN7DS18B2014getTemperatureEPhb+0x7a>
  _dataCRC = (OneWire::crc8(_data, 8));
   d7120:	2108      	movs	r1, #8
   d7122:	4638      	mov	r0, r7
   d7124:	f000 fca2 	bl	d7a6c <_ZN7OneWire4crc8EPhh>
  _readCRC = (_data[8]);
   d7128:	7b23      	ldrb	r3, [r4, #12]
  _dataCRC = (OneWire::crc8(_data, 8));
   d712a:	7620      	strb	r0, [r4, #24]
  if (_dataCRC != _readCRC) return NAN;
   d712c:	4298      	cmp	r0, r3
  _readCRC = (_data[8]);
   d712e:	7663      	strb	r3, [r4, #25]
  if (_dataCRC != _readCRC) return NAN;
   d7130:	d1bb      	bne.n	d70aa <_ZN7DS18B2014getTemperatureEPhb+0x12>
  switch(addr[0]) 
   d7132:	782b      	ldrb	r3, [r5, #0]
   d7134:	2b26      	cmp	r3, #38	; 0x26
   d7136:	d047      	beq.n	d71c8 <_ZN7DS18B2014getTemperatureEPhb+0x130>
   d7138:	d829      	bhi.n	d718e <_ZN7DS18B2014getTemperatureEPhb+0xf6>
   d713a:	2b10      	cmp	r3, #16
   d713c:	d029      	beq.n	d7192 <_ZN7DS18B2014getTemperatureEPhb+0xfa>
   d713e:	2b22      	cmp	r3, #34	; 0x22
   d7140:	d1b3      	bne.n	d70aa <_ZN7DS18B2014getTemperatureEPhb+0x12>
      switch (_data[4] & 0x60)
   d7142:	7a22      	ldrb	r2, [r4, #8]
   d7144:	7923      	ldrb	r3, [r4, #4]
   d7146:	f002 0260 	and.w	r2, r2, #96	; 0x60
   d714a:	2a20      	cmp	r2, #32
   d714c:	d036      	beq.n	d71bc <_ZN7DS18B2014getTemperatureEPhb+0x124>
   d714e:	2a40      	cmp	r2, #64	; 0x40
   d7150:	d037      	beq.n	d71c2 <_ZN7DS18B2014getTemperatureEPhb+0x12a>
   d7152:	b912      	cbnz	r2, d715a <_ZN7DS18B2014getTemperatureEPhb+0xc2>
        case 0x00: _data[0] &= ~0b111; break;           //  9 bit  93.75 ms
   d7154:	f023 0307 	bic.w	r3, r3, #7
        case 0x40: _data[0] &= ~0b001; break;           // 11 bit 375.00 ms
   d7158:	7123      	strb	r3, [r4, #4]
      celsius = (int16_t)((_data[1] << 8) | _data[0]) / 16.0;
   d715a:	7963      	ldrb	r3, [r4, #5]
   d715c:	7920      	ldrb	r0, [r4, #4]
   d715e:	ea40 2003 	orr.w	r0, r0, r3, lsl #8
   d7162:	b200      	sxth	r0, r0
   d7164:	f003 fab8 	bl	da6d8 <__aeabi_i2d>
   d7168:	4b28      	ldr	r3, [pc, #160]	; (d720c <_ZN7DS18B2014getTemperatureEPhb+0x174>)
   d716a:	2200      	movs	r2, #0
   d716c:	f003 fb1e 	bl	da7ac <__aeabi_dmul>
      celsius = (int16_t)_data[2] + ((float)(_data[1] >> 3) / 32.0) * (_data[2] & 0x80 ? -1.0 : 1.0);           
   d7170:	f003 fd4e 	bl	dac10 <__aeabi_d2f>
   d7174:	ee00 0a10 	vmov	s0, r0
      break;
   d7178:	e799      	b.n	d70ae <_ZN7DS18B2014getTemperatureEPhb+0x16>
    ds->select(addr);
   d717a:	6820      	ldr	r0, [r4, #0]
   d717c:	4629      	mov	r1, r5
   d717e:	f000 fbe3 	bl	d7948 <_ZN7OneWire6selectEPKh>
   d7182:	e7a1      	b.n	d70c8 <_ZN7DS18B2014getTemperatureEPhb+0x30>
    ds->select(addr);
   d7184:	6820      	ldr	r0, [r4, #0]
   d7186:	4629      	mov	r1, r5
   d7188:	f000 fbde 	bl	d7948 <_ZN7OneWire6selectEPKh>
   d718c:	e7b0      	b.n	d70f0 <_ZN7DS18B2014getTemperatureEPhb+0x58>
  switch(addr[0]) 
   d718e:	2b28      	cmp	r3, #40	; 0x28
   d7190:	e7d6      	b.n	d7140 <_ZN7DS18B2014getTemperatureEPhb+0xa8>
      if (_data[7] == 0x10)                             // "count remain" gives full 12 bit resolution
   d7192:	7ae3      	ldrb	r3, [r4, #11]
      raw = ((_data[1] << 8) | _data[0]) << 3;          // 9 bit resolution default
   d7194:	88a2      	ldrh	r2, [r4, #4]
      if (_data[7] == 0x10)                             // "count remain" gives full 12 bit resolution
   d7196:	2b10      	cmp	r3, #16
        raw = (raw & 0xFFF0) + 12 - _data[6];     
   d7198:	bf08      	it	eq
   d719a:	7aa3      	ldrbeq	r3, [r4, #10]
      raw = ((_data[1] << 8) | _data[0]) << 3;          // 9 bit resolution default
   d719c:	ea4f 02c2 	mov.w	r2, r2, lsl #3
        raw = (raw & 0xFFF0) + 12 - _data[6];     
   d71a0:	bf03      	ittte	eq
   d71a2:	f1c3 030c 	rsbeq	r3, r3, #12
   d71a6:	f022 020f 	biceq.w	r2, r2, #15
   d71aa:	189b      	addeq	r3, r3, r2
      raw = ((_data[1] << 8) | _data[0]) << 3;          // 9 bit resolution default
   d71ac:	b213      	sxthne	r3, r2
        raw = (raw & 0xFFF0) + 12 - _data[6];     
   d71ae:	bf08      	it	eq
   d71b0:	b21b      	sxtheq	r3, r3
      celsius = (float)raw / 16.0;
   d71b2:	ee00 3a10 	vmov	s0, r3
   d71b6:	eeba 0ace 	vcvt.f32.s32	s0, s0, #4
      break;
   d71ba:	e778      	b.n	d70ae <_ZN7DS18B2014getTemperatureEPhb+0x16>
        case 0x20: _data[0] &= ~0b011; break;           // 10 bit 187.50 ms
   d71bc:	f023 0303 	bic.w	r3, r3, #3
   d71c0:	e7ca      	b.n	d7158 <_ZN7DS18B2014getTemperatureEPhb+0xc0>
        case 0x40: _data[0] &= ~0b001; break;           // 11 bit 375.00 ms
   d71c2:	f023 0301 	bic.w	r3, r3, #1
   d71c6:	e7c7      	b.n	d7158 <_ZN7DS18B2014getTemperatureEPhb+0xc0>
      celsius = (int16_t)_data[2] + ((float)(_data[1] >> 3) / 32.0) * (_data[2] & 0x80 ? -1.0 : 1.0);           
   d71c8:	79a5      	ldrb	r5, [r4, #6]
   d71ca:	4628      	mov	r0, r5
   d71cc:	f003 fa84 	bl	da6d8 <__aeabi_i2d>
   d71d0:	4606      	mov	r6, r0
   d71d2:	7960      	ldrb	r0, [r4, #5]
   d71d4:	10c0      	asrs	r0, r0, #3
   d71d6:	ee07 0a90 	vmov	s15, r0
   d71da:	eef8 7ae7 	vcvt.f32.s32	s15, s15
   d71de:	460f      	mov	r7, r1
   d71e0:	ee17 0a90 	vmov	r0, s15
   d71e4:	f003 fa8a 	bl	da6fc <__aeabi_f2d>
   d71e8:	4b09      	ldr	r3, [pc, #36]	; (d7210 <_ZN7DS18B2014getTemperatureEPhb+0x178>)
   d71ea:	2200      	movs	r2, #0
   d71ec:	f003 fade 	bl	da7ac <__aeabi_dmul>
   d71f0:	062b      	lsls	r3, r5, #24
   d71f2:	bf54      	ite	pl
   d71f4:	4b07      	ldrpl	r3, [pc, #28]	; (d7214 <_ZN7DS18B2014getTemperatureEPhb+0x17c>)
   d71f6:	4b08      	ldrmi	r3, [pc, #32]	; (d7218 <_ZN7DS18B2014getTemperatureEPhb+0x180>)
   d71f8:	2200      	movs	r2, #0
   d71fa:	f003 fad7 	bl	da7ac <__aeabi_dmul>
   d71fe:	4632      	mov	r2, r6
   d7200:	463b      	mov	r3, r7
   d7202:	f003 f91d 	bl	da440 <__adddf3>
   d7206:	e7b3      	b.n	d7170 <_ZN7DS18B2014getTemperatureEPhb+0xd8>
   d7208:	7fc00000 	.word	0x7fc00000
   d720c:	3fb00000 	.word	0x3fb00000
   d7210:	3fa00000 	.word	0x3fa00000
   d7214:	3ff00000 	.word	0x3ff00000
   d7218:	bff00000 	.word	0xbff00000
   d721c:	00000000 	.word	0x00000000

000d7220 <_ZN7DS18B2019convertToFahrenheitEf>:

float DS18B20::convertToFahrenheit(float celsius)
{
   d7220:	b508      	push	{r3, lr}
   d7222:	ee10 0a10 	vmov	r0, s0
  return celsius * 1.8 + 32.0;
   d7226:	f003 fa69 	bl	da6fc <__aeabi_f2d>
   d722a:	a308      	add	r3, pc, #32	; (adr r3, d724c <_ZN7DS18B2019convertToFahrenheitEf+0x2c>)
   d722c:	e9d3 2300 	ldrd	r2, r3, [r3]
   d7230:	f003 fabc 	bl	da7ac <__aeabi_dmul>
   d7234:	4b04      	ldr	r3, [pc, #16]	; (d7248 <_ZN7DS18B2019convertToFahrenheitEf+0x28>)
   d7236:	2200      	movs	r2, #0
   d7238:	f003 f902 	bl	da440 <__adddf3>
   d723c:	f003 fce8 	bl	dac10 <__aeabi_d2f>
}
   d7240:	ee00 0a10 	vmov	s0, r0
   d7244:	bd08      	pop	{r3, pc}
   d7246:	bf00      	nop
   d7248:	40400000 	.word	0x40400000
   d724c:	cccccccd 	.word	0xcccccccd
   d7250:	3ffccccc 	.word	0x3ffccccc

000d7254 <_ZN7DS18B208crcCheckEv>:

bool DS18B20::crcCheck()
{
  return (_dataCRC == _readCRC);
   d7254:	7e02      	ldrb	r2, [r0, #24]
   d7256:	7e40      	ldrb	r0, [r0, #25]
}
   d7258:	1a13      	subs	r3, r2, r0
   d725a:	4258      	negs	r0, r3
   d725c:	4158      	adcs	r0, r3
   d725e:	4770      	bx	lr

000d7260 <_ZN9LIS3DHSPID1Ev>:

LIS3DHSPI::LIS3DHSPI(SPIClass &spi, int ss, int intPin) : LIS3DH(intPin), spi(spi), ss(ss), spiSettings(10 * MHZ, MSBFIRST, SPI_MODE0) {
}

LIS3DHSPI::~LIS3DHSPI() {
}
   d7260:	4770      	bx	lr

000d7262 <_ZN9LIS3DHSPID0Ev>:
LIS3DHSPI::~LIS3DHSPI() {
   d7262:	b510      	push	{r4, lr}
}
   d7264:	2128      	movs	r1, #40	; 0x28
LIS3DHSPI::~LIS3DHSPI() {
   d7266:	4604      	mov	r4, r0
}
   d7268:	f003 f8db 	bl	da422 <_ZdlPvj>
   d726c:	4620      	mov	r0, r4
   d726e:	bd10      	pop	{r4, pc}

000d7270 <_ZN9LIS3DHSPI16beginTransactionEv>:

void LIS3DHSPI::spiSetup() {
	// No longer used; SPI transactions are always used now
}

void LIS3DHSPI::beginTransaction() {
   d7270:	b510      	push	{r4, lr}
   d7272:	4604      	mov	r4, r0
	spi.beginTransaction(spiSettings);
   d7274:	f100 0118 	add.w	r1, r0, #24
   d7278:	68c0      	ldr	r0, [r0, #12]
   d727a:	f002 f9f5 	bl	d9668 <_ZN8SPIClass16beginTransactionERKN8particle11SPISettingsE>

	digitalWrite(ss, LOW);
   d727e:	8a20      	ldrh	r0, [r4, #16]
   d7280:	2100      	movs	r1, #0
}
   d7282:	e8bd 4010 	ldmia.w	sp!, {r4, lr}
	digitalWrite(ss, LOW);
   d7286:	f003 b85a 	b.w	da33e <digitalWrite>

000d728a <_ZN9LIS3DHSPI14endTransactionEv>:

void LIS3DHSPI::endTransaction() {
   d728a:	b510      	push	{r4, lr}
   d728c:	4604      	mov	r4, r0
	digitalWrite(ss, HIGH);
   d728e:	2101      	movs	r1, #1
   d7290:	8a00      	ldrh	r0, [r0, #16]
   d7292:	f003 f854 	bl	da33e <digitalWrite>

	spi.endTransaction();
   d7296:	68e0      	ldr	r0, [r4, #12]
}
   d7298:	e8bd 4010 	ldmia.w	sp!, {r4, lr}
	spi.endTransaction();
   d729c:	f002 b9cb 	b.w	d9636 <_ZN8SPIClass14endTransactionEv>

000d72a0 <_ZN9LIS3DHSPI8readDataEhPhj>:

bool LIS3DHSPI::readData(uint8_t addr, uint8_t *buf, size_t numBytes) {
   d72a0:	b5f8      	push	{r3, r4, r5, r6, r7, lr}
   d72a2:	461e      	mov	r6, r3
	beginTransaction();
   d72a4:	6803      	ldr	r3, [r0, #0]
   d72a6:	695b      	ldr	r3, [r3, #20]
bool LIS3DHSPI::readData(uint8_t addr, uint8_t *buf, size_t numBytes) {
   d72a8:	460f      	mov	r7, r1
   d72aa:	4614      	mov	r4, r2
   d72ac:	4605      	mov	r5, r0
	beginTransaction();
   d72ae:	4798      	blx	r3

	if (numBytes > 1) {
   d72b0:	2e01      	cmp	r6, #1
		addr |= SPI_INCREMENT;
   d72b2:	bf88      	it	hi
   d72b4:	f047 0740 	orrhi.w	r7, r7, #64	; 0x40
	}

	spi.transfer(SPI_READ | addr);
   d72b8:	68e8      	ldr	r0, [r5, #12]
   d72ba:	f047 0180 	orr.w	r1, r7, #128	; 0x80
   d72be:	f002 fa41 	bl	d9744 <_ZN8SPIClass8transferEh>

	for(size_t ii = 0; ii < numBytes; ii++) {
   d72c2:	4426      	add	r6, r4
   d72c4:	42b4      	cmp	r4, r6
   d72c6:	d006      	beq.n	d72d6 <_ZN9LIS3DHSPI8readDataEhPhj+0x36>
		buf[ii] = spi.transfer(0);
   d72c8:	68e8      	ldr	r0, [r5, #12]
   d72ca:	2100      	movs	r1, #0
   d72cc:	f002 fa3a 	bl	d9744 <_ZN8SPIClass8transferEh>
   d72d0:	f804 0b01 	strb.w	r0, [r4], #1
	for(size_t ii = 0; ii < numBytes; ii++) {
   d72d4:	e7f6      	b.n	d72c4 <_ZN9LIS3DHSPI8readDataEhPhj+0x24>
	}

	endTransaction();
   d72d6:	682b      	ldr	r3, [r5, #0]
   d72d8:	4628      	mov	r0, r5
   d72da:	699b      	ldr	r3, [r3, #24]
   d72dc:	4798      	blx	r3

	return true;
}
   d72de:	2001      	movs	r0, #1
   d72e0:	bdf8      	pop	{r3, r4, r5, r6, r7, pc}

000d72e2 <_ZN9LIS3DHSPI9writeDataEhPKhj>:

bool LIS3DHSPI::writeData(uint8_t addr, const uint8_t *buf, size_t numBytes) {
   d72e2:	b5f8      	push	{r3, r4, r5, r6, r7, lr}
   d72e4:	461e      	mov	r6, r3
	beginTransaction();
   d72e6:	6803      	ldr	r3, [r0, #0]
   d72e8:	695b      	ldr	r3, [r3, #20]
bool LIS3DHSPI::writeData(uint8_t addr, const uint8_t *buf, size_t numBytes) {
   d72ea:	460f      	mov	r7, r1
   d72ec:	4614      	mov	r4, r2
   d72ee:	4605      	mov	r5, r0
	beginTransaction();
   d72f0:	4798      	blx	r3

	if (numBytes > 1) {
   d72f2:	2e01      	cmp	r6, #1
		addr |= SPI_INCREMENT;
   d72f4:	bf88      	it	hi
   d72f6:	f047 0740 	orrhi.w	r7, r7, #64	; 0x40
	}

	spi.transfer(addr);
   d72fa:	68e8      	ldr	r0, [r5, #12]
   d72fc:	4639      	mov	r1, r7
   d72fe:	f002 fa21 	bl	d9744 <_ZN8SPIClass8transferEh>
	for(size_t ii = 0; ii < numBytes; ii++) {
   d7302:	4426      	add	r6, r4
   d7304:	42b4      	cmp	r4, r6
   d7306:	d005      	beq.n	d7314 <_ZN9LIS3DHSPI9writeDataEhPKhj+0x32>
		spi.transfer(buf[ii]);
   d7308:	f814 1b01 	ldrb.w	r1, [r4], #1
   d730c:	68e8      	ldr	r0, [r5, #12]
   d730e:	f002 fa19 	bl	d9744 <_ZN8SPIClass8transferEh>
	for(size_t ii = 0; ii < numBytes; ii++) {
   d7312:	e7f7      	b.n	d7304 <_ZN9LIS3DHSPI9writeDataEhPKhj+0x22>
	}

	endTransaction();
   d7314:	682b      	ldr	r3, [r5, #0]
   d7316:	4628      	mov	r0, r5
   d7318:	699b      	ldr	r3, [r3, #24]
   d731a:	4798      	blx	r3

	return true;
}
   d731c:	2001      	movs	r0, #1
   d731e:	bdf8      	pop	{r3, r4, r5, r6, r7, pc}

000d7320 <_ZN6LIS3DHC1Ei>:
LIS3DH::LIS3DH(int intPin) : intPin(intPin) {
   d7320:	4a02      	ldr	r2, [pc, #8]	; (d732c <_ZN6LIS3DHC1Ei+0xc>)
   d7322:	e9c0 2100 	strd	r2, r1, [r0]
   d7326:	2200      	movs	r2, #0
   d7328:	7202      	strb	r2, [r0, #8]
}
   d732a:	4770      	bx	lr
   d732c:	000db7c8 	.word	0x000db7c8

000d7330 <_ZN6LIS3DH13readRegister8Eh>:
uint8_t LIS3DH::readRegister8(uint8_t addr) {
   d7330:	b513      	push	{r0, r1, r4, lr}
	readData(addr, resp, sizeof(resp));
   d7332:	6803      	ldr	r3, [r0, #0]
   d7334:	aa01      	add	r2, sp, #4
   d7336:	68dc      	ldr	r4, [r3, #12]
   d7338:	2301      	movs	r3, #1
   d733a:	47a0      	blx	r4
}
   d733c:	f89d 0004 	ldrb.w	r0, [sp, #4]
   d7340:	b002      	add	sp, #8
   d7342:	bd10      	pop	{r4, pc}

000d7344 <_ZN6LIS3DH9hasDeviceEv>:
bool LIS3DH::hasDevice() {
   d7344:	b538      	push	{r3, r4, r5, lr}
   d7346:	4605      	mov	r5, r0
   d7348:	240a      	movs	r4, #10
		uint8_t whoami = readRegister8(REG_WHO_AM_I);
   d734a:	210f      	movs	r1, #15
   d734c:	4628      	mov	r0, r5
   d734e:	f7ff ffef 	bl	d7330 <_ZN6LIS3DH13readRegister8Eh>
		if (whoami == WHO_AM_I) {
   d7352:	2833      	cmp	r0, #51	; 0x33
			found = true;
   d7354:	f04f 0001 	mov.w	r0, #1
		if (whoami == WHO_AM_I) {
   d7358:	d004      	beq.n	d7364 <_ZN6LIS3DH9hasDeviceEv+0x20>
		delay(1);
   d735a:	f001 fa73 	bl	d8844 <delay>
	for(int tries = 0; tries < 10; tries++) {
   d735e:	3c01      	subs	r4, #1
   d7360:	d1f3      	bne.n	d734a <_ZN6LIS3DH9hasDeviceEv+0x6>
	bool found = false;
   d7362:	4620      	mov	r0, r4
}
   d7364:	bd38      	pop	{r3, r4, r5, pc}

000d7366 <_ZN9LIS3DHSPI9hasDeviceEv>:
bool LIS3DHSPI::hasDevice() {
   d7366:	b510      	push	{r4, lr}
   d7368:	4604      	mov	r4, r0
	spi.begin(ss);
   d736a:	8a01      	ldrh	r1, [r0, #16]
   d736c:	68c0      	ldr	r0, [r0, #12]
   d736e:	f002 f94f 	bl	d9610 <_ZN8SPIClass5beginEt>
	return LIS3DH::hasDevice();
   d7372:	4620      	mov	r0, r4
}
   d7374:	e8bd 4010 	ldmia.w	sp!, {r4, lr}
	return LIS3DH::hasDevice();
   d7378:	f7ff bfe4 	b.w	d7344 <_ZN6LIS3DH9hasDeviceEv>

000d737c <_ZN6MB85RCD1Ev>:
MB85RC::MB85RC(TwoWire &wire, size_t memorySize, int addr) :
	wire(wire), memorySize(memorySize), addr(addr) {
}

MB85RC::~MB85RC() {
}
   d737c:	4770      	bx	lr

000d737e <_ZN6MB85RCD0Ev>:
MB85RC::~MB85RC() {
   d737e:	b510      	push	{r4, lr}
}
   d7380:	2110      	movs	r1, #16
MB85RC::~MB85RC() {
   d7382:	4604      	mov	r4, r0
}
   d7384:	f003 f84d 	bl	da422 <_ZdlPvj>
   d7388:	4620      	mov	r0, r4
   d738a:	bd10      	pop	{r4, pc}

000d738c <_ZN7TwoWire5writeEj>:
  inline size_t write(unsigned int n) { return write((uint8_t)n); }
   d738c:	6803      	ldr	r3, [r0, #0]
   d738e:	b2c9      	uxtb	r1, r1
   d7390:	689b      	ldr	r3, [r3, #8]
   d7392:	4718      	bx	r3

000d7394 <_ZN6MB85RCC1ER7TwoWireji>:
MB85RC::MB85RC(TwoWire &wire, size_t memorySize, int addr) :
   d7394:	b530      	push	{r4, r5, lr}
	wire(wire), memorySize(memorySize), addr(addr) {
   d7396:	4d03      	ldr	r5, [pc, #12]	; (d73a4 <_ZN6MB85RCC1ER7TwoWireji+0x10>)
   d7398:	e9c0 2302 	strd	r2, r3, [r0, #8]
   d739c:	e9c0 5100 	strd	r5, r1, [r0]
}
   d73a0:	bd30      	pop	{r4, r5, pc}
   d73a2:	bf00      	nop
   d73a4:	000db834 	.word	0x000db834

000d73a8 <_ZN6MB85RC5beginEv>:

void MB85RC::begin() {
	wire.begin();
   d73a8:	6840      	ldr	r0, [r0, #4]
   d73aa:	f001 bf11 	b.w	d91d0 <_ZN7TwoWire5beginEv>

000d73ae <_ZNSt10lock_guardIR7TwoWireED1Ev>:
      ~lock_guard()
   d73ae:	b510      	push	{r4, lr}
   d73b0:	4604      	mov	r4, r0
      { _M_device.unlock(); }
   d73b2:	6800      	ldr	r0, [r0, #0]
   d73b4:	f001 ff4f 	bl	d9256 <_ZN7TwoWire6unlockEv>
   d73b8:	4620      	mov	r0, r4
   d73ba:	bd10      	pop	{r4, pc}

000d73bc <_ZN6MB85RC5eraseEv>:
}

bool MB85RC::erase() {
   d73bc:	e92d 41f0 	stmdb	sp!, {r4, r5, r6, r7, r8, lr}
   d73c0:	b08a      	sub	sp, #40	; 0x28
   d73c2:	4604      	mov	r4, r0

	WITH_LOCK(wire) {
   d73c4:	6840      	ldr	r0, [r0, #4]
      explicit lock_guard(mutex_type& __m) : _M_device(__m)
   d73c6:	9001      	str	r0, [sp, #4]
      { _M_device.lock(); }
   d73c8:	f001 ff3c 	bl	d9244 <_ZN7TwoWire4lockEv>
		size_t framAddr = 0;
		size_t totalLen = memorySize;

		uint8_t zero[30];
		memset(zero, 0, sizeof(zero));
   d73cc:	221e      	movs	r2, #30
   d73ce:	2100      	movs	r1, #0
   d73d0:	a802      	add	r0, sp, #8
		size_t totalLen = memorySize;
   d73d2:	68a7      	ldr	r7, [r4, #8]
		memset(zero, 0, sizeof(zero));
   d73d4:	f003 fd16 	bl	dae04 <memset>
		size_t framAddr = 0;
   d73d8:	2600      	movs	r6, #0

		while(totalLen > 0) {
   d73da:	b1ef      	cbz	r7, d7418 <_ZN6MB85RC5eraseEv+0x5c>
			size_t count = totalLen;
			if (count > sizeof(zero)) {
				count = sizeof(zero);
			}

			bool result = writeData(framAddr, zero, count);
   d73dc:	6823      	ldr	r3, [r4, #0]
   d73de:	2f1e      	cmp	r7, #30
   d73e0:	46b8      	mov	r8, r7
   d73e2:	bf28      	it	cs
   d73e4:	f04f 081e 	movcs.w	r8, #30
   d73e8:	68dd      	ldr	r5, [r3, #12]
   d73ea:	aa02      	add	r2, sp, #8
   d73ec:	4643      	mov	r3, r8
   d73ee:	4631      	mov	r1, r6
   d73f0:	4620      	mov	r0, r4
   d73f2:	47a8      	blx	r5
			if (!result) {
   d73f4:	4605      	mov	r5, r0
   d73f6:	b958      	cbnz	r0, d7410 <_ZN6MB85RC5eraseEv+0x54>
				Log.info("writeData failed during erase framAddr=%u", framAddr);
   d73f8:	480a      	ldr	r0, [pc, #40]	; (d7424 <_ZN6MB85RC5eraseEv+0x68>)
   d73fa:	490b      	ldr	r1, [pc, #44]	; (d7428 <_ZN6MB85RC5eraseEv+0x6c>)
   d73fc:	4632      	mov	r2, r6
   d73fe:	f7fc ff64 	bl	d42ca <_ZNK5spark6Logger4infoEPKcz>
	WITH_LOCK(wire) {
   d7402:	a801      	add	r0, sp, #4
   d7404:	f7ff ffd3 	bl	d73ae <_ZNSt10lock_guardIR7TwoWireED1Ev>
			framAddr += count;
		}
	}

	return true;
}
   d7408:	4628      	mov	r0, r5
   d740a:	b00a      	add	sp, #40	; 0x28
   d740c:	e8bd 81f0 	ldmia.w	sp!, {r4, r5, r6, r7, r8, pc}
			totalLen -= count;
   d7410:	eba7 0708 	sub.w	r7, r7, r8
			framAddr += count;
   d7414:	4446      	add	r6, r8
		while(totalLen > 0) {
   d7416:	e7e0      	b.n	d73da <_ZN6MB85RC5eraseEv+0x1e>
	WITH_LOCK(wire) {
   d7418:	a801      	add	r0, sp, #4
   d741a:	f7ff ffc8 	bl	d73ae <_ZNSt10lock_guardIR7TwoWireED1Ev>
	return true;
   d741e:	2501      	movs	r5, #1
   d7420:	e7f2      	b.n	d7408 <_ZN6MB85RC5eraseEv+0x4c>
   d7422:	bf00      	nop
   d7424:	2003e624 	.word	0x2003e624
   d7428:	000db800 	.word	0x000db800

000d742c <_ZN6MB85RC8readDataEjPhj>:


bool MB85RC::readData(size_t framAddr, uint8_t *data, size_t dataLen) {
   d742c:	e92d 43f7 	stmdb	sp!, {r0, r1, r2, r4, r5, r6, r7, r8, r9, lr}
   d7430:	4604      	mov	r4, r0
	bool result = true;

	WITH_LOCK(wire) {
   d7432:	6840      	ldr	r0, [r0, #4]
      explicit lock_guard(mutex_type& __m) : _M_device(__m)
   d7434:	9001      	str	r0, [sp, #4]
bool MB85RC::readData(size_t framAddr, uint8_t *data, size_t dataLen) {
   d7436:	460d      	mov	r5, r1
   d7438:	4616      	mov	r6, r2
   d743a:	461f      	mov	r7, r3
      { _M_device.lock(); }
   d743c:	f001 ff02 	bl	d9244 <_ZN7TwoWire4lockEv>

		while(dataLen > 0) {
   d7440:	b1a7      	cbz	r7, d746c <_ZN6MB85RC8readDataEjPhj+0x40>
			wire.beginTransmission(addr | DEVICE_ADDR);
   d7442:	68e1      	ldr	r1, [r4, #12]
   d7444:	6860      	ldr	r0, [r4, #4]
   d7446:	f041 0150 	orr.w	r1, r1, #80	; 0x50
   d744a:	f001 fef4 	bl	d9236 <_ZN7TwoWire17beginTransmissionEi>
			wire.write(framAddr >> 8);
   d744e:	0a29      	lsrs	r1, r5, #8
   d7450:	6860      	ldr	r0, [r4, #4]
   d7452:	f7ff ff9b 	bl	d738c <_ZN7TwoWire5writeEj>
			wire.write(framAddr);
   d7456:	4629      	mov	r1, r5
   d7458:	6860      	ldr	r0, [r4, #4]
   d745a:	f7ff ff97 	bl	d738c <_ZN7TwoWire5writeEj>
			int stat = wire.endTransmission(false);
   d745e:	6860      	ldr	r0, [r4, #4]
   d7460:	2100      	movs	r1, #0
   d7462:	f001 feeb 	bl	d923c <_ZN7TwoWire15endTransmissionEh>
			if (stat != 0) {
   d7466:	b148      	cbz	r0, d747c <_ZN6MB85RC8readDataEjPhj+0x50>
				//Serial.printlnf("read set address failed %d", stat);
				result = false;
   d7468:	2400      	movs	r4, #0
   d746a:	e000      	b.n	d746e <_ZN6MB85RC8readDataEjPhj+0x42>
   d746c:	2401      	movs	r4, #1
	WITH_LOCK(wire) {
   d746e:	a801      	add	r0, sp, #4
   d7470:	f7ff ff9d 	bl	d73ae <_ZNSt10lock_guardIR7TwoWireED1Ev>
				dataLen--;
			}
		}
	}
	return result;
}
   d7474:	4620      	mov	r0, r4
   d7476:	b003      	add	sp, #12
   d7478:	e8bd 83f0 	ldmia.w	sp!, {r4, r5, r6, r7, r8, r9, pc}
			if (bytesToRead > 32) {
   d747c:	2f20      	cmp	r7, #32
			wire.requestFrom((uint8_t)(addr | DEVICE_ADDR), bytesToRead, (uint8_t) true);
   d747e:	7b21      	ldrb	r1, [r4, #12]
   d7480:	6860      	ldr	r0, [r4, #4]
   d7482:	46b8      	mov	r8, r7
   d7484:	bf28      	it	cs
   d7486:	f04f 0820 	movcs.w	r8, #32
   d748a:	2301      	movs	r3, #1
   d748c:	4642      	mov	r2, r8
   d748e:	f041 0150 	orr.w	r1, r1, #80	; 0x50
   d7492:	f001 feba 	bl	d920a <_ZN7TwoWire11requestFromEhjh>
			if (Wire.available() < (int) bytesToRead) {
   d7496:	f002 ff97 	bl	da3c8 <_Z19__fetch_global_Wirev>
   d749a:	6803      	ldr	r3, [r0, #0]
   d749c:	691b      	ldr	r3, [r3, #16]
   d749e:	4798      	blx	r3
   d74a0:	4540      	cmp	r0, r8
   d74a2:	dbe1      	blt.n	d7468 <_ZN6MB85RC8readDataEjPhj+0x3c>
   d74a4:	eb06 0908 	add.w	r9, r6, r8
				*data++ = Wire.read();    // receive a byte as character
   d74a8:	f002 ff8e 	bl	da3c8 <_Z19__fetch_global_Wirev>
   d74ac:	6803      	ldr	r3, [r0, #0]
   d74ae:	695b      	ldr	r3, [r3, #20]
   d74b0:	4798      	blx	r3
   d74b2:	f806 0b01 	strb.w	r0, [r6], #1
			for(size_t ii = 0; ii < bytesToRead; ii++) {
   d74b6:	454e      	cmp	r6, r9
   d74b8:	d1f6      	bne.n	d74a8 <_ZN6MB85RC8readDataEjPhj+0x7c>
   d74ba:	4445      	add	r5, r8
   d74bc:	eba7 0708 	sub.w	r7, r7, r8
   d74c0:	e7be      	b.n	d7440 <_ZN6MB85RC8readDataEjPhj+0x14>

000d74c2 <_ZN6MB85RC9writeDataEjPKhj>:


bool MB85RC::writeData(size_t framAddr, const uint8_t *data, size_t dataLen) {
   d74c2:	e92d 4ff7 	stmdb	sp!, {r0, r1, r2, r4, r5, r6, r7, r8, r9, sl, fp, lr}
   d74c6:	4604      	mov	r4, r0
	bool result = true;

	WITH_LOCK(wire) {
   d74c8:	6840      	ldr	r0, [r0, #4]
      explicit lock_guard(mutex_type& __m) : _M_device(__m)
   d74ca:	9001      	str	r0, [sp, #4]
bool MB85RC::writeData(size_t framAddr, const uint8_t *data, size_t dataLen) {
   d74cc:	460e      	mov	r6, r1
   d74ce:	4690      	mov	r8, r2
   d74d0:	461d      	mov	r5, r3
      { _M_device.lock(); }
   d74d2:	f001 feb7 	bl	d9244 <_ZN7TwoWire4lockEv>
   d74d6:	f04f 0901 	mov.w	r9, #1
	WITH_LOCK(wire) {
   d74da:	f1b9 0f00 	cmp.w	r9, #0
   d74de:	d02a      	beq.n	d7536 <_ZN6MB85RC9writeDataEjPKhj+0x74>
		while(dataLen > 0) {
   d74e0:	b34d      	cbz	r5, d7536 <_ZN6MB85RC9writeDataEjPKhj+0x74>
			wire.beginTransmission(addr | DEVICE_ADDR);
   d74e2:	68e1      	ldr	r1, [r4, #12]
   d74e4:	6860      	ldr	r0, [r4, #4]
   d74e6:	f041 0150 	orr.w	r1, r1, #80	; 0x50
   d74ea:	f001 fea4 	bl	d9236 <_ZN7TwoWire17beginTransmissionEi>
			wire.write(framAddr >> 8);
   d74ee:	0a31      	lsrs	r1, r6, #8
   d74f0:	6860      	ldr	r0, [r4, #4]
   d74f2:	f7ff ff4b 	bl	d738c <_ZN7TwoWire5writeEj>
			wire.write(framAddr);
   d74f6:	6860      	ldr	r0, [r4, #4]
   d74f8:	4631      	mov	r1, r6
   d74fa:	f7ff ff47 	bl	d738c <_ZN7TwoWire5writeEj>

			for(size_t ii = 0; ii < 30 && dataLen > 0; ii++) {
   d74fe:	f1a5 0a1e 	sub.w	sl, r5, #30
			wire.write(framAddr);
   d7502:	4647      	mov	r7, r8
   d7504:	eba6 0b08 	sub.w	fp, r6, r8
				wire.write(*data);
   d7508:	6860      	ldr	r0, [r4, #4]
   d750a:	f817 1b01 	ldrb.w	r1, [r7], #1
   d750e:	6803      	ldr	r3, [r0, #0]
				framAddr++;
				data++;
				dataLen--;
   d7510:	3d01      	subs	r5, #1
				wire.write(*data);
   d7512:	689b      	ldr	r3, [r3, #8]
   d7514:	4798      	blx	r3
			for(size_t ii = 0; ii < 30 && dataLen > 0; ii++) {
   d7516:	4555      	cmp	r5, sl
   d7518:	eb0b 0607 	add.w	r6, fp, r7
				data++;
   d751c:	46b8      	mov	r8, r7
			for(size_t ii = 0; ii < 30 && dataLen > 0; ii++) {
   d751e:	d001      	beq.n	d7524 <_ZN6MB85RC9writeDataEjPKhj+0x62>
   d7520:	2d00      	cmp	r5, #0
   d7522:	d1f1      	bne.n	d7508 <_ZN6MB85RC9writeDataEjPKhj+0x46>
			}

			int stat = wire.endTransmission(true);
   d7524:	6860      	ldr	r0, [r4, #4]
   d7526:	2101      	movs	r1, #1
   d7528:	f001 fe88 	bl	d923c <_ZN7TwoWire15endTransmissionEh>
			if (stat != 0) {
   d752c:	2800      	cmp	r0, #0
   d752e:	d0d7      	beq.n	d74e0 <_ZN6MB85RC9writeDataEjPKhj+0x1e>
				//Serial.printlnf("write failed %d", stat);
				result = false;
   d7530:	f04f 0900 	mov.w	r9, #0
   d7534:	e7d1      	b.n	d74da <_ZN6MB85RC9writeDataEjPKhj+0x18>
	WITH_LOCK(wire) {
   d7536:	a801      	add	r0, sp, #4
   d7538:	f7ff ff39 	bl	d73ae <_ZNSt10lock_guardIR7TwoWireED1Ev>
				break;
			}
		}
	}
	return result;
}
   d753c:	4648      	mov	r0, r9
   d753e:	b003      	add	sp, #12
   d7540:	e8bd 8ff0 	ldmia.w	sp!, {r4, r5, r6, r7, r8, r9, sl, fp, pc}

000d7544 <_ZN6MB85RC8moveDataEjjj>:


bool MB85RC::moveData(size_t framAddrFrom, size_t framAddrTo, size_t numBytes) {
   d7544:	e92d 43f0 	stmdb	sp!, {r4, r5, r6, r7, r8, r9, lr}
   d7548:	b08b      	sub	sp, #44	; 0x2c
   d754a:	460e      	mov	r6, r1
   d754c:	4615      	mov	r5, r2
   d754e:	4680      	mov	r8, r0
	bool result = true;

	// Maximum number of bytes we can write is 30
	uint8_t buf[30];

	WITH_LOCK(wire) {
   d7550:	6840      	ldr	r0, [r0, #4]
      explicit lock_guard(mutex_type& __m) : _M_device(__m)
   d7552:	9001      	str	r0, [sp, #4]
bool MB85RC::moveData(size_t framAddrFrom, size_t framAddrTo, size_t numBytes) {
   d7554:	461c      	mov	r4, r3
      { _M_device.lock(); }
   d7556:	f001 fe75 	bl	d9244 <_ZN7TwoWire4lockEv>
		if (framAddrFrom < framAddrTo) {
   d755a:	42ae      	cmp	r6, r5
   d755c:	d229      	bcs.n	d75b2 <_ZN6MB85RC8moveDataEjjj+0x6e>
			// Moving to a higher address - copy from the end of the from buffer
			framAddrFrom += numBytes;
   d755e:	4426      	add	r6, r4
			framAddrTo += numBytes;
   d7560:	4425      	add	r5, r4
			while(numBytes > 0) {
   d7562:	b18c      	cbz	r4, d7588 <_ZN6MB85RC8moveDataEjjj+0x44>
				size_t count = numBytes;
				if (count > sizeof(buf)) {
   d7564:	2c1e      	cmp	r4, #30
   d7566:	4627      	mov	r7, r4
					count = sizeof(buf);
				}
				framAddrFrom -= count;
				framAddrTo -= count;

				result = readData(framAddrFrom, buf, count);
   d7568:	f8d8 3000 	ldr.w	r3, [r8]
   d756c:	bf28      	it	cs
   d756e:	271e      	movcs	r7, #30
				framAddrFrom -= count;
   d7570:	1bf6      	subs	r6, r6, r7
				result = readData(framAddrFrom, buf, count);
   d7572:	f8d3 9008 	ldr.w	r9, [r3, #8]
   d7576:	aa02      	add	r2, sp, #8
   d7578:	463b      	mov	r3, r7
   d757a:	4631      	mov	r1, r6
   d757c:	4640      	mov	r0, r8
				framAddrTo -= count;
   d757e:	1bed      	subs	r5, r5, r7
				result = readData(framAddrFrom, buf, count);
   d7580:	47c8      	blx	r9
				if (!result) {
   d7582:	b948      	cbnz	r0, d7598 <_ZN6MB85RC8moveDataEjjj+0x54>
bool MB85RC::moveData(size_t framAddrFrom, size_t framAddrTo, size_t numBytes) {
   d7584:	2400      	movs	r4, #0
   d7586:	e000      	b.n	d758a <_ZN6MB85RC8moveDataEjjj+0x46>
   d7588:	2401      	movs	r4, #1
	WITH_LOCK(wire) {
   d758a:	a801      	add	r0, sp, #4
   d758c:	f7ff ff0f 	bl	d73ae <_ZNSt10lock_guardIR7TwoWireED1Ev>
				numBytes -= count;
			}
		}
	}
	return result;
}
   d7590:	4620      	mov	r0, r4
   d7592:	b00b      	add	sp, #44	; 0x2c
   d7594:	e8bd 83f0 	ldmia.w	sp!, {r4, r5, r6, r7, r8, r9, pc}
				result = writeData(framAddrTo, buf, count);
   d7598:	f8d8 3000 	ldr.w	r3, [r8]
   d759c:	aa02      	add	r2, sp, #8
   d759e:	f8d3 900c 	ldr.w	r9, [r3, #12]
   d75a2:	4629      	mov	r1, r5
   d75a4:	463b      	mov	r3, r7
   d75a6:	4640      	mov	r0, r8
   d75a8:	47c8      	blx	r9
				if (!result) {
   d75aa:	2800      	cmp	r0, #0
   d75ac:	d0ea      	beq.n	d7584 <_ZN6MB85RC8moveDataEjjj+0x40>
				numBytes -= count;
   d75ae:	1be4      	subs	r4, r4, r7
			while(numBytes > 0) {
   d75b0:	e7d7      	b.n	d7562 <_ZN6MB85RC8moveDataEjjj+0x1e>
		if (framAddrFrom > framAddrTo) {
   d75b2:	d9e9      	bls.n	d7588 <_ZN6MB85RC8moveDataEjjj+0x44>
			while(numBytes > 0) {
   d75b4:	2c00      	cmp	r4, #0
   d75b6:	d0e7      	beq.n	d7588 <_ZN6MB85RC8moveDataEjjj+0x44>
				result = readData(framAddrFrom, buf, count);
   d75b8:	f8d8 3000 	ldr.w	r3, [r8]
   d75bc:	2c1e      	cmp	r4, #30
   d75be:	4627      	mov	r7, r4
   d75c0:	bf28      	it	cs
   d75c2:	271e      	movcs	r7, #30
   d75c4:	f8d3 9008 	ldr.w	r9, [r3, #8]
   d75c8:	aa02      	add	r2, sp, #8
   d75ca:	463b      	mov	r3, r7
   d75cc:	4631      	mov	r1, r6
   d75ce:	4640      	mov	r0, r8
   d75d0:	47c8      	blx	r9
				if (!result) {
   d75d2:	2800      	cmp	r0, #0
   d75d4:	d0d6      	beq.n	d7584 <_ZN6MB85RC8moveDataEjjj+0x40>
				result = writeData(framAddrTo, buf, count);
   d75d6:	f8d8 3000 	ldr.w	r3, [r8]
   d75da:	aa02      	add	r2, sp, #8
   d75dc:	f8d3 900c 	ldr.w	r9, [r3, #12]
   d75e0:	4629      	mov	r1, r5
   d75e2:	463b      	mov	r3, r7
   d75e4:	4640      	mov	r0, r8
   d75e6:	47c8      	blx	r9
				if (!result) {
   d75e8:	2800      	cmp	r0, #0
   d75ea:	d0cb      	beq.n	d7584 <_ZN6MB85RC8moveDataEjjj+0x40>
				framAddrFrom += count;
   d75ec:	443e      	add	r6, r7
				framAddrTo += count;
   d75ee:	443d      	add	r5, r7
				numBytes -= count;
   d75f0:	1be4      	subs	r4, r4, r7
			while(numBytes > 0) {
   d75f2:	e7df      	b.n	d75b4 <_ZN6MB85RC8moveDataEjjj+0x70>

000d75f4 <nrf_gpio_pin_port_decode>:
 *
 * @return Pointer to port register set.
 *
 */
__STATIC_INLINE NRF_GPIO_Type * nrf_gpio_pin_port_decode(uint32_t * p_pin)
{
   d75f4:	b510      	push	{r4, lr}
    NRFX_ASSERT(*p_pin < NUMBER_OF_PINS);
   d75f6:	6803      	ldr	r3, [r0, #0]
   d75f8:	2b2f      	cmp	r3, #47	; 0x2f
{
   d75fa:	4604      	mov	r4, r0
    NRFX_ASSERT(*p_pin < NUMBER_OF_PINS);
   d75fc:	d904      	bls.n	d7608 <nrf_gpio_pin_port_decode+0x14>
   d75fe:	4a07      	ldr	r2, [pc, #28]	; (d761c <nrf_gpio_pin_port_decode+0x28>)
   d7600:	2100      	movs	r1, #0
   d7602:	200a      	movs	r0, #10
   d7604:	f000 ff52 	bl	d84ac <panic_>
#if (GPIO_COUNT == 1)
    return NRF_P0;
#else
    if (*p_pin < P0_PIN_NUM)
   d7608:	6823      	ldr	r3, [r4, #0]
   d760a:	2b1f      	cmp	r3, #31
    {
        return NRF_P0;
    }
    else
    {
        *p_pin = *p_pin & (P0_PIN_NUM - 1);
   d760c:	bf83      	ittte	hi
   d760e:	f003 031f 	andhi.w	r3, r3, #31
        return NRF_P1;
   d7612:	4803      	ldrhi	r0, [pc, #12]	; (d7620 <nrf_gpio_pin_port_decode+0x2c>)
        *p_pin = *p_pin & (P0_PIN_NUM - 1);
   d7614:	6023      	strhi	r3, [r4, #0]
        return NRF_P0;
   d7616:	f04f 40a0 	movls.w	r0, #1342177280	; 0x50000000
    }
#endif
}
   d761a:	bd10      	pop	{r4, pc}
   d761c:	000d815d 	.word	0x000d815d
   d7620:	50000300 	.word	0x50000300

000d7624 <_ZN7OneWire19digitalWriteFastLowEv>:
      return HAL_GPIO_Read(_pin);
    }

  #else

    inline void digitalWriteFastLow() {
   d7624:	b5f7      	push	{r0, r1, r2, r4, r5, r6, r7, lr}
/* Disabling USE_BIT_BAND since bitbanding is much slower! as per comment
 * by @pkourany on PR: https://github.com/spark/firmware/pull/556 */
#define USE_BIT_BAND 0

__attribute__((always_inline)) inline const Hal_Pin_Info* fastPinGetPinmap() {
    static const Hal_Pin_Info* pinMap = HAL_Pin_Map();
   d7626:	4c1b      	ldr	r4, [pc, #108]	; (d7694 <_ZN7OneWire19digitalWriteFastLowEv+0x70>)
      pinResetFast(_pin);
   d7628:	8805      	ldrh	r5, [r0, #0]
   d762a:	7823      	ldrb	r3, [r4, #0]
   d762c:	4e1a      	ldr	r6, [pc, #104]	; (d7698 <_ZN7OneWire19digitalWriteFastLowEv+0x74>)
   d762e:	f3bf 8f5b 	dmb	ish
   d7632:	f013 0f01 	tst.w	r3, #1
   d7636:	d109      	bne.n	d764c <_ZN7OneWire19digitalWriteFastLowEv+0x28>
   d7638:	4620      	mov	r0, r4
   d763a:	f7fc fd3d 	bl	d40b8 <__cxa_guard_acquire>
   d763e:	b128      	cbz	r0, d764c <_ZN7OneWire19digitalWriteFastLowEv+0x28>
   d7640:	f000 fdcc 	bl	d81dc <HAL_Pin_Map>
   d7644:	6030      	str	r0, [r6, #0]
   d7646:	4620      	mov	r0, r4
   d7648:	f7fc fd3b 	bl	d40c2 <__cxa_guard_release>
    nrf_gpio_pin_set(nrf_pin);
}

inline void pinResetFast(pin_t _pin)
{
    uint32_t nrf_pin = NRF_GPIO_PIN_MAP(fastPinGetPinmap()[_pin].gpio_port, fastPinGetPinmap()[_pin].gpio_pin);
   d764c:	6833      	ldr	r3, [r6, #0]
   d764e:	012d      	lsls	r5, r5, #4
   d7650:	5d5b      	ldrb	r3, [r3, r5]
   d7652:	015f      	lsls	r7, r3, #5
    static const Hal_Pin_Info* pinMap = HAL_Pin_Map();
   d7654:	7823      	ldrb	r3, [r4, #0]
   d7656:	f3bf 8f5b 	dmb	ish
   d765a:	07db      	lsls	r3, r3, #31
   d765c:	d409      	bmi.n	d7672 <_ZN7OneWire19digitalWriteFastLowEv+0x4e>
   d765e:	480d      	ldr	r0, [pc, #52]	; (d7694 <_ZN7OneWire19digitalWriteFastLowEv+0x70>)
   d7660:	f7fc fd2a 	bl	d40b8 <__cxa_guard_acquire>
   d7664:	b128      	cbz	r0, d7672 <_ZN7OneWire19digitalWriteFastLowEv+0x4e>
   d7666:	f000 fdb9 	bl	d81dc <HAL_Pin_Map>
   d766a:	6030      	str	r0, [r6, #0]
   d766c:	4809      	ldr	r0, [pc, #36]	; (d7694 <_ZN7OneWire19digitalWriteFastLowEv+0x70>)
   d766e:	f7fc fd28 	bl	d40c2 <__cxa_guard_release>
    uint32_t nrf_pin = NRF_GPIO_PIN_MAP(fastPinGetPinmap()[_pin].gpio_port, fastPinGetPinmap()[_pin].gpio_pin);
   d7672:	6833      	ldr	r3, [r6, #0]
   d7674:	442b      	add	r3, r5
}


__STATIC_INLINE void nrf_gpio_pin_clear(uint32_t pin_number)
{
    NRF_GPIO_Type * reg = nrf_gpio_pin_port_decode(&pin_number);
   d7676:	a801      	add	r0, sp, #4
   d7678:	785b      	ldrb	r3, [r3, #1]
   d767a:	f003 031f 	and.w	r3, r3, #31
   d767e:	433b      	orrs	r3, r7
   d7680:	9301      	str	r3, [sp, #4]
   d7682:	f7ff ffb7 	bl	d75f4 <nrf_gpio_pin_port_decode>

    nrf_gpio_port_out_clear(reg, 1UL << pin_number);
   d7686:	9a01      	ldr	r2, [sp, #4]
   d7688:	2301      	movs	r3, #1
   d768a:	4093      	lsls	r3, r2
}


__STATIC_INLINE void nrf_gpio_port_out_clear(NRF_GPIO_Type * p_reg, uint32_t clr_mask)
{
    p_reg->OUTCLR = clr_mask;
   d768c:	f8c0 350c 	str.w	r3, [r0, #1292]	; 0x50c
    }
   d7690:	b003      	add	sp, #12
   d7692:	bdf0      	pop	{r4, r5, r6, r7, pc}
   d7694:	2003e5d8 	.word	0x2003e5d8
   d7698:	2003e5dc 	.word	0x2003e5dc

000d769c <_ZN7OneWire20digitalWriteFastHighEv>:

    inline void digitalWriteFastHigh() {
   d769c:	b5f7      	push	{r0, r1, r2, r4, r5, r6, r7, lr}
    static const Hal_Pin_Info* pinMap = HAL_Pin_Map();
   d769e:	4c1b      	ldr	r4, [pc, #108]	; (d770c <_ZN7OneWire20digitalWriteFastHighEv+0x70>)
      pinSetFast(_pin);
   d76a0:	8805      	ldrh	r5, [r0, #0]
   d76a2:	7823      	ldrb	r3, [r4, #0]
   d76a4:	4e1a      	ldr	r6, [pc, #104]	; (d7710 <_ZN7OneWire20digitalWriteFastHighEv+0x74>)
   d76a6:	f3bf 8f5b 	dmb	ish
   d76aa:	f013 0f01 	tst.w	r3, #1
   d76ae:	d109      	bne.n	d76c4 <_ZN7OneWire20digitalWriteFastHighEv+0x28>
   d76b0:	4620      	mov	r0, r4
   d76b2:	f7fc fd01 	bl	d40b8 <__cxa_guard_acquire>
   d76b6:	b128      	cbz	r0, d76c4 <_ZN7OneWire20digitalWriteFastHighEv+0x28>
   d76b8:	f000 fd90 	bl	d81dc <HAL_Pin_Map>
   d76bc:	6030      	str	r0, [r6, #0]
   d76be:	4620      	mov	r0, r4
   d76c0:	f7fc fcff 	bl	d40c2 <__cxa_guard_release>
    uint32_t nrf_pin = NRF_GPIO_PIN_MAP(fastPinGetPinmap()[_pin].gpio_port, fastPinGetPinmap()[_pin].gpio_pin);
   d76c4:	6833      	ldr	r3, [r6, #0]
   d76c6:	012d      	lsls	r5, r5, #4
   d76c8:	5d5b      	ldrb	r3, [r3, r5]
   d76ca:	015f      	lsls	r7, r3, #5
    static const Hal_Pin_Info* pinMap = HAL_Pin_Map();
   d76cc:	7823      	ldrb	r3, [r4, #0]
   d76ce:	f3bf 8f5b 	dmb	ish
   d76d2:	07db      	lsls	r3, r3, #31
   d76d4:	d409      	bmi.n	d76ea <_ZN7OneWire20digitalWriteFastHighEv+0x4e>
   d76d6:	480d      	ldr	r0, [pc, #52]	; (d770c <_ZN7OneWire20digitalWriteFastHighEv+0x70>)
   d76d8:	f7fc fcee 	bl	d40b8 <__cxa_guard_acquire>
   d76dc:	b128      	cbz	r0, d76ea <_ZN7OneWire20digitalWriteFastHighEv+0x4e>
   d76de:	f000 fd7d 	bl	d81dc <HAL_Pin_Map>
   d76e2:	6030      	str	r0, [r6, #0]
   d76e4:	4809      	ldr	r0, [pc, #36]	; (d770c <_ZN7OneWire20digitalWriteFastHighEv+0x70>)
   d76e6:	f7fc fcec 	bl	d40c2 <__cxa_guard_release>
    uint32_t nrf_pin = NRF_GPIO_PIN_MAP(fastPinGetPinmap()[_pin].gpio_port, fastPinGetPinmap()[_pin].gpio_pin);
   d76ea:	6833      	ldr	r3, [r6, #0]
   d76ec:	442b      	add	r3, r5
    NRF_GPIO_Type * reg = nrf_gpio_pin_port_decode(&pin_number);
   d76ee:	a801      	add	r0, sp, #4
   d76f0:	785b      	ldrb	r3, [r3, #1]
   d76f2:	f003 031f 	and.w	r3, r3, #31
   d76f6:	433b      	orrs	r3, r7
   d76f8:	9301      	str	r3, [sp, #4]
   d76fa:	f7ff ff7b 	bl	d75f4 <nrf_gpio_pin_port_decode>
    nrf_gpio_port_out_set(reg, 1UL << pin_number);
   d76fe:	9a01      	ldr	r2, [sp, #4]
   d7700:	2301      	movs	r3, #1
   d7702:	4093      	lsls	r3, r2
    p_reg->OUTSET = set_mask;
   d7704:	f8c0 3508 	str.w	r3, [r0, #1288]	; 0x508
    }
   d7708:	b003      	add	sp, #12
   d770a:	bdf0      	pop	{r4, r5, r6, r7, pc}
   d770c:	2003e5d8 	.word	0x2003e5d8
   d7710:	2003e5dc 	.word	0x2003e5dc

000d7714 <_ZN7OneWire15digitalReadFastEv>:
      // This could probably be speed up by digging a little deeper past
      // the HAL_Pin_Mode function.
      HAL_Pin_Mode(_pin, INPUT);
    }

    inline uint8_t digitalReadFast(void){
   d7714:	e92d 41f3 	stmdb	sp!, {r0, r1, r4, r5, r6, r7, r8, lr}
    static const Hal_Pin_Info* pinMap = HAL_Pin_Map();
   d7718:	4d20      	ldr	r5, [pc, #128]	; (d779c <_ZN7OneWire15digitalReadFastEv+0x88>)
      return pinReadFast(_pin);
   d771a:	8806      	ldrh	r6, [r0, #0]
   d771c:	782b      	ldrb	r3, [r5, #0]
   d771e:	4f20      	ldr	r7, [pc, #128]	; (d77a0 <_ZN7OneWire15digitalReadFastEv+0x8c>)
   d7720:	f3bf 8f5b 	dmb	ish
   d7724:	f013 0f01 	tst.w	r3, #1
   d7728:	d109      	bne.n	d773e <_ZN7OneWire15digitalReadFastEv+0x2a>
   d772a:	4628      	mov	r0, r5
   d772c:	f7fc fcc4 	bl	d40b8 <__cxa_guard_acquire>
   d7730:	b128      	cbz	r0, d773e <_ZN7OneWire15digitalReadFastEv+0x2a>
   d7732:	f000 fd53 	bl	d81dc <HAL_Pin_Map>
   d7736:	6038      	str	r0, [r7, #0]
   d7738:	4628      	mov	r0, r5
   d773a:	f7fc fcc2 	bl	d40c2 <__cxa_guard_release>
    nrf_gpio_pin_clear(nrf_pin);
}

inline int32_t pinReadFast(pin_t _pin)
{
    uint32_t nrf_pin = NRF_GPIO_PIN_MAP(fastPinGetPinmap()[_pin].gpio_port, fastPinGetPinmap()[_pin].gpio_pin);
   d773e:	683b      	ldr	r3, [r7, #0]
   d7740:	0136      	lsls	r6, r6, #4
   d7742:	5d9c      	ldrb	r4, [r3, r6]
    static const Hal_Pin_Info* pinMap = HAL_Pin_Map();
   d7744:	782b      	ldrb	r3, [r5, #0]
   d7746:	f3bf 8f5b 	dmb	ish
   d774a:	07db      	lsls	r3, r3, #31
    uint32_t nrf_pin = NRF_GPIO_PIN_MAP(fastPinGetPinmap()[_pin].gpio_port, fastPinGetPinmap()[_pin].gpio_pin);
   d774c:	ea4f 1844 	mov.w	r8, r4, lsl #5
    static const Hal_Pin_Info* pinMap = HAL_Pin_Map();
   d7750:	d409      	bmi.n	d7766 <_ZN7OneWire15digitalReadFastEv+0x52>
   d7752:	4812      	ldr	r0, [pc, #72]	; (d779c <_ZN7OneWire15digitalReadFastEv+0x88>)
   d7754:	f7fc fcb0 	bl	d40b8 <__cxa_guard_acquire>
   d7758:	b128      	cbz	r0, d7766 <_ZN7OneWire15digitalReadFastEv+0x52>
   d775a:	f000 fd3f 	bl	d81dc <HAL_Pin_Map>
   d775e:	6038      	str	r0, [r7, #0]
   d7760:	480e      	ldr	r0, [pc, #56]	; (d779c <_ZN7OneWire15digitalReadFastEv+0x88>)
   d7762:	f7fc fcae 	bl	d40c2 <__cxa_guard_release>
    uint32_t nrf_pin = NRF_GPIO_PIN_MAP(fastPinGetPinmap()[_pin].gpio_port, fastPinGetPinmap()[_pin].gpio_pin);
   d7766:	683b      	ldr	r3, [r7, #0]
   d7768:	4433      	add	r3, r6
    NRF_GPIO_Type * reg = nrf_gpio_pin_port_decode(&pin_number);
   d776a:	a801      	add	r0, sp, #4
   d776c:	785c      	ldrb	r4, [r3, #1]
   d776e:	f004 041f 	and.w	r4, r4, #31
   d7772:	ea44 0408 	orr.w	r4, r4, r8
    // Dummy read is needed because peripherals run at 16 MHz while the CPU runs at 64 MHz.
    (void)nrf_gpio_pin_read(nrf_pin);
   d7776:	9401      	str	r4, [sp, #4]
   d7778:	f7ff ff3c 	bl	d75f4 <nrf_gpio_pin_port_decode>
    return p_reg->IN;
   d777c:	f8d0 3510 	ldr.w	r3, [r0, #1296]	; 0x510
    return nrf_gpio_pin_read(nrf_pin);
   d7780:	9401      	str	r4, [sp, #4]
    NRF_GPIO_Type * reg = nrf_gpio_pin_port_decode(&pin_number);
   d7782:	a801      	add	r0, sp, #4
   d7784:	f7ff ff36 	bl	d75f4 <nrf_gpio_pin_port_decode>
    return ((nrf_gpio_port_in_read(reg) >> pin_number) & 1UL);
   d7788:	9b01      	ldr	r3, [sp, #4]
    return p_reg->IN;
   d778a:	f8d0 0510 	ldr.w	r0, [r0, #1296]	; 0x510
    return ((nrf_gpio_port_in_read(reg) >> pin_number) & 1UL);
   d778e:	40d8      	lsrs	r0, r3
    }
   d7790:	f000 0001 	and.w	r0, r0, #1
   d7794:	b002      	add	sp, #8
   d7796:	e8bd 81f0 	ldmia.w	sp!, {r4, r5, r6, r7, r8, pc}
   d779a:	bf00      	nop
   d779c:	2003e5d8 	.word	0x2003e5d8
   d77a0:	2003e5dc 	.word	0x2003e5dc

000d77a4 <_ZN7OneWireC1Et>:
*/

#include "OneWire.h"
#include "application.h"

OneWire::OneWire(uint16_t pin)
   d77a4:	b538      	push	{r3, r4, r5, lr}
   d77a6:	4604      	mov	r4, r0
   d77a8:	460d      	mov	r5, r1
{
    pinMode(pin, INPUT);
   d77aa:	4628      	mov	r0, r5
   d77ac:	2100      	movs	r1, #0
   d77ae:	f002 fdb5 	bl	da31c <pinMode>
    _pin = pin;
   d77b2:	8025      	strh	r5, [r4, #0]
}
   d77b4:	4620      	mov	r0, r4
   d77b6:	bd38      	pop	{r3, r4, r5, pc}

000d77b8 <_ZN7OneWire5resetEv>:
// and we return a 0;
//
// Returns 1 if a device asserted a presence pulse, 0 otherwise.
//
uint8_t OneWire::reset(void)
{
   d77b8:	b570      	push	{r4, r5, r6, lr}
   d77ba:	4605      	mov	r5, r0
    uint8_t r;
    uint8_t retries = 125;

    noInterrupts();
   d77bc:	f001 fd54 	bl	d9268 <_Z12noInterruptsv>
      HAL_Pin_Mode(_pin, INPUT);
   d77c0:	8828      	ldrh	r0, [r5, #0]
   d77c2:	2100      	movs	r1, #0
   d77c4:	f000 fd12 	bl	d81ec <HAL_Pin_Mode>
    pinModeFastInput();
    interrupts();
   d77c8:	f001 fd50 	bl	d926c <_Z10interruptsv>
   d77cc:	247d      	movs	r4, #125	; 0x7d
    // wait until the wire is high... just in case
    do
    {
        if (--retries == 0)
   d77ce:	3c01      	subs	r4, #1
   d77d0:	f014 04ff 	ands.w	r4, r4, #255	; 0xff
   d77d4:	d02d      	beq.n	d7832 <_ZN7OneWire5resetEv+0x7a>
inline unsigned long micros(void) { return HAL_Timer_Get_Micro_Seconds(); }
void delay(unsigned long ms);
inline void delayMicroseconds(unsigned int us) { HAL_Delay_Microseconds(us); }
   d77d6:	2002      	movs	r0, #2
   d77d8:	f000 fcc0 	bl	d815c <HAL_Delay_Microseconds>
            return 0;

        delayMicroseconds(2);
    } while (!digitalReadFast());
   d77dc:	4628      	mov	r0, r5
   d77de:	f7ff ff99 	bl	d7714 <_ZN7OneWire15digitalReadFastEv>
   d77e2:	2800      	cmp	r0, #0
   d77e4:	d0f3      	beq.n	d77ce <_ZN7OneWire5resetEv+0x16>

    noInterrupts();
   d77e6:	f001 fd3f 	bl	d9268 <_Z12noInterruptsv>

    digitalWriteFastLow();
   d77ea:	4628      	mov	r0, r5
   d77ec:	f7ff ff1a 	bl	d7624 <_ZN7OneWire19digitalWriteFastLowEv>
      HAL_Pin_Mode(_pin, OUTPUT);
   d77f0:	2101      	movs	r1, #1
   d77f2:	8828      	ldrh	r0, [r5, #0]
   d77f4:	f000 fcfa 	bl	d81ec <HAL_Pin_Mode>
    pinModeFastOutput(); // drive output low

    interrupts();
   d77f8:	f001 fd38 	bl	d926c <_Z10interruptsv>
   d77fc:	f44f 70f0 	mov.w	r0, #480	; 0x1e0
   d7800:	f000 fcac 	bl	d815c <HAL_Delay_Microseconds>

class AtomicSection {
	int prev;
public:
	AtomicSection() {
		prev = HAL_disable_irq();
   d7804:	f000 fcba 	bl	d817c <HAL_disable_irq>
      HAL_Pin_Mode(_pin, INPUT);
   d7808:	2100      	movs	r1, #0
   d780a:	4606      	mov	r6, r0
   d780c:	8828      	ldrh	r0, [r5, #0]
   d780e:	f000 fced 	bl	d81ec <HAL_Pin_Mode>
   d7812:	2046      	movs	r0, #70	; 0x46
   d7814:	f000 fca2 	bl	d815c <HAL_Delay_Microseconds>
    {
        pinModeFastInput(); // allow it to float

        delayMicroseconds(70);

        r = !digitalReadFast();
   d7818:	4628      	mov	r0, r5
   d781a:	f7ff ff7b 	bl	d7714 <_ZN7OneWire15digitalReadFastEv>
   d781e:	fab0 f480 	clz	r4, r0
	}

	~AtomicSection() {
		HAL_enable_irq(prev);
   d7822:	4630      	mov	r0, r6
   d7824:	f000 fcb2 	bl	d818c <HAL_enable_irq>
   d7828:	f44f 70cd 	mov.w	r0, #410	; 0x19a
   d782c:	0964      	lsrs	r4, r4, #5
   d782e:	f000 fc95 	bl	d815c <HAL_Delay_Microseconds>
    }

    delayMicroseconds(410);

    return r;
}
   d7832:	4620      	mov	r0, r4
   d7834:	bd70      	pop	{r4, r5, r6, pc}

000d7836 <_ZN7OneWire9write_bitEh>:

void OneWire::write_bit(uint8_t v)
{
   d7836:	b570      	push	{r4, r5, r6, lr}
    if (v & 1)
   d7838:	f011 0501 	ands.w	r5, r1, #1
{
   d783c:	4604      	mov	r4, r0
    if (v & 1)
   d783e:	d018      	beq.n	d7872 <_ZN7OneWire9write_bitEh+0x3c>
		prev = HAL_disable_irq();
   d7840:	f000 fc9c 	bl	d817c <HAL_disable_irq>
   d7844:	4605      	mov	r5, r0
    {
        ATOMIC_BLOCK()
        {
            digitalWriteFastLow();
   d7846:	4620      	mov	r0, r4
   d7848:	f7ff feec 	bl	d7624 <_ZN7OneWire19digitalWriteFastLowEv>
      HAL_Pin_Mode(_pin, OUTPUT);
   d784c:	2101      	movs	r1, #1
   d784e:	8820      	ldrh	r0, [r4, #0]
   d7850:	f000 fccc 	bl	d81ec <HAL_Pin_Mode>
   d7854:	2001      	movs	r0, #1
   d7856:	f000 fc81 	bl	d815c <HAL_Delay_Microseconds>
      HAL_Pin_Mode(_pin, INPUT);
   d785a:	8820      	ldrh	r0, [r4, #0]
   d785c:	2100      	movs	r1, #0
   d785e:	f000 fcc5 	bl	d81ec <HAL_Pin_Mode>
		HAL_enable_irq(prev);
   d7862:	4628      	mov	r0, r5
   d7864:	f000 fc92 	bl	d818c <HAL_enable_irq>
   d7868:	203b      	movs	r0, #59	; 0x3b

            pinModeFastInput(); // float high
        }
        delayMicroseconds(5);
    }
}
   d786a:	e8bd 4070 	ldmia.w	sp!, {r4, r5, r6, lr}
   d786e:	f000 bc75 	b.w	d815c <HAL_Delay_Microseconds>
		prev = HAL_disable_irq();
   d7872:	f000 fc83 	bl	d817c <HAL_disable_irq>
   d7876:	4606      	mov	r6, r0
            digitalWriteFastLow();
   d7878:	4620      	mov	r0, r4
   d787a:	f7ff fed3 	bl	d7624 <_ZN7OneWire19digitalWriteFastLowEv>
      HAL_Pin_Mode(_pin, OUTPUT);
   d787e:	2101      	movs	r1, #1
   d7880:	8820      	ldrh	r0, [r4, #0]
   d7882:	f000 fcb3 	bl	d81ec <HAL_Pin_Mode>
   d7886:	2041      	movs	r0, #65	; 0x41
   d7888:	f000 fc68 	bl	d815c <HAL_Delay_Microseconds>
      HAL_Pin_Mode(_pin, INPUT);
   d788c:	8820      	ldrh	r0, [r4, #0]
   d788e:	4629      	mov	r1, r5
   d7890:	f000 fcac 	bl	d81ec <HAL_Pin_Mode>
		HAL_enable_irq(prev);
   d7894:	4630      	mov	r0, r6
   d7896:	f000 fc79 	bl	d818c <HAL_enable_irq>
   d789a:	2005      	movs	r0, #5
   d789c:	e7e5      	b.n	d786a <_ZN7OneWire9write_bitEh+0x34>

000d789e <_ZN7OneWire8read_bitEv>:
//
// Read a bit. Port and bit is used to cut lookup time and provide
// more certain timing.
//
uint8_t OneWire::read_bit(void)
{
   d789e:	b538      	push	{r3, r4, r5, lr}
   d78a0:	4604      	mov	r4, r0
		prev = HAL_disable_irq();
   d78a2:	f000 fc6b 	bl	d817c <HAL_disable_irq>
   d78a6:	4605      	mov	r5, r0
    uint8_t r;

    ATOMIC_BLOCK()
    {
        digitalWriteFastLow();
   d78a8:	4620      	mov	r0, r4
   d78aa:	f7ff febb 	bl	d7624 <_ZN7OneWire19digitalWriteFastLowEv>
      HAL_Pin_Mode(_pin, OUTPUT);
   d78ae:	8820      	ldrh	r0, [r4, #0]
   d78b0:	2101      	movs	r1, #1
   d78b2:	f000 fc9b 	bl	d81ec <HAL_Pin_Mode>
   d78b6:	2001      	movs	r0, #1
   d78b8:	f000 fc50 	bl	d815c <HAL_Delay_Microseconds>
      HAL_Pin_Mode(_pin, INPUT);
   d78bc:	2100      	movs	r1, #0
   d78be:	8820      	ldrh	r0, [r4, #0]
   d78c0:	f000 fc94 	bl	d81ec <HAL_Pin_Mode>
   d78c4:	200d      	movs	r0, #13
   d78c6:	f000 fc49 	bl	d815c <HAL_Delay_Microseconds>

        pinModeFastInput(); // let pin float, pull up will raise

        delayMicroseconds(13);

        r = digitalReadFast();
   d78ca:	4620      	mov	r0, r4
   d78cc:	f7ff ff22 	bl	d7714 <_ZN7OneWire15digitalReadFastEv>
   d78d0:	4604      	mov	r4, r0
		HAL_enable_irq(prev);
   d78d2:	4628      	mov	r0, r5
   d78d4:	f000 fc5a 	bl	d818c <HAL_enable_irq>
   d78d8:	202e      	movs	r0, #46	; 0x2e
   d78da:	f000 fc3f 	bl	d815c <HAL_Delay_Microseconds>
    }

    delayMicroseconds(46);

    return r;
}
   d78de:	4620      	mov	r0, r4
   d78e0:	bd38      	pop	{r3, r4, r5, pc}

000d78e2 <_ZN7OneWire5writeEhh>:
// parasite power mode) then set 'power' to 1, otherwise the pin will
// go tri-state at the end of the write to avoid heating in a short or
// other mishap.
//
void OneWire::write(uint8_t v, uint8_t power /* = 0 */)
{
   d78e2:	e92d 41f0 	stmdb	sp!, {r4, r5, r6, r7, r8, lr}
   d78e6:	4604      	mov	r4, r0
   d78e8:	4688      	mov	r8, r1
   d78ea:	4616      	mov	r6, r2
   d78ec:	2708      	movs	r7, #8
    uint8_t bitMask;

    for (bitMask = 0x01; bitMask; bitMask <<= 1)
   d78ee:	2501      	movs	r5, #1
    {
        OneWire::write_bit((bitMask & v) ? 1 : 0);
   d78f0:	ea18 0f05 	tst.w	r8, r5
   d78f4:	bf14      	ite	ne
   d78f6:	2101      	movne	r1, #1
   d78f8:	2100      	moveq	r1, #0
   d78fa:	4620      	mov	r0, r4
   d78fc:	f7ff ff9b 	bl	d7836 <_ZN7OneWire9write_bitEh>
    for (bitMask = 0x01; bitMask; bitMask <<= 1)
   d7900:	006d      	lsls	r5, r5, #1
   d7902:	3f01      	subs	r7, #1
   d7904:	b2ed      	uxtb	r5, r5
   d7906:	d1f3      	bne.n	d78f0 <_ZN7OneWire5writeEhh+0xe>
    }

    if (power)
   d7908:	b166      	cbz	r6, d7924 <_ZN7OneWire5writeEhh+0x42>
    {
        noInterrupts();
   d790a:	f001 fcad 	bl	d9268 <_Z12noInterruptsv>

        digitalWriteFastHigh();
   d790e:	4620      	mov	r0, r4
   d7910:	f7ff fec4 	bl	d769c <_ZN7OneWire20digitalWriteFastHighEv>
      HAL_Pin_Mode(_pin, OUTPUT);
   d7914:	8820      	ldrh	r0, [r4, #0]
   d7916:	2101      	movs	r1, #1
   d7918:	f000 fc68 	bl	d81ec <HAL_Pin_Mode>
        pinModeFastOutput(); // Drive pin High when power is True

        interrupts();
    }
}
   d791c:	e8bd 41f0 	ldmia.w	sp!, {r4, r5, r6, r7, r8, lr}
        interrupts();
   d7920:	f001 bca4 	b.w	d926c <_Z10interruptsv>
}
   d7924:	e8bd 81f0 	ldmia.w	sp!, {r4, r5, r6, r7, r8, pc}

000d7928 <_ZN7OneWire4readEv>:

//
// Read a byte
//
uint8_t OneWire::read()
{
   d7928:	b5f8      	push	{r3, r4, r5, r6, r7, lr}
   d792a:	4607      	mov	r7, r0
   d792c:	2608      	movs	r6, #8
    uint8_t bitMask;
    uint8_t r = 0;
   d792e:	2500      	movs	r5, #0

    for (bitMask = 0x01; bitMask; bitMask <<= 1)
   d7930:	2401      	movs	r4, #1
    {
        if (OneWire::read_bit())
   d7932:	4638      	mov	r0, r7
   d7934:	f7ff ffb3 	bl	d789e <_ZN7OneWire8read_bitEv>
   d7938:	b100      	cbz	r0, d793c <_ZN7OneWire4readEv+0x14>
            r |= bitMask;
   d793a:	4325      	orrs	r5, r4
    for (bitMask = 0x01; bitMask; bitMask <<= 1)
   d793c:	0064      	lsls	r4, r4, #1
   d793e:	3e01      	subs	r6, #1
   d7940:	b2e4      	uxtb	r4, r4
   d7942:	d1f6      	bne.n	d7932 <_ZN7OneWire4readEv+0xa>
    }

    return r;
}
   d7944:	4628      	mov	r0, r5
   d7946:	bdf8      	pop	{r3, r4, r5, r6, r7, pc}

000d7948 <_ZN7OneWire6selectEPKh>:

//
// Do a ROM select
//
void OneWire::select(const uint8_t rom[8])
{
   d7948:	b570      	push	{r4, r5, r6, lr}
    uint8_t i;

    write(0x55); // Choose ROM
   d794a:	2200      	movs	r2, #0
{
   d794c:	460c      	mov	r4, r1
    write(0x55); // Choose ROM
   d794e:	2155      	movs	r1, #85	; 0x55
{
   d7950:	4606      	mov	r6, r0
    write(0x55); // Choose ROM
   d7952:	f7ff ffc6 	bl	d78e2 <_ZN7OneWire5writeEhh>

    for (i = 0; i < 8; i++)
   d7956:	1e65      	subs	r5, r4, #1
   d7958:	3407      	adds	r4, #7
        write(rom[i]);
   d795a:	f815 1f01 	ldrb.w	r1, [r5, #1]!
   d795e:	2200      	movs	r2, #0
   d7960:	4630      	mov	r0, r6
   d7962:	f7ff ffbe 	bl	d78e2 <_ZN7OneWire5writeEhh>
    for (i = 0; i < 8; i++)
   d7966:	42a5      	cmp	r5, r4
   d7968:	d1f7      	bne.n	d795a <_ZN7OneWire6selectEPKh+0x12>
}
   d796a:	bd70      	pop	{r4, r5, r6, pc}

000d796c <_ZN7OneWire4skipEv>:
//
// Do a ROM skip
//
void OneWire::skip()
{
    write(0xCC); // Skip ROM
   d796c:	2200      	movs	r2, #0
   d796e:	21cc      	movs	r1, #204	; 0xcc
   d7970:	f7ff bfb7 	b.w	d78e2 <_ZN7OneWire5writeEhh>

000d7974 <_ZN7OneWire12reset_searchEv>:
    LastDeviceFlag = FALSE;
    LastFamilyDiscrepancy = 0;

    for (int i = 7;; i--)
    {
        ROM_NO[i] = 0;
   d7974:	2300      	movs	r3, #0
   d7976:	8043      	strh	r3, [r0, #2]
   d7978:	8083      	strh	r3, [r0, #4]
   d797a:	80c3      	strh	r3, [r0, #6]
   d797c:	8103      	strh	r3, [r0, #8]
    LastDiscrepancy = 0;
   d797e:	8143      	strh	r3, [r0, #10]
    LastDeviceFlag = FALSE;
   d7980:	7303      	strb	r3, [r0, #12]
        if (i == 0)
            break;
    }
}
   d7982:	4770      	bx	lr

000d7984 <_ZN7OneWire6searchEPh>:
// search state.
// Return TRUE  : device found, ROM number in ROM_NO buffer
//        FALSE : device not found, end of search
//
uint8_t OneWire::search(uint8_t *newAddr)
{
   d7984:	e92d 47f0 	stmdb	sp!, {r4, r5, r6, r7, r8, r9, sl, lr}
    rom_byte_number = 0;
    rom_byte_mask = 1;
    search_result = 0;

    // if the last call was not the last one
    if (!LastDeviceFlag)
   d7988:	f890 900c 	ldrb.w	r9, [r0, #12]
{
   d798c:	4604      	mov	r4, r0
   d798e:	4688      	mov	r8, r1
    if (!LastDeviceFlag)
   d7990:	f1b9 0f00 	cmp.w	r9, #0
   d7994:	d00d      	beq.n	d79b2 <_ZN7OneWire6searchEPh+0x2e>
    }

    // if no device found then reset counters so next 'search' will be like a first
    if (!search_result || !ROM_NO[0])
    {
        LastDiscrepancy = 0;
   d7996:	2000      	movs	r0, #0
   d7998:	8160      	strh	r0, [r4, #10]
        LastDeviceFlag = FALSE;
   d799a:	7320      	strb	r0, [r4, #12]
        LastFamilyDiscrepancy = 0;
        search_result = FALSE;
    }

    for (int i = 0; i < 8; i++)
   d799c:	1ca3      	adds	r3, r4, #2
   d799e:	f108 38ff 	add.w	r8, r8, #4294967295	; 0xffffffff
   d79a2:	340a      	adds	r4, #10
        newAddr[i] = ROM_NO[i];
   d79a4:	f813 2b01 	ldrb.w	r2, [r3], #1
   d79a8:	f808 2f01 	strb.w	r2, [r8, #1]!
    for (int i = 0; i < 8; i++)
   d79ac:	42a3      	cmp	r3, r4
   d79ae:	d1f9      	bne.n	d79a4 <_ZN7OneWire6searchEPh+0x20>
   d79b0:	e004      	b.n	d79bc <_ZN7OneWire6searchEPh+0x38>
        if (!reset())
   d79b2:	f7ff ff01 	bl	d77b8 <_ZN7OneWire5resetEv>
   d79b6:	b918      	cbnz	r0, d79c0 <_ZN7OneWire6searchEPh+0x3c>
            LastDiscrepancy = 0;
   d79b8:	8160      	strh	r0, [r4, #10]
            LastDeviceFlag = FALSE;
   d79ba:	7320      	strb	r0, [r4, #12]

    return search_result;
}
   d79bc:	e8bd 87f0 	ldmia.w	sp!, {r4, r5, r6, r7, r8, r9, sl, pc}
        write(0xF0);
   d79c0:	464a      	mov	r2, r9
   d79c2:	21f0      	movs	r1, #240	; 0xf0
   d79c4:	4620      	mov	r0, r4
   d79c6:	f7ff ff8c 	bl	d78e2 <_ZN7OneWire5writeEhh>
    rom_byte_mask = 1;
   d79ca:	2601      	movs	r6, #1
    rom_byte_number = 0;
   d79cc:	46ca      	mov	sl, r9
    id_bit_number = 1;
   d79ce:	4635      	mov	r5, r6
            id_bit = read_bit();
   d79d0:	4620      	mov	r0, r4
   d79d2:	f7ff ff64 	bl	d789e <_ZN7OneWire8read_bitEv>
   d79d6:	4607      	mov	r7, r0
            cmp_id_bit = read_bit();
   d79d8:	4620      	mov	r0, r4
   d79da:	f7ff ff60 	bl	d789e <_ZN7OneWire8read_bitEv>
            if ((id_bit == 1) && (cmp_id_bit == 1))
   d79de:	2f01      	cmp	r7, #1
   d79e0:	d10f      	bne.n	d7a02 <_ZN7OneWire6searchEPh+0x7e>
   d79e2:	2801      	cmp	r0, #1
   d79e4:	d127      	bne.n	d7a36 <_ZN7OneWire6searchEPh+0xb2>
        if (!(id_bit_number < 65))
   d79e6:	2d40      	cmp	r5, #64	; 0x40
   d79e8:	d9d5      	bls.n	d7996 <_ZN7OneWire6searchEPh+0x12>
            LastDiscrepancy = last_zero;
   d79ea:	f884 900a 	strb.w	r9, [r4, #10]
            if (LastDiscrepancy == 0)
   d79ee:	f1b9 0f00 	cmp.w	r9, #0
   d79f2:	d101      	bne.n	d79f8 <_ZN7OneWire6searchEPh+0x74>
                LastDeviceFlag = TRUE;
   d79f4:	2301      	movs	r3, #1
   d79f6:	7323      	strb	r3, [r4, #12]
    if (!search_result || !ROM_NO[0])
   d79f8:	78a3      	ldrb	r3, [r4, #2]
   d79fa:	2b00      	cmp	r3, #0
   d79fc:	d0cb      	beq.n	d7996 <_ZN7OneWire6searchEPh+0x12>
            search_result = TRUE;
   d79fe:	2001      	movs	r0, #1
   d7a00:	e7cc      	b.n	d799c <_ZN7OneWire6searchEPh+0x18>
                if (id_bit != cmp_id_bit)
   d7a02:	4287      	cmp	r7, r0
   d7a04:	eb04 030a 	add.w	r3, r4, sl
   d7a08:	d10c      	bne.n	d7a24 <_ZN7OneWire6searchEPh+0xa0>
                    if (id_bit_number < LastDiscrepancy)
   d7a0a:	7aa2      	ldrb	r2, [r4, #10]
   d7a0c:	42aa      	cmp	r2, r5
   d7a0e:	d90e      	bls.n	d7a2e <_ZN7OneWire6searchEPh+0xaa>
                        search_direction = ((ROM_NO[rom_byte_number] & rom_byte_mask) > 0);
   d7a10:	789a      	ldrb	r2, [r3, #2]
   d7a12:	4216      	tst	r6, r2
   d7a14:	bf14      	ite	ne
   d7a16:	2701      	movne	r7, #1
   d7a18:	2700      	moveq	r7, #0
                    if (search_direction == 0)
   d7a1a:	b967      	cbnz	r7, d7a36 <_ZN7OneWire6searchEPh+0xb2>
                        if (last_zero < 9)
   d7a1c:	2d08      	cmp	r5, #8
   d7a1e:	d800      	bhi.n	d7a22 <_ZN7OneWire6searchEPh+0x9e>
                            LastFamilyDiscrepancy = last_zero;
   d7a20:	72e5      	strb	r5, [r4, #11]
                if (search_direction == 1)
   d7a22:	46a9      	mov	r9, r5
                    ROM_NO[rom_byte_number] &= ~rom_byte_mask;
   d7a24:	789a      	ldrb	r2, [r3, #2]
   d7a26:	ea22 0206 	bic.w	r2, r2, r6
   d7a2a:	709a      	strb	r2, [r3, #2]
   d7a2c:	e009      	b.n	d7a42 <_ZN7OneWire6searchEPh+0xbe>
                        search_direction = (id_bit_number == LastDiscrepancy);
   d7a2e:	bf0c      	ite	eq
   d7a30:	2701      	moveq	r7, #1
   d7a32:	2700      	movne	r7, #0
   d7a34:	e7f1      	b.n	d7a1a <_ZN7OneWire6searchEPh+0x96>
                    ROM_NO[rom_byte_number] |= rom_byte_mask;
   d7a36:	eb04 020a 	add.w	r2, r4, sl
   d7a3a:	2701      	movs	r7, #1
   d7a3c:	7893      	ldrb	r3, [r2, #2]
   d7a3e:	4333      	orrs	r3, r6
   d7a40:	7093      	strb	r3, [r2, #2]
                write_bit(search_direction);
   d7a42:	4639      	mov	r1, r7
   d7a44:	4620      	mov	r0, r4
                rom_byte_mask <<= 1;
   d7a46:	0076      	lsls	r6, r6, #1
                write_bit(search_direction);
   d7a48:	f7ff fef5 	bl	d7836 <_ZN7OneWire9write_bitEh>
                if (rom_byte_mask == 0)
   d7a4c:	f016 06ff 	ands.w	r6, r6, #255	; 0xff
                    rom_byte_number++;
   d7a50:	bf04      	itt	eq
   d7a52:	f10a 0a01 	addeq.w	sl, sl, #1
   d7a56:	fa5f fa8a 	uxtbeq.w	sl, sl
                id_bit_number++;
   d7a5a:	f105 0501 	add.w	r5, r5, #1
                    rom_byte_mask = 1;
   d7a5e:	bf08      	it	eq
   d7a60:	2601      	moveq	r6, #1
        } while (rom_byte_number < 8); // loop until through all ROM bytes 0-7
   d7a62:	f1ba 0f07 	cmp.w	sl, #7
                id_bit_number++;
   d7a66:	b2ed      	uxtb	r5, r5
        } while (rom_byte_number < 8); // loop until through all ROM bytes 0-7
   d7a68:	d9b2      	bls.n	d79d0 <_ZN7OneWire6searchEPh+0x4c>
   d7a6a:	e7bc      	b.n	d79e6 <_ZN7OneWire6searchEPh+0x62>

000d7a6c <_ZN7OneWire4crc8EPhh>:
//
// Compute a Dallas Semiconductor 8 bit CRC directly.
// this is much slower, but much smaller, than the lookup table.
//
uint8_t OneWire::crc8(uint8_t *addr, uint8_t len)
{
   d7a6c:	b530      	push	{r4, r5, lr}
   d7a6e:	4602      	mov	r2, r0
    uint8_t crc = 0;
   d7a70:	4401      	add	r1, r0
   d7a72:	2000      	movs	r0, #0

    while (len--)
   d7a74:	428a      	cmp	r2, r1
   d7a76:	d013      	beq.n	d7aa0 <_ZN7OneWire4crc8EPhh+0x34>
    {
        uint8_t inbyte = *addr++;
   d7a78:	f812 5b01 	ldrb.w	r5, [r2], #1
   d7a7c:	2408      	movs	r4, #8
        for (uint8_t i = 8; i; i--)
        {
            uint8_t mix = (crc ^ inbyte) & 0x01;
   d7a7e:	ea80 0305 	eor.w	r3, r0, r5
            crc >>= 1;
            if (mix)
   d7a82:	f013 0f01 	tst.w	r3, #1
   d7a86:	ea4f 0050 	mov.w	r0, r0, lsr #1
                crc ^= 0x8C;
   d7a8a:	bf1c      	itt	ne
   d7a8c:	f080 038c 	eorne.w	r3, r0, #140	; 0x8c
   d7a90:	b2d8      	uxtbne	r0, r3
            inbyte >>= 1;
   d7a92:	1e63      	subs	r3, r4, #1
        for (uint8_t i = 8; i; i--)
   d7a94:	f013 04ff 	ands.w	r4, r3, #255	; 0xff
            inbyte >>= 1;
   d7a98:	ea4f 0555 	mov.w	r5, r5, lsr #1
        for (uint8_t i = 8; i; i--)
   d7a9c:	d1ef      	bne.n	d7a7e <_ZN7OneWire4crc8EPhh+0x12>
   d7a9e:	e7e9      	b.n	d7a74 <_ZN7OneWire4crc8EPhh+0x8>
        }
    }

    return crc;
}
   d7aa0:	bd30      	pop	{r4, r5, pc}

000d7aa2 <_ZNSt17_Function_handlerIFvR21PublishQueueAsyncBaseEMS0_FvvEE10_M_managerERSt9_Any_dataRKS6_St18_Manager_operation>:
	switch (__op)
   d7aa2:	2a01      	cmp	r2, #1
      _M_manager(_Any_data& __dest, const _Any_data& __source,
   d7aa4:	4603      	mov	r3, r0
	switch (__op)
   d7aa6:	d102      	bne.n	d7aae <_ZNSt17_Function_handlerIFvR21PublishQueueAsyncBaseEMS0_FvvEE10_M_managerERSt9_Any_dataRKS6_St18_Manager_operation+0xc>
	    __dest._M_access<_Functor*>() =
   d7aa8:	6001      	str	r1, [r0, #0]
      }
   d7aaa:	2000      	movs	r0, #0
   d7aac:	4770      	bx	lr
	  switch (__op)
   d7aae:	2a02      	cmp	r2, #2
	  ::new (__dest._M_access()) _Functor(__source._M_access<_Functor>());
   d7ab0:	bf04      	itt	eq
   d7ab2:	e9d1 0100 	ldrdeq	r0, r1, [r1]
   d7ab6:	e9c3 0100 	strdeq	r0, r1, [r3]
	}
   d7aba:	e7f6      	b.n	d7aaa <_ZNSt17_Function_handlerIFvR21PublishQueueAsyncBaseEMS0_FvvEE10_M_managerERSt9_Any_dataRKS6_St18_Manager_operation+0x8>

000d7abc <_ZNSt17_Function_handlerIFvR21PublishQueueAsyncBaseEMS0_FvvEE9_M_invokeERKSt9_Any_dataS1_>:
      _M_invoke(const _Any_data& __functor, _ArgTypes&&... __args)
   d7abc:	b410      	push	{r4}

  template<typename _Res, typename _MemFun, typename _Tp, typename... _Args>
    constexpr _Res
    __invoke_impl(__invoke_memfun_ref, _MemFun&& __f, _Tp&& __t,
		  _Args&&... __args)
    { return (__invfwd<_Tp>(__t).*__f)(std::forward<_Args>(__args)...); }
   d7abe:	6842      	ldr	r2, [r0, #4]
   d7ac0:	4603      	mov	r3, r0
   d7ac2:	1054      	asrs	r4, r2, #1
   d7ac4:	eb01 0062 	add.w	r0, r1, r2, asr #1
   d7ac8:	07d2      	lsls	r2, r2, #31
   d7aca:	bf48      	it	mi
   d7acc:	590a      	ldrmi	r2, [r1, r4]
   d7ace:	681b      	ldr	r3, [r3, #0]
      }
   d7ad0:	f85d 4b04 	ldr.w	r4, [sp], #4
   d7ad4:	bf48      	it	mi
   d7ad6:	58d3      	ldrmi	r3, [r2, r3]
   d7ad8:	4718      	bx	r3
	...

000d7adc <_ZN21PublishQueueAsyncBase5setupEv>:
PublishQueueAsyncBase::~PublishQueueAsyncBase() {

}

void PublishQueueAsyncBase::setup() {
	haveSetup = true;
   d7adc:	2301      	movs	r3, #1
void PublishQueueAsyncBase::setup() {
   d7ade:	b5f7      	push	{r0, r1, r2, r4, r5, r6, r7, lr}
	haveSetup = true;
   d7ae0:	f880 3029 	strb.w	r3, [r0, #41]	; 0x29
void PublishQueueAsyncBase::setup() {
   d7ae4:	4606      	mov	r6, r0

	os_mutex_create(&mutex);
   d7ae6:	3008      	adds	r0, #8
   d7ae8:	f000 fae0 	bl	d80ac <os_mutex_create>

	thread = new Thread("PublishQueueAsync", threadFunctionStatic, this, OS_THREAD_PRIORITY_DEFAULT, 2048);
   d7aec:	2004      	movs	r0, #4
   d7aee:	f7fc fad2 	bl	d4096 <_Znwj>
   d7af2:	4605      	mov	r5, r0
   d7af4:	b398      	cbz	r0, d7b5e <_ZN21PublishQueueAsyncBase5setupEv+0x82>
        : d_(new(std::nothrow) Data)
   d7af6:	491b      	ldr	r1, [pc, #108]	; (d7b64 <_ZN21PublishQueueAsyncBase5setupEv+0x88>)
   d7af8:	2014      	movs	r0, #20
   d7afa:	f002 fc94 	bl	da426 <_ZnwjRKSt9nothrow_t>
   d7afe:	b130      	cbz	r0, d7b0e <_ZN21PublishQueueAsyncBase5setupEv+0x32>

  template<std::size_t _Idx, typename _Head>
    struct _Head_base<_Idx, _Head, false>
    {
      constexpr _Head_base()
      : _M_head_impl() { }
   d7b00:	2300      	movs	r3, #0
            exited(false) {
   d7b02:	e9c0 3300 	strd	r3, r3, [r0]
   d7b06:	e9c0 3302 	strd	r3, r3, [r0, #8]
   d7b0a:	7403      	strb	r3, [r0, #16]
   d7b0c:	7443      	strb	r3, [r0, #17]
      __uniq_ptr_impl(pointer __p) : _M_t() { _M_ptr() = __p; }
   d7b0e:	6028      	str	r0, [r5, #0]
        if (!d_) {
   d7b10:	b1a0      	cbz	r0, d7b3c <_ZN21PublishQueueAsyncBase5setupEv+0x60>
        d_->func = function;
   d7b12:	4b15      	ldr	r3, [pc, #84]	; (d7b68 <_ZN21PublishQueueAsyncBase5setupEv+0x8c>)
        if (os_thread_create(&d_->handle, name, priority, &Thread::run, d_.get(), stack_size) != 0) {
   d7b14:	4915      	ldr	r1, [pc, #84]	; (d7b6c <_ZN21PublishQueueAsyncBase5setupEv+0x90>)
        d_->func_param = function_param;
   d7b16:	e9c0 3602 	strd	r3, r6, [r0, #8]
        if (os_thread_create(&d_->handle, name, priority, &Thread::run, d_.get(), stack_size) != 0) {
   d7b1a:	f44f 6300 	mov.w	r3, #2048	; 0x800
   d7b1e:	e9cd 0300 	strd	r0, r3, [sp]
   d7b22:	2202      	movs	r2, #2
   d7b24:	4b12      	ldr	r3, [pc, #72]	; (d7b70 <_ZN21PublishQueueAsyncBase5setupEv+0x94>)
   d7b26:	3004      	adds	r0, #4
   d7b28:	f000 faa8 	bl	d807c <os_thread_create>
   d7b2c:	b930      	cbnz	r0, d7b3c <_ZN21PublishQueueAsyncBase5setupEv+0x60>
      pointer    _M_ptr() const { return std::get<0>(_M_t); }
   d7b2e:	682b      	ldr	r3, [r5, #0]
        while (!d_->started) {
   d7b30:	7c1b      	ldrb	r3, [r3, #16]
   d7b32:	b9a3      	cbnz	r3, d7b5e <_ZN21PublishQueueAsyncBase5setupEv+0x82>
            HAL_Delay_Milliseconds(1);
   d7b34:	2001      	movs	r0, #1
   d7b36:	f000 fb09 	bl	d814c <HAL_Delay_Milliseconds>
        while (!d_->started) {
   d7b3a:	e7f8      	b.n	d7b2e <_ZN21PublishQueueAsyncBase5setupEv+0x52>
      _Tp __tmp = _GLIBCXX_MOVE(__a);
   d7b3c:	682c      	ldr	r4, [r5, #0]
      __a = _GLIBCXX_MOVE(__b);
   d7b3e:	2300      	movs	r3, #0
   d7b40:	602b      	str	r3, [r5, #0]
	if (__p != pointer())
   d7b42:	b164      	cbz	r4, d7b5e <_ZN21PublishQueueAsyncBase5setupEv+0x82>
	if (__ptr != nullptr)
   d7b44:	6827      	ldr	r7, [r4, #0]
   d7b46:	b137      	cbz	r7, d7b56 <_ZN21PublishQueueAsyncBase5setupEv+0x7a>
    class function<_Res(_ArgTypes...)>
   d7b48:	4638      	mov	r0, r7
   d7b4a:	f7fe fcaf 	bl	d64ac <_ZNSt14_Function_baseD1Ev>
	delete __ptr;
   d7b4e:	2110      	movs	r1, #16
   d7b50:	4638      	mov	r0, r7
   d7b52:	f002 fc66 	bl	da422 <_ZdlPvj>
   d7b56:	2114      	movs	r1, #20
   d7b58:	4620      	mov	r0, r4
   d7b5a:	f002 fc62 	bl	da422 <_ZdlPvj>
   d7b5e:	6075      	str	r5, [r6, #4]
}
   d7b60:	b003      	add	sp, #12
   d7b62:	bdf0      	pop	{r4, r5, r6, r7, pc}
   d7b64:	000dbb40 	.word	0x000dbb40
   d7b68:	000d7d7b 	.word	0x000d7d7b
   d7b6c:	000db848 	.word	0x000db848
   d7b70:	000d676f 	.word	0x000d676f

000d7b74 <_ZN21PublishQueueAsyncBaseC1Ev>:
PublishQueueAsyncBase::PublishQueueAsyncBase() {
   d7b74:	f247 5130 	movw	r1, #30000	; 0x7530
   d7b78:	4a08      	ldr	r2, [pc, #32]	; (d7b9c <_ZN21PublishQueueAsyncBaseC1Ev+0x28>)
   d7b7a:	60c1      	str	r1, [r0, #12]
	{ ::new (__functor._M_access()) _Functor(std::move(__f)); }
   d7b7c:	4908      	ldr	r1, [pc, #32]	; (d7ba0 <_ZN21PublishQueueAsyncBaseC1Ev+0x2c>)
   d7b7e:	6002      	str	r2, [r0, #0]
   d7b80:	2200      	movs	r2, #0
   d7b82:	e9c0 1204 	strd	r1, r2, [r0, #16]
	    _M_invoker = &_My_handler::_M_invoke;
   d7b86:	4907      	ldr	r1, [pc, #28]	; (d7ba4 <_ZN21PublishQueueAsyncBaseC1Ev+0x30>)
   d7b88:	61c1      	str	r1, [r0, #28]
	    _M_manager = &_My_handler::_M_manager;
   d7b8a:	4907      	ldr	r1, [pc, #28]	; (d7ba8 <_ZN21PublishQueueAsyncBaseC1Ev+0x34>)
   d7b8c:	6042      	str	r2, [r0, #4]
   d7b8e:	e9c0 2208 	strd	r2, r2, [r0, #32]
   d7b92:	6181      	str	r1, [r0, #24]
   d7b94:	8502      	strh	r2, [r0, #40]	; 0x28
   d7b96:	f880 202a 	strb.w	r2, [r0, #42]	; 0x2a
}
   d7b9a:	4770      	bx	lr
   d7b9c:	000db90c 	.word	0x000db90c
   d7ba0:	000d7ee5 	.word	0x000d7ee5
   d7ba4:	000d7abd 	.word	0x000d7abd
   d7ba8:	000d7aa3 	.word	0x000d7aa3

000d7bac <_ZN21PublishQueueAsyncBaseD1Ev>:
PublishQueueAsyncBase::~PublishQueueAsyncBase() {
   d7bac:	b510      	push	{r4, lr}
   d7bae:	4b04      	ldr	r3, [pc, #16]	; (d7bc0 <_ZN21PublishQueueAsyncBaseD1Ev+0x14>)
   d7bb0:	4604      	mov	r4, r0
   d7bb2:	f840 3b10 	str.w	r3, [r0], #16
    class function<_Res(_ArgTypes...)>
   d7bb6:	f7fe fc79 	bl	d64ac <_ZNSt14_Function_baseD1Ev>
}
   d7bba:	4620      	mov	r0, r4
   d7bbc:	bd10      	pop	{r4, pc}
   d7bbe:	bf00      	nop
   d7bc0:	000db90c 	.word	0x000db90c

000d7bc4 <_ZN25PublishQueueAsyncRetainedD1Ev>:
		hdr->numEvents = 0;
		nextFree = &retainedBuffer[sizeof(PublishQueueHeader)];
	}
}

PublishQueueAsyncRetained::~PublishQueueAsyncRetained() {
   d7bc4:	b510      	push	{r4, lr}
   d7bc6:	4b03      	ldr	r3, [pc, #12]	; (d7bd4 <_ZN25PublishQueueAsyncRetainedD1Ev+0x10>)
   d7bc8:	6003      	str	r3, [r0, #0]
   d7bca:	4604      	mov	r4, r0
   d7bcc:	f7ff ffee 	bl	d7bac <_ZN21PublishQueueAsyncBaseD1Ev>

}
   d7bd0:	4620      	mov	r0, r4
   d7bd2:	bd10      	pop	{r4, pc}
   d7bd4:	000db934 	.word	0x000db934

000d7bd8 <_ZN25PublishQueueAsyncRetainedD0Ev>:
PublishQueueAsyncRetained::~PublishQueueAsyncRetained() {
   d7bd8:	b510      	push	{r4, lr}
   d7bda:	4604      	mov	r4, r0
}
   d7bdc:	f7ff fff2 	bl	d7bc4 <_ZN25PublishQueueAsyncRetainedD1Ev>
   d7be0:	4620      	mov	r0, r4
   d7be2:	2138      	movs	r1, #56	; 0x38
   d7be4:	f002 fc1d 	bl	da422 <_ZdlPvj>
   d7be8:	4620      	mov	r0, r4
   d7bea:	bd10      	pop	{r4, pc}

000d7bec <_ZNK21PublishQueueAsyncBase9mutexLockEv>:
	os_mutex_lock(mutex);
   d7bec:	6880      	ldr	r0, [r0, #8]
   d7bee:	f000 ba6d 	b.w	d80cc <os_mutex_lock>

000d7bf2 <_ZNK21PublishQueueAsyncBase11mutexUnlockEv>:
	os_mutex_unlock(mutex);
   d7bf2:	6880      	ldr	r0, [r0, #8]
   d7bf4:	f000 ba72 	b.w	d80dc <os_mutex_unlock>

000d7bf8 <_ZN11StMutexLockD1Ev>:
	}

	/**
	 * @brief Unlock the mutex on destructor
	 */
	~StMutexLock() {
   d7bf8:	b510      	push	{r4, lr}
   d7bfa:	4604      	mov	r4, r0
		publishQueue->mutexUnlock();
   d7bfc:	6800      	ldr	r0, [r0, #0]
   d7bfe:	f7ff fff8 	bl	d7bf2 <_ZNK21PublishQueueAsyncBase11mutexUnlockEv>
	}
   d7c02:	4620      	mov	r0, r4
   d7c04:	bd10      	pop	{r4, pc}

000d7c06 <_ZN25PublishQueueAsyncRetained14getOldestEventEv>:
	// Not reached
	return false;
}


PublishQueueEventData *PublishQueueAsyncRetained::getOldestEvent() {
   d7c06:	b513      	push	{r0, r1, r4, lr}
   d7c08:	4604      	mov	r4, r0
	StMutexLock(const PublishQueueAsyncBase *publishQueue) : publishQueue(publishQueue) {
   d7c0a:	9001      	str	r0, [sp, #4]
		publishQueue->mutexLock();
   d7c0c:	f7ff ffee 	bl	d7bec <_ZNK21PublishQueueAsyncBase9mutexLockEv>
	// This entire function holds a mutex lock that's released when returning
	StMutexLock lock(this);
	PublishQueueEventData *eventData = NULL;

	volatile PublishQueueHeader *hdr = reinterpret_cast<PublishQueueHeader *>(retainedBuffer);
   d7c10:	6ae3      	ldr	r3, [r4, #44]	; 0x2c
	if (hdr->numEvents > 0) {
   d7c12:	88dc      	ldrh	r4, [r3, #6]
   d7c14:	b2a4      	uxth	r4, r4
   d7c16:	b10c      	cbz	r4, d7c1c <_ZN25PublishQueueAsyncRetained14getOldestEventEv+0x16>
		eventData = reinterpret_cast<PublishQueueEventData *>(&retainedBuffer[sizeof(PublishQueueHeader)]);
   d7c18:	f103 0408 	add.w	r4, r3, #8
	StMutexLock lock(this);
   d7c1c:	a801      	add	r0, sp, #4
   d7c1e:	f7ff ffeb 	bl	d7bf8 <_ZN11StMutexLockD1Ev>
	}

	return eventData;
}
   d7c22:	4620      	mov	r0, r4
   d7c24:	b002      	add	sp, #8
   d7c26:	bd10      	pop	{r4, pc}

000d7c28 <_ZN25PublishQueueAsyncRetained11clearEventsEv>:

bool PublishQueueAsyncRetained::clearEvents() {
   d7c28:	b513      	push	{r0, r1, r4, lr}
   d7c2a:	4604      	mov	r4, r0
	StMutexLock(const PublishQueueAsyncBase *publishQueue) : publishQueue(publishQueue) {
   d7c2c:	9001      	str	r0, [sp, #4]
		publishQueue->mutexLock();
   d7c2e:	f7ff ffdd 	bl	d7bec <_ZNK21PublishQueueAsyncBase9mutexLockEv>
	bool result = false;

	StMutexLock lock(this);

	PublishQueueHeader *hdr = reinterpret_cast<PublishQueueHeader *>(retainedBuffer);
	if (!isSending) {
   d7c32:	f894 3028 	ldrb.w	r3, [r4, #40]	; 0x28
   d7c36:	b943      	cbnz	r3, d7c4a <_ZN25PublishQueueAsyncRetained11clearEventsEv+0x22>
	PublishQueueHeader *hdr = reinterpret_cast<PublishQueueHeader *>(retainedBuffer);
   d7c38:	6ae2      	ldr	r2, [r4, #44]	; 0x2c
		hdr->numEvents = 0;
		result = true;
   d7c3a:	2401      	movs	r4, #1
		hdr->numEvents = 0;
   d7c3c:	80d3      	strh	r3, [r2, #6]
	StMutexLock lock(this);
   d7c3e:	a801      	add	r0, sp, #4
   d7c40:	f7ff ffda 	bl	d7bf8 <_ZN11StMutexLockD1Ev>
	}

	return result;
}
   d7c44:	4620      	mov	r0, r4
   d7c46:	b002      	add	sp, #8
   d7c48:	bd10      	pop	{r4, pc}
	bool result = false;
   d7c4a:	2400      	movs	r4, #0
   d7c4c:	e7f7      	b.n	d7c3e <_ZN25PublishQueueAsyncRetained11clearEventsEv+0x16>

000d7c4e <_ZNK25PublishQueueAsyncRetained12getNumEventsEv>:


	return true;
}

uint16_t PublishQueueAsyncRetained::getNumEvents() const {
   d7c4e:	b513      	push	{r0, r1, r4, lr}
   d7c50:	4604      	mov	r4, r0
	StMutexLock(const PublishQueueAsyncBase *publishQueue) : publishQueue(publishQueue) {
   d7c52:	9001      	str	r0, [sp, #4]
		publishQueue->mutexLock();
   d7c54:	f7ff ffca 	bl	d7bec <_ZNK21PublishQueueAsyncBase9mutexLockEv>

	{
		StMutexLock lock(this);

		PublishQueueHeader *hdr = reinterpret_cast<PublishQueueHeader *>(retainedBuffer);
		numEvents = hdr->numEvents;
   d7c58:	6ae3      	ldr	r3, [r4, #44]	; 0x2c
		StMutexLock lock(this);
   d7c5a:	a801      	add	r0, sp, #4
		numEvents = hdr->numEvents;
   d7c5c:	88dc      	ldrh	r4, [r3, #6]
		StMutexLock lock(this);
   d7c5e:	f7ff ffcb 	bl	d7bf8 <_ZN11StMutexLockD1Ev>
	}

	return numEvents;
}
   d7c62:	4620      	mov	r0, r4
   d7c64:	b002      	add	sp, #8
   d7c66:	bd10      	pop	{r4, pc}

000d7c68 <_ZN25PublishQueueAsyncRetained13publishCommonEPKcS1_iN8particle5FlagsI15PublishFlagTypehEES5_>:
bool PublishQueueAsyncRetained::publishCommon(const char *eventName, const char *data, int ttl, PublishFlags flags1, PublishFlags flags2) {
   d7c68:	e92d 47f0 	stmdb	sp!, {r4, r5, r6, r7, r8, r9, sl, lr}
   d7c6c:	4699      	mov	r9, r3
   d7c6e:	b086      	sub	sp, #24
	if (!haveSetup) {
   d7c70:	f890 3029 	ldrb.w	r3, [r0, #41]	; 0x29
   d7c74:	f89d a038 	ldrb.w	sl, [sp, #56]	; 0x38
   d7c78:	f89d 803c 	ldrb.w	r8, [sp, #60]	; 0x3c
bool PublishQueueAsyncRetained::publishCommon(const char *eventName, const char *data, int ttl, PublishFlags flags1, PublishFlags flags2) {
   d7c7c:	4604      	mov	r4, r0
   d7c7e:	460f      	mov	r7, r1
   d7c80:	4616      	mov	r6, r2
	if (!haveSetup) {
   d7c82:	b913      	cbnz	r3, d7c8a <_ZN25PublishQueueAsyncRetained13publishCommonEPKcS1_iN8particle5FlagsI15PublishFlagTypehEES5_+0x22>
		setup();
   d7c84:	6803      	ldr	r3, [r0, #0]
   d7c86:	689b      	ldr	r3, [r3, #8]
   d7c88:	4798      	blx	r3
		data = "";
   d7c8a:	4b31      	ldr	r3, [pc, #196]	; (d7d50 <_ZN25PublishQueueAsyncRetained13publishCommonEPKcS1_iN8particle5FlagsI15PublishFlagTypehEES5_+0xe8>)
	size_t size = sizeof(PublishQueueEventData) + strlen(eventName) + strlen(data) + 2;
   d7c8c:	4638      	mov	r0, r7
		data = "";
   d7c8e:	2e00      	cmp	r6, #0
   d7c90:	bf08      	it	eq
   d7c92:	461e      	moveq	r6, r3
	size_t size = sizeof(PublishQueueEventData) + strlen(eventName) + strlen(data) + 2;
   d7c94:	f003 f911 	bl	daeba <strlen>
   d7c98:	4605      	mov	r5, r0
   d7c9a:	4630      	mov	r0, r6
   d7c9c:	f003 f90d 	bl	daeba <strlen>
   d7ca0:	4428      	add	r0, r5
   d7ca2:	f100 050a 	add.w	r5, r0, #10
	if ((size % 4) != 0) {
   d7ca6:	07ab      	lsls	r3, r5, #30
		size += 4 - (size % 4);
   d7ca8:	bf1c      	itt	ne
   d7caa:	f025 0503 	bicne.w	r5, r5, #3
   d7cae:	3504      	addne	r5, #4
	pubqLogger.info("queueing eventName=%s data=%s ttl=%d flags1=%d flags2=%d size=%d", eventName, data, ttl, flags1.value(), flags2.value(), size);
   d7cb0:	4633      	mov	r3, r6
   d7cb2:	e9cd 8502 	strd	r8, r5, [sp, #8]
   d7cb6:	e9cd 9a00 	strd	r9, sl, [sp]
   d7cba:	4926      	ldr	r1, [pc, #152]	; (d7d54 <_ZN25PublishQueueAsyncRetained13publishCommonEPKcS1_iN8particle5FlagsI15PublishFlagTypehEES5_+0xec>)
   d7cbc:	4826      	ldr	r0, [pc, #152]	; (d7d58 <_ZN25PublishQueueAsyncRetained13publishCommonEPKcS1_iN8particle5FlagsI15PublishFlagTypehEES5_+0xf0>)
   d7cbe:	463a      	mov	r2, r7
   d7cc0:	f7fc fb03 	bl	d42ca <_ZNK5spark6Logger4infoEPKcz>
	if  (size > (retainedBufferSize - sizeof(PublishQueueHeader))) {
   d7cc4:	8e23      	ldrh	r3, [r4, #48]	; 0x30
   d7cc6:	3b08      	subs	r3, #8
   d7cc8:	42ab      	cmp	r3, r5
   d7cca:	d212      	bcs.n	d7cf2 <_ZN25PublishQueueAsyncRetained13publishCommonEPKcS1_iN8particle5FlagsI15PublishFlagTypehEES5_+0x8a>
		return false;
   d7ccc:	2400      	movs	r4, #0
}
   d7cce:	4620      	mov	r0, r4
   d7cd0:	b006      	add	sp, #24
   d7cd2:	e8bd 87f0 	ldmia.w	sp!, {r4, r5, r6, r7, r8, r9, sl, pc}
			if (hdr->numEvents == 1) {
   d7cd6:	88cb      	ldrh	r3, [r1, #6]
   d7cd8:	2b01      	cmp	r3, #1
   d7cda:	d036      	beq.n	d7d4a <_ZN25PublishQueueAsyncRetained13publishCommonEPKcS1_iN8particle5FlagsI15PublishFlagTypehEES5_+0xe2>
			StMutexLock lock(this);
   d7cdc:	a805      	add	r0, sp, #20
   d7cde:	f7ff ff8b 	bl	d7bf8 <_ZN11StMutexLockD1Ev>
		if (!discardOldEvent(isSending)) {
   d7ce2:	6823      	ldr	r3, [r4, #0]
   d7ce4:	f894 1028 	ldrb.w	r1, [r4, #40]	; 0x28
   d7ce8:	699b      	ldr	r3, [r3, #24]
   d7cea:	4620      	mov	r0, r4
   d7cec:	4798      	blx	r3
   d7cee:	2800      	cmp	r0, #0
   d7cf0:	d0ec      	beq.n	d7ccc <_ZN25PublishQueueAsyncRetained13publishCommonEPKcS1_iN8particle5FlagsI15PublishFlagTypehEES5_+0x64>
   d7cf2:	4620      	mov	r0, r4
	StMutexLock(const PublishQueueAsyncBase *publishQueue) : publishQueue(publishQueue) {
   d7cf4:	9405      	str	r4, [sp, #20]
		publishQueue->mutexLock();
   d7cf6:	f7ff ff79 	bl	d7bec <_ZNK21PublishQueueAsyncBase9mutexLockEv>
			uint8_t *end = &retainedBuffer[retainedBufferSize];
   d7cfa:	6ae1      	ldr	r1, [r4, #44]	; 0x2c
   d7cfc:	8e22      	ldrh	r2, [r4, #48]	; 0x30
			if ((size_t)(end - nextFree) >= size) {
   d7cfe:	6b63      	ldr	r3, [r4, #52]	; 0x34
			uint8_t *end = &retainedBuffer[retainedBufferSize];
   d7d00:	440a      	add	r2, r1
			if ((size_t)(end - nextFree) >= size) {
   d7d02:	1ad2      	subs	r2, r2, r3
   d7d04:	42aa      	cmp	r2, r5
   d7d06:	d3e6      	bcc.n	d7cd6 <_ZN25PublishQueueAsyncRetained13publishCommonEPKcS1_iN8particle5FlagsI15PublishFlagTypehEES5_+0x6e>
				eventData->flags = flags1.value() | flags2.value();
   d7d08:	ea48 080a 	orr.w	r8, r8, sl
   d7d0c:	f883 8004 	strb.w	r8, [r3, #4]
				eventData->ttl = ttl;
   d7d10:	f8c3 9000 	str.w	r9, [r3]
				char *cp = reinterpret_cast<char *>(nextFree);
   d7d14:	6b63      	ldr	r3, [r4, #52]	; 0x34
				cp += sizeof(PublishQueueEventData);
   d7d16:	f103 0808 	add.w	r8, r3, #8
				strcpy(cp, eventName);
   d7d1a:	4639      	mov	r1, r7
   d7d1c:	4640      	mov	r0, r8
   d7d1e:	f003 f8a7 	bl	dae70 <strcpy>
				cp += strlen(cp) + 1;
   d7d22:	4640      	mov	r0, r8
   d7d24:	f003 f8c9 	bl	daeba <strlen>
   d7d28:	3001      	adds	r0, #1
				strcpy(cp, data);
   d7d2a:	4631      	mov	r1, r6
   d7d2c:	4440      	add	r0, r8
   d7d2e:	f003 f89f 	bl	dae70 <strcpy>
				nextFree += size;
   d7d32:	6b63      	ldr	r3, [r4, #52]	; 0x34
				PublishQueueHeader *hdr = reinterpret_cast<PublishQueueHeader *>(retainedBuffer);
   d7d34:	6ae2      	ldr	r2, [r4, #44]	; 0x2c
				nextFree += size;
   d7d36:	441d      	add	r5, r3
   d7d38:	6365      	str	r5, [r4, #52]	; 0x34
				hdr->numEvents++;
   d7d3a:	88d3      	ldrh	r3, [r2, #6]
   d7d3c:	3301      	adds	r3, #1
   d7d3e:	80d3      	strh	r3, [r2, #6]
				return true;
   d7d40:	2401      	movs	r4, #1
			StMutexLock lock(this);
   d7d42:	a805      	add	r0, sp, #20
   d7d44:	f7ff ff58 	bl	d7bf8 <_ZN11StMutexLockD1Ev>
   d7d48:	e7c1      	b.n	d7cce <_ZN25PublishQueueAsyncRetained13publishCommonEPKcS1_iN8particle5FlagsI15PublishFlagTypehEES5_+0x66>
				return false;
   d7d4a:	2400      	movs	r4, #0
   d7d4c:	e7f9      	b.n	d7d42 <_ZN25PublishQueueAsyncRetained13publishCommonEPKcS1_iN8particle5FlagsI15PublishFlagTypehEES5_+0xda>
   d7d4e:	bf00      	nop
   d7d50:	000db230 	.word	0x000db230
   d7d54:	000db85a 	.word	0x000db85a
   d7d58:	2003e5e0 	.word	0x2003e5e0

000d7d5c <_ZN21PublishQueueAsyncBase14threadFunctionEv>:
void PublishQueueAsyncBase::threadFunction() {
   d7d5c:	b508      	push	{r3, lr}
   d7d5e:	4604      	mov	r4, r0
      return _M_invoker(_M_functor, std::forward<_ArgTypes>(__args)...);
   d7d60:	f100 0510 	add.w	r5, r0, #16
      if (_M_empty())
   d7d64:	69a3      	ldr	r3, [r4, #24]
   d7d66:	b90b      	cbnz	r3, d7d6c <_ZN21PublishQueueAsyncBase14threadFunctionEv+0x10>
	__throw_bad_function_call();
   d7d68:	f002 fb61 	bl	da42e <_ZSt25__throw_bad_function_callv>
      return _M_invoker(_M_functor, std::forward<_ArgTypes>(__args)...);
   d7d6c:	69e3      	ldr	r3, [r4, #28]
   d7d6e:	4621      	mov	r1, r4
   d7d70:	4628      	mov	r0, r5
   d7d72:	4798      	blx	r3
		os_thread_yield();
   d7d74:	f000 f98a 	bl	d808c <os_thread_yield>
	while(true) {
   d7d78:	e7f4      	b.n	d7d64 <_ZN21PublishQueueAsyncBase14threadFunctionEv+0x8>

000d7d7a <_ZN21PublishQueueAsyncBase20threadFunctionStaticEPv>:
void PublishQueueAsyncBase::threadFunctionStatic(void *param) {
   d7d7a:	b508      	push	{r3, lr}
	static_cast<PublishQueueAsync *>(param)->threadFunction();
   d7d7c:	f7ff ffee 	bl	d7d5c <_ZN21PublishQueueAsyncBase14threadFunctionEv>

000d7d80 <_ZN25PublishQueueAsyncRetained9skipEventEPh>:
uint8_t *PublishQueueAsyncRetained::skipEvent(uint8_t *start) {
   d7d80:	b568      	push	{r3, r5, r6, lr}
	start += sizeof(PublishQueueEventData);
   d7d82:	f101 0508 	add.w	r5, r1, #8
uint8_t *PublishQueueAsyncRetained::skipEvent(uint8_t *start) {
   d7d86:	4606      	mov	r6, r0
	start += strlen(reinterpret_cast<char *>(start)) + 1;
   d7d88:	4628      	mov	r0, r5
   d7d8a:	f003 f896 	bl	daeba <strlen>
   d7d8e:	3001      	adds	r0, #1
   d7d90:	4405      	add	r5, r0
	start += strlen(reinterpret_cast<char *>(start)) + 1;
   d7d92:	4628      	mov	r0, r5
   d7d94:	f003 f891 	bl	daeba <strlen>
	size_t offset = start - retainedBuffer;
   d7d98:	6af3      	ldr	r3, [r6, #44]	; 0x2c
	start += strlen(reinterpret_cast<char *>(start)) + 1;
   d7d9a:	3001      	adds	r0, #1
   d7d9c:	4428      	add	r0, r5
	size_t offset = start - retainedBuffer;
   d7d9e:	1ac3      	subs	r3, r0, r3
	if ((offset % 4) != 0) {
   d7da0:	f013 0303 	ands.w	r3, r3, #3
		start += 4 - (offset % 4);
   d7da4:	bf1c      	itt	ne
   d7da6:	f1c3 0304 	rsbne	r3, r3, #4
   d7daa:	18c0      	addne	r0, r0, r3
}
   d7dac:	bd68      	pop	{r3, r5, r6, pc}

000d7dae <_ZN25PublishQueueAsyncRetained15discardOldEventEb>:
bool PublishQueueAsyncRetained::discardOldEvent(bool secondEvent) {
   d7dae:	b5f7      	push	{r0, r1, r2, r4, r5, r6, r7, lr}
   d7db0:	4604      	mov	r4, r0
   d7db2:	460e      	mov	r6, r1
	StMutexLock(const PublishQueueAsyncBase *publishQueue) : publishQueue(publishQueue) {
   d7db4:	9001      	str	r0, [sp, #4]
		publishQueue->mutexLock();
   d7db6:	f7ff ff19 	bl	d7bec <_ZNK21PublishQueueAsyncBase9mutexLockEv>
	PublishQueueHeader *hdr = reinterpret_cast<PublishQueueHeader *>(retainedBuffer);
   d7dba:	6ae7      	ldr	r7, [r4, #44]	; 0x2c
	uint8_t *start = &retainedBuffer[sizeof(PublishQueueHeader)];
   d7dbc:	88fb      	ldrh	r3, [r7, #6]
   d7dbe:	f107 0508 	add.w	r5, r7, #8
	if (secondEvent) {
   d7dc2:	b1e6      	cbz	r6, d7dfe <_ZN25PublishQueueAsyncRetained15discardOldEventEb+0x50>
		if (hdr->numEvents < 2) {
   d7dc4:	2b01      	cmp	r3, #1
   d7dc6:	d922      	bls.n	d7e0e <_ZN25PublishQueueAsyncRetained15discardOldEventEb+0x60>
		start = skipEvent(start);
   d7dc8:	4629      	mov	r1, r5
   d7dca:	4620      	mov	r0, r4
   d7dcc:	f7ff ffd8 	bl	d7d80 <_ZN25PublishQueueAsyncRetained9skipEventEPh>
   d7dd0:	4605      	mov	r5, r0
	uint8_t *next = skipEvent(start);
   d7dd2:	4629      	mov	r1, r5
   d7dd4:	4620      	mov	r0, r4
   d7dd6:	f7ff ffd3 	bl	d7d80 <_ZN25PublishQueueAsyncRetained9skipEventEPh>
	uint8_t *end = &retainedBuffer[retainedBufferSize];
   d7dda:	8e22      	ldrh	r2, [r4, #48]	; 0x30
   d7ddc:	443a      	add	r2, r7
	if (after > 0) {
   d7dde:	1a12      	subs	r2, r2, r0
	uint8_t *next = skipEvent(start);
   d7de0:	4601      	mov	r1, r0
	size_t len = next - start;
   d7de2:	eba0 0605 	sub.w	r6, r0, r5
	if (after > 0) {
   d7de6:	d002      	beq.n	d7dee <_ZN25PublishQueueAsyncRetained15discardOldEventEb+0x40>
		memmove(start, next, after);
   d7de8:	4628      	mov	r0, r5
   d7dea:	f002 fff1 	bl	dadd0 <memmove>
	nextFree -= len;
   d7dee:	6b63      	ldr	r3, [r4, #52]	; 0x34
   d7df0:	1b9b      	subs	r3, r3, r6
   d7df2:	6363      	str	r3, [r4, #52]	; 0x34
	hdr->numEvents--;
   d7df4:	88fb      	ldrh	r3, [r7, #6]
   d7df6:	3b01      	subs	r3, #1
   d7df8:	80fb      	strh	r3, [r7, #6]
	return true;
   d7dfa:	2601      	movs	r6, #1
   d7dfc:	e001      	b.n	d7e02 <_ZN25PublishQueueAsyncRetained15discardOldEventEb+0x54>
		if (hdr->numEvents < 1) {
   d7dfe:	2b00      	cmp	r3, #0
   d7e00:	d1e7      	bne.n	d7dd2 <_ZN25PublishQueueAsyncRetained15discardOldEventEb+0x24>
	StMutexLock lock(this);
   d7e02:	a801      	add	r0, sp, #4
   d7e04:	f7ff fef8 	bl	d7bf8 <_ZN11StMutexLockD1Ev>
}
   d7e08:	4630      	mov	r0, r6
   d7e0a:	b003      	add	sp, #12
   d7e0c:	bdf0      	pop	{r4, r5, r6, r7, pc}
			return false;
   d7e0e:	2600      	movs	r6, #0
   d7e10:	e7f7      	b.n	d7e02 <_ZN25PublishQueueAsyncRetained15discardOldEventEb+0x54>
	...

000d7e14 <_ZN25PublishQueueAsyncRetainedC1EPht>:
PublishQueueAsyncRetained::PublishQueueAsyncRetained(uint8_t *retainedBuffer, uint16_t retainedBufferSize) :
   d7e14:	e92d 47f0 	stmdb	sp!, {r4, r5, r6, r7, r8, r9, sl, lr}
   d7e18:	460d      	mov	r5, r1
   d7e1a:	4604      	mov	r4, r0
	if (hdr->magic == PUBLISH_QUEUE_HEADER_MAGIC && hdr->size == retainedBufferSize) {
   d7e1c:	462f      	mov	r7, r5
PublishQueueAsyncRetained::PublishQueueAsyncRetained(uint8_t *retainedBuffer, uint16_t retainedBufferSize) :
   d7e1e:	4616      	mov	r6, r2
		retainedBuffer(retainedBuffer), retainedBufferSize(retainedBufferSize) {
   d7e20:	f7ff fea8 	bl	d7b74 <_ZN21PublishQueueAsyncBaseC1Ev>
   d7e24:	4b15      	ldr	r3, [pc, #84]	; (d7e7c <_ZN25PublishQueueAsyncRetainedC1EPht+0x68>)
	if (hdr->magic == PUBLISH_QUEUE_HEADER_MAGIC && hdr->size == retainedBufferSize) {
   d7e26:	f857 2b08 	ldr.w	r2, [r7], #8
		retainedBuffer(retainedBuffer), retainedBufferSize(retainedBufferSize) {
   d7e2a:	6023      	str	r3, [r4, #0]
	if (hdr->magic == PUBLISH_QUEUE_HEADER_MAGIC && hdr->size == retainedBufferSize) {
   d7e2c:	4b14      	ldr	r3, [pc, #80]	; (d7e80 <_ZN25PublishQueueAsyncRetainedC1EPht+0x6c>)
		retainedBuffer(retainedBuffer), retainedBufferSize(retainedBufferSize) {
   d7e2e:	62e5      	str	r5, [r4, #44]	; 0x2c
	if (hdr->magic == PUBLISH_QUEUE_HEADER_MAGIC && hdr->size == retainedBufferSize) {
   d7e30:	429a      	cmp	r2, r3
		retainedBuffer(retainedBuffer), retainedBufferSize(retainedBufferSize) {
   d7e32:	8626      	strh	r6, [r4, #48]	; 0x30
	if (hdr->magic == PUBLISH_QUEUE_HEADER_MAGIC && hdr->size == retainedBufferSize) {
   d7e34:	4698      	mov	r8, r3
   d7e36:	d117      	bne.n	d7e68 <_ZN25PublishQueueAsyncRetainedC1EPht+0x54>
   d7e38:	88ab      	ldrh	r3, [r5, #4]
   d7e3a:	b29b      	uxth	r3, r3
   d7e3c:	42b3      	cmp	r3, r6
   d7e3e:	d113      	bne.n	d7e68 <_ZN25PublishQueueAsyncRetainedC1EPht+0x54>
		uint8_t *end = &retainedBuffer[retainedBufferSize];
   d7e40:	eb05 0a06 	add.w	sl, r5, r6
		nextFree = &retainedBuffer[sizeof(PublishQueueHeader)];
   d7e44:	6367      	str	r7, [r4, #52]	; 0x34
   d7e46:	f04f 0900 	mov.w	r9, #0
		for(uint16_t ii = 0; ii < hdr->numEvents; ii++) {
   d7e4a:	88eb      	ldrh	r3, [r5, #6]
   d7e4c:	fa1f f289 	uxth.w	r2, r9
   d7e50:	b29b      	uxth	r3, r3
   d7e52:	429a      	cmp	r2, r3
   d7e54:	d20e      	bcs.n	d7e74 <_ZN25PublishQueueAsyncRetainedC1EPht+0x60>
			nextFree = skipEvent(nextFree);
   d7e56:	6b61      	ldr	r1, [r4, #52]	; 0x34
   d7e58:	4620      	mov	r0, r4
   d7e5a:	f7ff ff91 	bl	d7d80 <_ZN25PublishQueueAsyncRetained9skipEventEPh>
			if (nextFree > end) {
   d7e5e:	4550      	cmp	r0, sl
			nextFree = skipEvent(nextFree);
   d7e60:	6360      	str	r0, [r4, #52]	; 0x34
			if (nextFree > end) {
   d7e62:	f109 0901 	add.w	r9, r9, #1
   d7e66:	d9f0      	bls.n	d7e4a <_ZN25PublishQueueAsyncRetainedC1EPht+0x36>
		hdr->numEvents = 0;
   d7e68:	2300      	movs	r3, #0
		hdr->magic = PUBLISH_QUEUE_HEADER_MAGIC;
   d7e6a:	f8c5 8000 	str.w	r8, [r5]
		nextFree = &retainedBuffer[sizeof(PublishQueueHeader)];
   d7e6e:	6367      	str	r7, [r4, #52]	; 0x34
		hdr->size = retainedBufferSize;
   d7e70:	80ae      	strh	r6, [r5, #4]
		hdr->numEvents = 0;
   d7e72:	80eb      	strh	r3, [r5, #6]
}
   d7e74:	4620      	mov	r0, r4
   d7e76:	e8bd 87f0 	ldmia.w	sp!, {r4, r5, r6, r7, r8, r9, sl, pc}
   d7e7a:	bf00      	nop
   d7e7c:	000db934 	.word	0x000db934
   d7e80:	d19cab61 	.word	0xd19cab61

000d7e84 <_ZNSt8functionIFvR21PublishQueueAsyncBaseEEaSIMS0_FvvEEENSt9enable_ifIXsrNS3_9_CallableINSt5decayIT_E4typeESt15__invoke_resultIRSC_JS1_EEEE5valueERS3_E4typeEOSA_>:
	operator=(_Functor&& __f)
   d7e84:	b510      	push	{r4, lr}
   d7e86:	e9d1 2300 	ldrd	r2, r3, [r1]
   d7e8a:	b086      	sub	sp, #24
    _Function_base() : _M_manager(nullptr) { }
   d7e8c:	2100      	movs	r1, #0
	operator=(_Functor&& __f)
   d7e8e:	4604      	mov	r4, r0
    _Function_base() : _M_manager(nullptr) { }
   d7e90:	9104      	str	r1, [sp, #16]
	  { return __mp != nullptr; }
   d7e92:	b90a      	cbnz	r2, d7e98 <_ZNSt8functionIFvR21PublishQueueAsyncBaseEEaSIMS0_FvvEEENSt9enable_ifIXsrNS3_9_CallableINSt5decayIT_E4typeESt15__invoke_resultIRSC_JS1_EEEE5valueERS3_E4typeEOSA_+0x14>
   d7e94:	07d9      	lsls	r1, r3, #31
   d7e96:	d505      	bpl.n	d7ea4 <_ZNSt8functionIFvR21PublishQueueAsyncBaseEEaSIMS0_FvvEEENSt9enable_ifIXsrNS3_9_CallableINSt5decayIT_E4typeESt15__invoke_resultIRSC_JS1_EEEE5valueERS3_E4typeEOSA_+0x20>
	{ ::new (__functor._M_access()) _Functor(std::move(__f)); }
   d7e98:	e9cd 2302 	strd	r2, r3, [sp, #8]
	    _M_invoker = &_My_handler::_M_invoke;
   d7e9c:	4b0f      	ldr	r3, [pc, #60]	; (d7edc <_ZNSt8functionIFvR21PublishQueueAsyncBaseEEaSIMS0_FvvEEENSt9enable_ifIXsrNS3_9_CallableINSt5decayIT_E4typeESt15__invoke_resultIRSC_JS1_EEEE5valueERS3_E4typeEOSA_+0x58>)
   d7e9e:	9305      	str	r3, [sp, #20]
	    _M_manager = &_My_handler::_M_manager;
   d7ea0:	4b0f      	ldr	r3, [pc, #60]	; (d7ee0 <_ZNSt8functionIFvR21PublishQueueAsyncBaseEEaSIMS0_FvvEEENSt9enable_ifIXsrNS3_9_CallableINSt5decayIT_E4typeESt15__invoke_resultIRSC_JS1_EEEE5valueERS3_E4typeEOSA_+0x5c>)
   d7ea2:	9304      	str	r3, [sp, #16]
      _Tp __tmp = _GLIBCXX_MOVE(__a);
   d7ea4:	ab02      	add	r3, sp, #8
   d7ea6:	e893 0003 	ldmia.w	r3, {r0, r1}
   d7eaa:	466a      	mov	r2, sp
   d7eac:	e882 0003 	stmia.w	r2, {r0, r1}
      __a = _GLIBCXX_MOVE(__b);
   d7eb0:	e894 0003 	ldmia.w	r4, {r0, r1}
   d7eb4:	e883 0003 	stmia.w	r3, {r0, r1}
      __b = _GLIBCXX_MOVE(__tmp);
   d7eb8:	e892 0003 	ldmia.w	r2, {r0, r1}
      _Tp __tmp = _GLIBCXX_MOVE(__a);
   d7ebc:	9a04      	ldr	r2, [sp, #16]
      __b = _GLIBCXX_MOVE(__tmp);
   d7ebe:	e884 0003 	stmia.w	r4, {r0, r1}
      __a = _GLIBCXX_MOVE(__b);
   d7ec2:	68a1      	ldr	r1, [r4, #8]
      __b = _GLIBCXX_MOVE(__tmp);
   d7ec4:	60a2      	str	r2, [r4, #8]
      _Tp __tmp = _GLIBCXX_MOVE(__a);
   d7ec6:	9a05      	ldr	r2, [sp, #20]
      __a = _GLIBCXX_MOVE(__b);
   d7ec8:	9104      	str	r1, [sp, #16]
    class function<_Res(_ArgTypes...)>
   d7eca:	4618      	mov	r0, r3
   d7ecc:	68e1      	ldr	r1, [r4, #12]
      __b = _GLIBCXX_MOVE(__tmp);
   d7ece:	60e2      	str	r2, [r4, #12]
      __a = _GLIBCXX_MOVE(__b);
   d7ed0:	9105      	str	r1, [sp, #20]
   d7ed2:	f7fe faeb 	bl	d64ac <_ZNSt14_Function_baseD1Ev>
	}
   d7ed6:	4620      	mov	r0, r4
   d7ed8:	b006      	add	sp, #24
   d7eda:	bd10      	pop	{r4, pc}
   d7edc:	000d7abd 	.word	0x000d7abd
   d7ee0:	000d7aa3 	.word	0x000d7aa3

000d7ee4 <_ZN21PublishQueueAsyncBase10startStateEv>:
void PublishQueueAsyncBase::startState() {
   d7ee4:	b507      	push	{r0, r1, r2, lr}
	stateHandler = &PublishQueueAsyncBase::checkQueueState;
   d7ee6:	4b05      	ldr	r3, [pc, #20]	; (d7efc <_ZN21PublishQueueAsyncBase10startStateEv+0x18>)
   d7ee8:	9300      	str	r3, [sp, #0]
   d7eea:	4669      	mov	r1, sp
   d7eec:	2300      	movs	r3, #0
   d7eee:	3010      	adds	r0, #16
   d7ef0:	9301      	str	r3, [sp, #4]
   d7ef2:	f7ff ffc7 	bl	d7e84 <_ZNSt8functionIFvR21PublishQueueAsyncBaseEEaSIMS0_FvvEEENSt9enable_ifIXsrNS3_9_CallableINSt5decayIT_E4typeESt15__invoke_resultIRSC_JS1_EEEE5valueERS3_E4typeEOSA_>
}
   d7ef6:	b003      	add	sp, #12
   d7ef8:	f85d fb04 	ldr.w	pc, [sp], #4
   d7efc:	000d7f2d 	.word	0x000d7f2d

000d7f00 <_ZN21PublishQueueAsyncBase14waitRetryStateEv>:
void PublishQueueAsyncBase::waitRetryState() {
   d7f00:	b513      	push	{r0, r1, r4, lr}
   d7f02:	4604      	mov	r4, r0
inline system_tick_t millis(void) { return HAL_Timer_Get_Milli_Seconds(); }
   d7f04:	f000 f932 	bl	d816c <HAL_Timer_Get_Milli_Seconds>
	if (millis() - lastPublish >= failureRetryMs) {
   d7f08:	6a63      	ldr	r3, [r4, #36]	; 0x24
   d7f0a:	1ac0      	subs	r0, r0, r3
   d7f0c:	68e3      	ldr	r3, [r4, #12]
   d7f0e:	4298      	cmp	r0, r3
   d7f10:	d308      	bcc.n	d7f24 <_ZN21PublishQueueAsyncBase14waitRetryStateEv+0x24>
		stateHandler = &PublishQueueAsyncBase::checkQueueState;
   d7f12:	4b05      	ldr	r3, [pc, #20]	; (d7f28 <_ZN21PublishQueueAsyncBase14waitRetryStateEv+0x28>)
   d7f14:	9300      	str	r3, [sp, #0]
   d7f16:	4669      	mov	r1, sp
   d7f18:	2300      	movs	r3, #0
   d7f1a:	f104 0010 	add.w	r0, r4, #16
   d7f1e:	9301      	str	r3, [sp, #4]
   d7f20:	f7ff ffb0 	bl	d7e84 <_ZNSt8functionIFvR21PublishQueueAsyncBaseEEaSIMS0_FvvEEENSt9enable_ifIXsrNS3_9_CallableINSt5decayIT_E4typeESt15__invoke_resultIRSC_JS1_EEEE5valueERS3_E4typeEOSA_>
}
   d7f24:	b002      	add	sp, #8
   d7f26:	bd10      	pop	{r4, pc}
   d7f28:	000d7f2d 	.word	0x000d7f2d

000d7f2c <_ZN21PublishQueueAsyncBase15checkQueueStateEv>:
void PublishQueueAsyncBase::checkQueueState() {
   d7f2c:	e92d 41f0 	stmdb	sp!, {r4, r5, r6, r7, r8, lr}
	if (!pausePublishing && Particle.connected() && millis() - lastPublish >= 1010) {
   d7f30:	f890 302a 	ldrb.w	r3, [r0, #42]	; 0x2a
void PublishQueueAsyncBase::checkQueueState() {
   d7f34:	b086      	sub	sp, #24
   d7f36:	4604      	mov	r4, r0
	if (!pausePublishing && Particle.connected() && millis() - lastPublish >= 1010) {
   d7f38:	2b00      	cmp	r3, #0
   d7f3a:	d164      	bne.n	d8006 <_ZN21PublishQueueAsyncBase15checkQueueStateEv+0xda>
    static bool connected(void) { return spark_cloud_flag_connected(); }
   d7f3c:	f000 fb7a 	bl	d8634 <spark_cloud_flag_connected>
   d7f40:	2800      	cmp	r0, #0
   d7f42:	d060      	beq.n	d8006 <_ZN21PublishQueueAsyncBase15checkQueueStateEv+0xda>
   d7f44:	f000 f912 	bl	d816c <HAL_Timer_Get_Milli_Seconds>
   d7f48:	6a63      	ldr	r3, [r4, #36]	; 0x24
   d7f4a:	1ac0      	subs	r0, r0, r3
   d7f4c:	f240 33f1 	movw	r3, #1009	; 0x3f1
   d7f50:	4298      	cmp	r0, r3
   d7f52:	d958      	bls.n	d8006 <_ZN21PublishQueueAsyncBase15checkQueueStateEv+0xda>
		PublishQueueEventData *data = getOldestEvent();
   d7f54:	6823      	ldr	r3, [r4, #0]
   d7f56:	4620      	mov	r0, r4
   d7f58:	695b      	ldr	r3, [r3, #20]
   d7f5a:	4798      	blx	r3
		if (data) {
   d7f5c:	4605      	mov	r5, r0
   d7f5e:	2800      	cmp	r0, #0
   d7f60:	d051      	beq.n	d8006 <_ZN21PublishQueueAsyncBase15checkQueueStateEv+0xda>
			const char *eventName = &buf[sizeof(PublishQueueEventData)];
   d7f62:	f100 0708 	add.w	r7, r0, #8
			isSending = true;
   d7f66:	2301      	movs	r3, #1
   d7f68:	f884 3028 	strb.w	r3, [r4, #40]	; 0x28
			eventData += strlen(eventData) + 1;
   d7f6c:	4638      	mov	r0, r7
   d7f6e:	f002 ffa4 	bl	daeba <strlen>
			PublishFlags flags(PublishFlag(data->flags));
   d7f72:	f895 8004 	ldrb.w	r8, [r5, #4]
			pubqLogger.info("publishing %s %s ttl=%d flags=%x", eventName, eventData, data->ttl, flags.value());
   d7f76:	f8cd 8004 	str.w	r8, [sp, #4]
			eventData += strlen(eventData) + 1;
   d7f7a:	3001      	adds	r0, #1
			pubqLogger.info("publishing %s %s ttl=%d flags=%x", eventName, eventData, data->ttl, flags.value());
   d7f7c:	682b      	ldr	r3, [r5, #0]
   d7f7e:	492b      	ldr	r1, [pc, #172]	; (d802c <_ZN21PublishQueueAsyncBase15checkQueueStateEv+0x100>)
   d7f80:	9300      	str	r3, [sp, #0]
			eventData += strlen(eventData) + 1;
   d7f82:	183e      	adds	r6, r7, r0
			pubqLogger.info("publishing %s %s ttl=%d flags=%x", eventName, eventData, data->ttl, flags.value());
   d7f84:	4633      	mov	r3, r6
   d7f86:	482a      	ldr	r0, [pc, #168]	; (d8030 <_ZN21PublishQueueAsyncBase15checkQueueStateEv+0x104>)
   d7f88:	463a      	mov	r2, r7
   d7f8a:	f7fc f99e 	bl	d42ca <_ZNK5spark6Logger4infoEPKcz>
			auto request = Particle.publish(eventName, eventData, data->ttl, flags);
   d7f8e:	682b      	ldr	r3, [r5, #0]
        return publish_event(eventName, eventData, ttl, flags1 | flags2);
   d7f90:	f88d 8000 	strb.w	r8, [sp]
   d7f94:	4632      	mov	r2, r6
   d7f96:	4639      	mov	r1, r7
   d7f98:	a802      	add	r0, sp, #8
   d7f9a:	f000 ff27 	bl	d8dec <_ZN10CloudClass13publish_eventEPKcS1_iN8particle5FlagsI15PublishFlagTypehEE>
      {
	memory_order __b = __m & __memory_order_mask;
	__glibcxx_assert(__b != memory_order_release);
	__glibcxx_assert(__b != memory_order_acq_rel);

	return __atomic_load_n(&_M_i, int(__m));
   d7f9e:	9d02      	ldr	r5, [sp, #8]
   d7fa0:	786b      	ldrb	r3, [r5, #1]
			while(!request.isDone()) {
   d7fa2:	b91b      	cbnz	r3, d7fac <_ZN21PublishQueueAsyncBase15checkQueueStateEv+0x80>
				delay(1);
   d7fa4:	2001      	movs	r0, #1
   d7fa6:	f000 fc4d 	bl	d8844 <delay>
			while(!request.isDone()) {
   d7faa:	e7f8      	b.n	d7f9e <_ZN21PublishQueueAsyncBase15checkQueueStateEv+0x72>
        return (application_thread_invoke(callback, data, nullptr) == 0);
    }

    // Returns true if current thread is the application thread
    static bool isApplicationThreadCurrent() {
        return (application_thread_current(nullptr) != 0);
   d7fac:	2000      	movs	r0, #0
   d7fae:	f000 facf 	bl	d8550 <application_thread_current>
        if (ContextT::isApplicationThreadCurrent()) {
   d7fb2:	b120      	cbz	r0, d7fbe <_ZN21PublishQueueAsyncBase15checkQueueStateEv+0x92>
   d7fb4:	786b      	ldrb	r3, [r5, #1]
                if (isDone()) { // We can use relaxed ordering here, as long as the future's result is not examined
   d7fb6:	b913      	cbnz	r3, d7fbe <_ZN21PublishQueueAsyncBase15checkQueueStateEv+0x92>
        spark_process();
   d7fb8:	f000 fb2c 	bl	d8614 <spark_process>
    }
   d7fbc:	e7fa      	b.n	d7fb4 <_ZN21PublishQueueAsyncBase15checkQueueStateEv+0x88>
      _Tp
      load(memory_order __m = memory_order_seq_cst) const noexcept
      {
	alignas(_Tp) unsigned char __buf[sizeof(_Tp)];
	_Tp* __ptr = reinterpret_cast<_Tp*>(__buf);
	__atomic_load(std::__addressof(_M_i), __ptr, int(__m));
   d7fbe:	782b      	ldrb	r3, [r5, #0]
			if (bResult) {
   d7fc0:	2b01      	cmp	r3, #1
   d7fc2:	d123      	bne.n	d800c <_ZN21PublishQueueAsyncBase15checkQueueStateEv+0xe0>
				pubqLogger.info("published successfully");
   d7fc4:	491b      	ldr	r1, [pc, #108]	; (d8034 <_ZN21PublishQueueAsyncBase15checkQueueStateEv+0x108>)
   d7fc6:	481a      	ldr	r0, [pc, #104]	; (d8030 <_ZN21PublishQueueAsyncBase15checkQueueStateEv+0x104>)
   d7fc8:	f7fc f97f 	bl	d42ca <_ZNK5spark6Logger4infoEPKcz>
				discardOldEvent(false);
   d7fcc:	6823      	ldr	r3, [r4, #0]
   d7fce:	2100      	movs	r1, #0
   d7fd0:	699b      	ldr	r3, [r3, #24]
   d7fd2:	4620      	mov	r0, r4
   d7fd4:	4798      	blx	r3
			isSending = false;
   d7fd6:	2300      	movs	r3, #0
   d7fd8:	f884 3028 	strb.w	r3, [r4, #40]	; 0x28
   d7fdc:	f000 f8c6 	bl	d816c <HAL_Timer_Get_Milli_Seconds>
			lastPublish = millis();
   d7fe0:	6260      	str	r0, [r4, #36]	; 0x24
	if (_M_pi != nullptr)
   d7fe2:	9c03      	ldr	r4, [sp, #12]
   d7fe4:	b17c      	cbz	r4, d8006 <_ZN21PublishQueueAsyncBase15checkQueueStateEv+0xda>
      if (--_M_use_count == 0)
   d7fe6:	6863      	ldr	r3, [r4, #4]
   d7fe8:	3b01      	subs	r3, #1
   d7fea:	6063      	str	r3, [r4, #4]
   d7fec:	b95b      	cbnz	r3, d8006 <_ZN21PublishQueueAsyncBase15checkQueueStateEv+0xda>
          _M_dispose();
   d7fee:	6823      	ldr	r3, [r4, #0]
   d7ff0:	4620      	mov	r0, r4
   d7ff2:	689b      	ldr	r3, [r3, #8]
   d7ff4:	4798      	blx	r3
          if (--_M_weak_count == 0)
   d7ff6:	68a3      	ldr	r3, [r4, #8]
   d7ff8:	3b01      	subs	r3, #1
   d7ffa:	60a3      	str	r3, [r4, #8]
   d7ffc:	b91b      	cbnz	r3, d8006 <_ZN21PublishQueueAsyncBase15checkQueueStateEv+0xda>
            _M_destroy();
   d7ffe:	6823      	ldr	r3, [r4, #0]
   d8000:	4620      	mov	r0, r4
   d8002:	68db      	ldr	r3, [r3, #12]
   d8004:	4798      	blx	r3
}
   d8006:	b006      	add	sp, #24
   d8008:	e8bd 81f0 	ldmia.w	sp!, {r4, r5, r6, r7, r8, pc}
				pubqLogger.info("published failed, will retry in %lu ms", failureRetryMs);
   d800c:	68e2      	ldr	r2, [r4, #12]
   d800e:	490a      	ldr	r1, [pc, #40]	; (d8038 <_ZN21PublishQueueAsyncBase15checkQueueStateEv+0x10c>)
   d8010:	4807      	ldr	r0, [pc, #28]	; (d8030 <_ZN21PublishQueueAsyncBase15checkQueueStateEv+0x104>)
   d8012:	f7fc f95a 	bl	d42ca <_ZNK5spark6Logger4infoEPKcz>
				stateHandler = &PublishQueueAsyncBase::waitRetryState;
   d8016:	4b09      	ldr	r3, [pc, #36]	; (d803c <_ZN21PublishQueueAsyncBase15checkQueueStateEv+0x110>)
   d8018:	9304      	str	r3, [sp, #16]
   d801a:	a904      	add	r1, sp, #16
   d801c:	2300      	movs	r3, #0
   d801e:	f104 0010 	add.w	r0, r4, #16
   d8022:	9305      	str	r3, [sp, #20]
   d8024:	f7ff ff2e 	bl	d7e84 <_ZNSt8functionIFvR21PublishQueueAsyncBaseEEaSIMS0_FvvEEENSt9enable_ifIXsrNS3_9_CallableINSt5decayIT_E4typeESt15__invoke_resultIRSC_JS1_EEEE5valueERS3_E4typeEOSA_>
   d8028:	e7d5      	b.n	d7fd6 <_ZN21PublishQueueAsyncBase15checkQueueStateEv+0xaa>
   d802a:	bf00      	nop
   d802c:	000db89b 	.word	0x000db89b
   d8030:	2003e5e0 	.word	0x2003e5e0
   d8034:	000db8bc 	.word	0x000db8bc
   d8038:	000db8d3 	.word	0x000db8d3
   d803c:	000d7f01 	.word	0x000d7f01

000d8040 <_GLOBAL__sub_I_pubqLogger>:
   d8040:	4b01      	ldr	r3, [pc, #4]	; (d8048 <_GLOBAL__sub_I_pubqLogger+0x8>)
   d8042:	4a02      	ldr	r2, [pc, #8]	; (d804c <_GLOBAL__sub_I_pubqLogger+0xc>)
   d8044:	601a      	str	r2, [r3, #0]
}
   d8046:	4770      	bx	lr
   d8048:	2003e5e0 	.word	0x2003e5e0
   d804c:	000db8fa 	.word	0x000db8fa

000d8050 <_GLOBAL__sub_I__ZN23GoogleMapsDeviceLocatorC2Ev>:
   d8050:	4b01      	ldr	r3, [pc, #4]	; (d8058 <_GLOBAL__sub_I__ZN23GoogleMapsDeviceLocatorC2Ev+0x8>)
   d8052:	2201      	movs	r2, #1
   d8054:	701a      	strb	r2, [r3, #0]
	if (numAdded == 0) {
		requestBuf[0] = 0;
	}

	return requestBuf;
}
   d8056:	4770      	bx	lr
   d8058:	2003e5e4 	.word	0x2003e5e4

000d805c <cellular_signal>:
DYNALIB_FN(12, hal_cellular, cellular_sim_ready, bool(void*))
DYNALIB_FN(13, hal_cellular, cellular_cancel, void(bool, bool, void*))
DYNALIB_FN(14, hal_cellular, HAL_NET_SetNetWatchDog, uint32_t(uint32_t))
DYNALIB_FN(15, hal_cellular, inet_gethostbyname, int(const char*, uint16_t, HAL_IPAddress*, network_interface_t, void*))
DYNALIB_FN(16, hal_cellular, inet_ping, int(const HAL_IPAddress*, network_interface_t, uint8_t, void*))
DYNALIB_FN(17, hal_cellular, cellular_signal, cellular_result_t(CellularSignalHal*, cellular_signal_t*))
   d805c:	b508      	push	{r3, lr}
   d805e:	4b02      	ldr	r3, [pc, #8]	; (d8068 <cellular_signal+0xc>)
   d8060:	681b      	ldr	r3, [r3, #0]
   d8062:	6c5b      	ldr	r3, [r3, #68]	; 0x44
   d8064:	9301      	str	r3, [sp, #4]
   d8066:	bd08      	pop	{r3, pc}
   d8068:	00030274 	.word	0x00030274

000d806c <cellular_command>:
DYNALIB_FN(18, hal_cellular, cellular_command, cellular_result_t(_CALLBACKPTR_MDM, void*, system_tick_t, const char*, ...))
   d806c:	b508      	push	{r3, lr}
   d806e:	4b02      	ldr	r3, [pc, #8]	; (d8078 <cellular_command+0xc>)
   d8070:	681b      	ldr	r3, [r3, #0]
   d8072:	6c9b      	ldr	r3, [r3, #72]	; 0x48
   d8074:	9301      	str	r3, [sp, #4]
   d8076:	bd08      	pop	{r3, pc}
   d8078:	00030274 	.word	0x00030274

000d807c <os_thread_create>:

DYNALIB_BEGIN(hal_concurrent)

#if PLATFORM_THREADING
DYNALIB_FN(0, hal_concurrent, __gthread_equal, bool(__gthread_t, __gthread_t))
DYNALIB_FN(1, hal_concurrent, os_thread_create, os_result_t(os_thread_t*, const char*, os_thread_prio_t, os_thread_fn_t, void*, size_t))
   d807c:	b508      	push	{r3, lr}
   d807e:	4b02      	ldr	r3, [pc, #8]	; (d8088 <os_thread_create+0xc>)
   d8080:	681b      	ldr	r3, [r3, #0]
   d8082:	685b      	ldr	r3, [r3, #4]
   d8084:	9301      	str	r3, [sp, #4]
   d8086:	bd08      	pop	{r3, pc}
   d8088:	00030248 	.word	0x00030248

000d808c <os_thread_yield>:
DYNALIB_FN(2, hal_concurrent, os_thread_is_current, bool(os_thread_t))
DYNALIB_FN(3, hal_concurrent, os_thread_yield, os_result_t(void))
   d808c:	b508      	push	{r3, lr}
   d808e:	4b02      	ldr	r3, [pc, #8]	; (d8098 <os_thread_yield+0xc>)
   d8090:	681b      	ldr	r3, [r3, #0]
   d8092:	68db      	ldr	r3, [r3, #12]
   d8094:	9301      	str	r3, [sp, #4]
   d8096:	bd08      	pop	{r3, pc}
   d8098:	00030248 	.word	0x00030248

000d809c <os_thread_scheduling>:
DYNALIB_FN(4, hal_concurrent, os_thread_join, os_result_t(os_thread_t))
DYNALIB_FN(5, hal_concurrent, os_thread_cleanup, os_result_t(os_thread_t))
DYNALIB_FN(6, hal_concurrent, os_thread_delay_until, os_result_t(system_tick_t*, system_tick_t))
DYNALIB_FN(7, hal_concurrent, os_thread_scheduling, void(bool, void*))
   d809c:	b508      	push	{r3, lr}
   d809e:	4b02      	ldr	r3, [pc, #8]	; (d80a8 <os_thread_scheduling+0xc>)
   d80a0:	681b      	ldr	r3, [r3, #0]
   d80a2:	69db      	ldr	r3, [r3, #28]
   d80a4:	9301      	str	r3, [sp, #4]
   d80a6:	bd08      	pop	{r3, pc}
   d80a8:	00030248 	.word	0x00030248

000d80ac <os_mutex_create>:
DYNALIB_FN(8, hal_concurrent, os_timer_create, int(os_timer_t*, unsigned, void(*)(os_timer_t), void*, bool, void*))
DYNALIB_FN(9, hal_concurrent, os_timer_destroy, int(os_timer_t, void*))
DYNALIB_FN(10, hal_concurrent, os_timer_get_id, int(os_timer_t, void**))
DYNALIB_FN(11, hal_concurrent, os_timer_change, int(os_timer_t, os_timer_change_t, bool, unsigned, unsigned, void*))

DYNALIB_FN(12, hal_concurrent, os_mutex_create, int(os_mutex_t*))
   d80ac:	b508      	push	{r3, lr}
   d80ae:	4b02      	ldr	r3, [pc, #8]	; (d80b8 <os_mutex_create+0xc>)
   d80b0:	681b      	ldr	r3, [r3, #0]
   d80b2:	6b1b      	ldr	r3, [r3, #48]	; 0x30
   d80b4:	9301      	str	r3, [sp, #4]
   d80b6:	bd08      	pop	{r3, pc}
   d80b8:	00030248 	.word	0x00030248

000d80bc <os_mutex_destroy>:
DYNALIB_FN(13, hal_concurrent, os_mutex_destroy, int(os_mutex_t))
   d80bc:	b508      	push	{r3, lr}
   d80be:	4b02      	ldr	r3, [pc, #8]	; (d80c8 <os_mutex_destroy+0xc>)
   d80c0:	681b      	ldr	r3, [r3, #0]
   d80c2:	6b5b      	ldr	r3, [r3, #52]	; 0x34
   d80c4:	9301      	str	r3, [sp, #4]
   d80c6:	bd08      	pop	{r3, pc}
   d80c8:	00030248 	.word	0x00030248

000d80cc <os_mutex_lock>:
DYNALIB_FN(14, hal_concurrent, os_mutex_lock, int(os_mutex_t))
   d80cc:	b508      	push	{r3, lr}
   d80ce:	4b02      	ldr	r3, [pc, #8]	; (d80d8 <os_mutex_lock+0xc>)
   d80d0:	681b      	ldr	r3, [r3, #0]
   d80d2:	6b9b      	ldr	r3, [r3, #56]	; 0x38
   d80d4:	9301      	str	r3, [sp, #4]
   d80d6:	bd08      	pop	{r3, pc}
   d80d8:	00030248 	.word	0x00030248

000d80dc <os_mutex_unlock>:
DYNALIB_FN(15, hal_concurrent, os_mutex_trylock, int(os_mutex_t))
DYNALIB_FN(16, hal_concurrent, os_mutex_unlock, int(os_mutex_t))
   d80dc:	b508      	push	{r3, lr}
   d80de:	4b02      	ldr	r3, [pc, #8]	; (d80e8 <os_mutex_unlock+0xc>)
   d80e0:	681b      	ldr	r3, [r3, #0]
   d80e2:	6c1b      	ldr	r3, [r3, #64]	; 0x40
   d80e4:	9301      	str	r3, [sp, #4]
   d80e6:	bd08      	pop	{r3, pc}
   d80e8:	00030248 	.word	0x00030248

000d80ec <os_mutex_recursive_create>:

DYNALIB_FN(17, hal_concurrent, os_mutex_recursive_create, int(os_mutex_recursive_t*))
   d80ec:	b508      	push	{r3, lr}
   d80ee:	4b02      	ldr	r3, [pc, #8]	; (d80f8 <os_mutex_recursive_create+0xc>)
   d80f0:	681b      	ldr	r3, [r3, #0]
   d80f2:	6c5b      	ldr	r3, [r3, #68]	; 0x44
   d80f4:	9301      	str	r3, [sp, #4]
   d80f6:	bd08      	pop	{r3, pc}
   d80f8:	00030248 	.word	0x00030248

000d80fc <os_mutex_recursive_destroy>:
DYNALIB_FN(18, hal_concurrent, os_mutex_recursive_destroy, int(os_mutex_recursive_t))
   d80fc:	b508      	push	{r3, lr}
   d80fe:	4b02      	ldr	r3, [pc, #8]	; (d8108 <os_mutex_recursive_destroy+0xc>)
   d8100:	681b      	ldr	r3, [r3, #0]
   d8102:	6c9b      	ldr	r3, [r3, #72]	; 0x48
   d8104:	9301      	str	r3, [sp, #4]
   d8106:	bd08      	pop	{r3, pc}
   d8108:	00030248 	.word	0x00030248

000d810c <os_thread_exit>:

DYNALIB_FN(23, hal_concurrent, os_queue_create, int(os_queue_t*, size_t, size_t, void*))
DYNALIB_FN(24, hal_concurrent, os_queue_destroy, int(os_queue_t, void*))
DYNALIB_FN(25, hal_concurrent, os_queue_put, int(os_queue_t, const void* item, system_tick_t, void*))
DYNALIB_FN(26, hal_concurrent, os_queue_take, int(os_queue_t, void* item, system_tick_t, void*))
DYNALIB_FN(27, hal_concurrent, os_thread_exit, os_result_t(os_thread_t))
   d810c:	b508      	push	{r3, lr}
   d810e:	4b02      	ldr	r3, [pc, #8]	; (d8118 <os_thread_exit+0xc>)
   d8110:	681b      	ldr	r3, [r3, #0]
   d8112:	6edb      	ldr	r3, [r3, #108]	; 0x6c
   d8114:	9301      	str	r3, [sp, #4]
   d8116:	bd08      	pop	{r3, pc}
   d8118:	00030248 	.word	0x00030248

000d811c <HAL_Feature_Set>:
DYNALIB_FN(20, hal_core, HAL_Core_System_Reset_FlagSet, bool(RESET_TypeDef))
DYNALIB_FN(21, hal_core, HAL_Core_Runtime_Info, uint32_t(runtime_info_t*, void*))
DYNALIB_FN(22, hal_core, HAL_Set_System_Config, int(hal_system_config_t, const void*, unsigned))
DYNALIB_FN(23, hal_core, HAL_Core_Enter_Safe_Mode, void(void*))
DYNALIB_FN(24, hal_core, HAL_Feature_Get, bool(HAL_Feature))
DYNALIB_FN(25, hal_core, HAL_Feature_Set, int(HAL_Feature, bool))
   d811c:	b508      	push	{r3, lr}
   d811e:	4b02      	ldr	r3, [pc, #8]	; (d8128 <HAL_Feature_Set+0xc>)
   d8120:	681b      	ldr	r3, [r3, #0]
   d8122:	6e5b      	ldr	r3, [r3, #100]	; 0x64
   d8124:	9301      	str	r3, [sp, #4]
   d8126:	bd08      	pop	{r3, pc}
   d8128:	00030234 	.word	0x00030234

000d812c <HAL_Core_Get_Last_Reset_Info>:
DYNALIB_FN(26, hal_core, HAL_Core_System_Reset_Ex, void(int, uint32_t, void*))
DYNALIB_FN(27, hal_core, HAL_Core_Get_Last_Reset_Info, int(int*, uint32_t*, void*))
   d812c:	b508      	push	{r3, lr}
   d812e:	4b02      	ldr	r3, [pc, #8]	; (d8138 <HAL_Core_Get_Last_Reset_Info+0xc>)
   d8130:	681b      	ldr	r3, [r3, #0]
   d8132:	6edb      	ldr	r3, [r3, #108]	; 0x6c
   d8134:	9301      	str	r3, [sp, #4]
   d8136:	bd08      	pop	{r3, pc}
   d8138:	00030234 	.word	0x00030234

000d813c <HAL_RNG_GetRandomNumber>:

DYNALIB_BEGIN(hal)

#if PLATFORM_ID > 3
DYNALIB_FN(0, hal, HAL_RNG_Configuration, void(void))
DYNALIB_FN(1, hal, HAL_RNG_GetRandomNumber, uint32_t(void))
   d813c:	b508      	push	{r3, lr}
   d813e:	4b02      	ldr	r3, [pc, #8]	; (d8148 <HAL_RNG_GetRandomNumber+0xc>)
   d8140:	681b      	ldr	r3, [r3, #0]
   d8142:	685b      	ldr	r3, [r3, #4]
   d8144:	9301      	str	r3, [sp, #4]
   d8146:	bd08      	pop	{r3, pc}
   d8148:	00030218 	.word	0x00030218

000d814c <HAL_Delay_Milliseconds>:
#define BASE_IDX 2 // Base index for all subsequent functions
#else
#define BASE_IDX 0
#endif

DYNALIB_FN(BASE_IDX + 0, hal, HAL_Delay_Milliseconds, void(uint32_t))
   d814c:	b508      	push	{r3, lr}
   d814e:	4b02      	ldr	r3, [pc, #8]	; (d8158 <HAL_Delay_Milliseconds+0xc>)
   d8150:	681b      	ldr	r3, [r3, #0]
   d8152:	689b      	ldr	r3, [r3, #8]
   d8154:	9301      	str	r3, [sp, #4]
   d8156:	bd08      	pop	{r3, pc}
   d8158:	00030218 	.word	0x00030218

000d815c <HAL_Delay_Microseconds>:
DYNALIB_FN(BASE_IDX + 1, hal, HAL_Delay_Microseconds, void(uint32_t))
   d815c:	b508      	push	{r3, lr}
   d815e:	4b02      	ldr	r3, [pc, #8]	; (d8168 <HAL_Delay_Microseconds+0xc>)
   d8160:	681b      	ldr	r3, [r3, #0]
   d8162:	68db      	ldr	r3, [r3, #12]
   d8164:	9301      	str	r3, [sp, #4]
   d8166:	bd08      	pop	{r3, pc}
   d8168:	00030218 	.word	0x00030218

000d816c <HAL_Timer_Get_Milli_Seconds>:
DYNALIB_FN(BASE_IDX + 2, hal, HAL_Timer_Get_Micro_Seconds, system_tick_t(void))
DYNALIB_FN(BASE_IDX + 3, hal, HAL_Timer_Get_Milli_Seconds, system_tick_t(void))
   d816c:	b508      	push	{r3, lr}
   d816e:	4b02      	ldr	r3, [pc, #8]	; (d8178 <HAL_Timer_Get_Milli_Seconds+0xc>)
   d8170:	681b      	ldr	r3, [r3, #0]
   d8172:	695b      	ldr	r3, [r3, #20]
   d8174:	9301      	str	r3, [sp, #4]
   d8176:	bd08      	pop	{r3, pc}
   d8178:	00030218 	.word	0x00030218

000d817c <HAL_disable_irq>:
DYNALIB_FN(BASE_IDX + 8, hal, HAL_EEPROM_Init, void(void))
DYNALIB_FN(BASE_IDX + 9, hal, HAL_EEPROM_Read, uint8_t(uint32_t))
DYNALIB_FN(BASE_IDX + 10, hal, HAL_EEPROM_Write, void(uint32_t, uint8_t))
DYNALIB_FN(BASE_IDX + 11, hal, HAL_EEPROM_Length, size_t(void))

DYNALIB_FN(BASE_IDX + 12, hal, HAL_disable_irq, int(void))
   d817c:	b508      	push	{r3, lr}
   d817e:	4b02      	ldr	r3, [pc, #8]	; (d8188 <HAL_disable_irq+0xc>)
   d8180:	681b      	ldr	r3, [r3, #0]
   d8182:	6b9b      	ldr	r3, [r3, #56]	; 0x38
   d8184:	9301      	str	r3, [sp, #4]
   d8186:	bd08      	pop	{r3, pc}
   d8188:	00030218 	.word	0x00030218

000d818c <HAL_enable_irq>:
DYNALIB_FN(BASE_IDX + 13, hal, HAL_enable_irq, void(int))
   d818c:	b508      	push	{r3, lr}
   d818e:	4b02      	ldr	r3, [pc, #8]	; (d8198 <HAL_enable_irq+0xc>)
   d8190:	681b      	ldr	r3, [r3, #0]
   d8192:	6bdb      	ldr	r3, [r3, #60]	; 0x3c
   d8194:	9301      	str	r3, [sp, #4]
   d8196:	bd08      	pop	{r3, pc}
   d8198:	00030218 	.word	0x00030218

000d819c <hal_rtc_time_is_valid>:
DYNALIB_FN(BASE_IDX + 15, hal, HAL_EEPROM_Get, void(uint32_t, void *, size_t))
DYNALIB_FN(BASE_IDX + 16, hal, HAL_EEPROM_Put, void(uint32_t, const void *, size_t))
DYNALIB_FN(BASE_IDX + 17, hal, HAL_EEPROM_Clear, void(void))
DYNALIB_FN(BASE_IDX + 18, hal, HAL_EEPROM_Has_Pending_Erase, bool(void))
DYNALIB_FN(BASE_IDX + 19, hal, HAL_EEPROM_Perform_Pending_Erase, void(void))
DYNALIB_FN(BASE_IDX + 20, hal, hal_rtc_time_is_valid, bool(void*))
   d819c:	b508      	push	{r3, lr}
   d819e:	4b02      	ldr	r3, [pc, #8]	; (d81a8 <hal_rtc_time_is_valid+0xc>)
   d81a0:	681b      	ldr	r3, [r3, #0]
   d81a2:	6d9b      	ldr	r3, [r3, #88]	; 0x58
   d81a4:	9301      	str	r3, [sp, #4]
   d81a6:	bd08      	pop	{r3, pc}
   d81a8:	00030218 	.word	0x00030218

000d81ac <hal_timer_millis>:

DYNALIB_FN(BASE_IDX + 21, hal, hal_timer_millis, uint64_t(void*))
   d81ac:	b508      	push	{r3, lr}
   d81ae:	4b02      	ldr	r3, [pc, #8]	; (d81b8 <hal_timer_millis+0xc>)
   d81b0:	681b      	ldr	r3, [r3, #0]
   d81b2:	6ddb      	ldr	r3, [r3, #92]	; 0x5c
   d81b4:	9301      	str	r3, [sp, #4]
   d81b6:	bd08      	pop	{r3, pc}
   d81b8:	00030218 	.word	0x00030218

000d81bc <hal_rtc_get_time>:
DYNALIB_FN(BASE_IDX + 22, hal, hal_timer_micros, uint64_t(void*))

DYNALIB_FN(BASE_IDX + 23, hal, hal_rtc_get_time, int(struct timeval*, void*))
   d81bc:	b508      	push	{r3, lr}
   d81be:	4b02      	ldr	r3, [pc, #8]	; (d81c8 <hal_rtc_get_time+0xc>)
   d81c0:	681b      	ldr	r3, [r3, #0]
   d81c2:	6e5b      	ldr	r3, [r3, #100]	; 0x64
   d81c4:	9301      	str	r3, [sp, #4]
   d81c6:	bd08      	pop	{r3, pc}
   d81c8:	00030218 	.word	0x00030218

000d81cc <hal_rtc_set_time>:
DYNALIB_FN(BASE_IDX + 24, hal, hal_rtc_set_time, int(const struct timeval*, void*))
   d81cc:	b508      	push	{r3, lr}
   d81ce:	4b02      	ldr	r3, [pc, #8]	; (d81d8 <hal_rtc_set_time+0xc>)
   d81d0:	681b      	ldr	r3, [r3, #0]
   d81d2:	6e9b      	ldr	r3, [r3, #104]	; 0x68
   d81d4:	9301      	str	r3, [sp, #4]
   d81d6:	bd08      	pop	{r3, pc}
   d81d8:	00030218 	.word	0x00030218

000d81dc <HAL_Pin_Map>:
// New HAL functions must be added to the end of this list.
// GNINRAW

DYNALIB_BEGIN(hal_gpio)

DYNALIB_FN(0, hal_gpio, HAL_Pin_Map, Hal_Pin_Info*(void))
   d81dc:	b508      	push	{r3, lr}
   d81de:	4b02      	ldr	r3, [pc, #8]	; (d81e8 <HAL_Pin_Map+0xc>)
   d81e0:	681b      	ldr	r3, [r3, #0]
   d81e2:	681b      	ldr	r3, [r3, #0]
   d81e4:	9301      	str	r3, [sp, #4]
   d81e6:	bd08      	pop	{r3, pc}
   d81e8:	0003022c 	.word	0x0003022c

000d81ec <HAL_Pin_Mode>:
DYNALIB_FN(1, hal_gpio, HAL_Validate_Pin_Function, PinFunction(pin_t, PinFunction))
DYNALIB_FN(2, hal_gpio, HAL_Pin_Mode, void(pin_t, PinMode))
   d81ec:	b508      	push	{r3, lr}
   d81ee:	4b02      	ldr	r3, [pc, #8]	; (d81f8 <HAL_Pin_Mode+0xc>)
   d81f0:	681b      	ldr	r3, [r3, #0]
   d81f2:	689b      	ldr	r3, [r3, #8]
   d81f4:	9301      	str	r3, [sp, #4]
   d81f6:	bd08      	pop	{r3, pc}
   d81f8:	0003022c 	.word	0x0003022c

000d81fc <HAL_Get_Pin_Mode>:
DYNALIB_FN(3, hal_gpio, HAL_Get_Pin_Mode, PinMode(pin_t))
   d81fc:	b508      	push	{r3, lr}
   d81fe:	4b02      	ldr	r3, [pc, #8]	; (d8208 <HAL_Get_Pin_Mode+0xc>)
   d8200:	681b      	ldr	r3, [r3, #0]
   d8202:	68db      	ldr	r3, [r3, #12]
   d8204:	9301      	str	r3, [sp, #4]
   d8206:	bd08      	pop	{r3, pc}
   d8208:	0003022c 	.word	0x0003022c

000d820c <HAL_GPIO_Write>:
DYNALIB_FN(4, hal_gpio, HAL_GPIO_Write, void(pin_t, uint8_t))
   d820c:	b508      	push	{r3, lr}
   d820e:	4b02      	ldr	r3, [pc, #8]	; (d8218 <HAL_GPIO_Write+0xc>)
   d8210:	681b      	ldr	r3, [r3, #0]
   d8212:	691b      	ldr	r3, [r3, #16]
   d8214:	9301      	str	r3, [sp, #4]
   d8216:	bd08      	pop	{r3, pc}
   d8218:	0003022c 	.word	0x0003022c

000d821c <HAL_GPIO_Read>:
DYNALIB_FN(5, hal_gpio, HAL_GPIO_Read, int32_t(pin_t))
   d821c:	b508      	push	{r3, lr}
   d821e:	4b02      	ldr	r3, [pc, #8]	; (d8228 <HAL_GPIO_Read+0xc>)
   d8220:	681b      	ldr	r3, [r3, #0]
   d8222:	695b      	ldr	r3, [r3, #20]
   d8224:	9301      	str	r3, [sp, #4]
   d8226:	bd08      	pop	{r3, pc}
   d8228:	0003022c 	.word	0x0003022c

000d822c <HAL_Interrupts_Enable_All>:
DYNALIB_FN(6, hal_gpio, HAL_Interrupts_Attach, int(uint16_t, HAL_InterruptHandler, void*, InterruptMode, HAL_InterruptExtraConfiguration*))
DYNALIB_FN(7, hal_gpio, HAL_Interrupts_Detach, int(uint16_t))
DYNALIB_FN(8, hal_gpio, HAL_Interrupts_Enable_All, void(void))
   d822c:	b508      	push	{r3, lr}
   d822e:	4b02      	ldr	r3, [pc, #8]	; (d8238 <HAL_Interrupts_Enable_All+0xc>)
   d8230:	681b      	ldr	r3, [r3, #0]
   d8232:	6a1b      	ldr	r3, [r3, #32]
   d8234:	9301      	str	r3, [sp, #4]
   d8236:	bd08      	pop	{r3, pc}
   d8238:	0003022c 	.word	0x0003022c

000d823c <HAL_Interrupts_Disable_All>:
DYNALIB_FN(9, hal_gpio, HAL_Interrupts_Disable_All, void(void))
   d823c:	b508      	push	{r3, lr}
   d823e:	4b02      	ldr	r3, [pc, #8]	; (d8248 <HAL_Interrupts_Disable_All+0xc>)
   d8240:	681b      	ldr	r3, [r3, #0]
   d8242:	6a5b      	ldr	r3, [r3, #36]	; 0x24
   d8244:	9301      	str	r3, [sp, #4]
   d8246:	bd08      	pop	{r3, pc}
   d8248:	0003022c 	.word	0x0003022c

000d824c <hal_i2c_begin>:
#endif

DYNALIB_FN(BASE_IDX + 0, hal_i2c, hal_i2c_set_speed, void(hal_i2c_interface_t, uint32_t, void*))
DYNALIB_FN(BASE_IDX + 1, hal_i2c, hal_i2c_enable_dma_mode, void(hal_i2c_interface_t, bool, void*))
DYNALIB_FN(BASE_IDX + 2, hal_i2c, hal_i2c_stretch_clock, void(hal_i2c_interface_t, bool, void*))
DYNALIB_FN(BASE_IDX + 3, hal_i2c, hal_i2c_begin, void(hal_i2c_interface_t, hal_i2c_mode_t, uint8_t, void*))
   d824c:	b508      	push	{r3, lr}
   d824e:	4b02      	ldr	r3, [pc, #8]	; (d8258 <hal_i2c_begin+0xc>)
   d8250:	681b      	ldr	r3, [r3, #0]
   d8252:	68db      	ldr	r3, [r3, #12]
   d8254:	9301      	str	r3, [sp, #4]
   d8256:	bd08      	pop	{r3, pc}
   d8258:	00030228 	.word	0x00030228

000d825c <hal_i2c_begin_transmission>:
DYNALIB_FN(BASE_IDX + 4, hal_i2c, hal_i2c_end, void(hal_i2c_interface_t, void*))
DYNALIB_FN(BASE_IDX + 5, hal_i2c, hal_i2c_request, uint32_t(hal_i2c_interface_t, uint8_t, uint8_t, uint8_t, void*))
DYNALIB_FN(BASE_IDX + 6, hal_i2c, hal_i2c_begin_transmission, void(hal_i2c_interface_t, uint8_t, const hal_i2c_transmission_config_t*))
   d825c:	b508      	push	{r3, lr}
   d825e:	4b02      	ldr	r3, [pc, #8]	; (d8268 <hal_i2c_begin_transmission+0xc>)
   d8260:	681b      	ldr	r3, [r3, #0]
   d8262:	699b      	ldr	r3, [r3, #24]
   d8264:	9301      	str	r3, [sp, #4]
   d8266:	bd08      	pop	{r3, pc}
   d8268:	00030228 	.word	0x00030228

000d826c <hal_i2c_end_transmission>:
DYNALIB_FN(BASE_IDX + 7, hal_i2c, hal_i2c_end_transmission, uint8_t(hal_i2c_interface_t, uint8_t, void*))
   d826c:	b508      	push	{r3, lr}
   d826e:	4b02      	ldr	r3, [pc, #8]	; (d8278 <hal_i2c_end_transmission+0xc>)
   d8270:	681b      	ldr	r3, [r3, #0]
   d8272:	69db      	ldr	r3, [r3, #28]
   d8274:	9301      	str	r3, [sp, #4]
   d8276:	bd08      	pop	{r3, pc}
   d8278:	00030228 	.word	0x00030228

000d827c <hal_i2c_write>:
DYNALIB_FN(BASE_IDX + 8, hal_i2c, hal_i2c_write, uint32_t(hal_i2c_interface_t, uint8_t, void*))
   d827c:	b508      	push	{r3, lr}
   d827e:	4b02      	ldr	r3, [pc, #8]	; (d8288 <hal_i2c_write+0xc>)
   d8280:	681b      	ldr	r3, [r3, #0]
   d8282:	6a1b      	ldr	r3, [r3, #32]
   d8284:	9301      	str	r3, [sp, #4]
   d8286:	bd08      	pop	{r3, pc}
   d8288:	00030228 	.word	0x00030228

000d828c <hal_i2c_available>:
DYNALIB_FN(BASE_IDX + 9, hal_i2c, hal_i2c_available, int32_t(hal_i2c_interface_t, void*))
   d828c:	b508      	push	{r3, lr}
   d828e:	4b02      	ldr	r3, [pc, #8]	; (d8298 <hal_i2c_available+0xc>)
   d8290:	681b      	ldr	r3, [r3, #0]
   d8292:	6a5b      	ldr	r3, [r3, #36]	; 0x24
   d8294:	9301      	str	r3, [sp, #4]
   d8296:	bd08      	pop	{r3, pc}
   d8298:	00030228 	.word	0x00030228

000d829c <hal_i2c_read>:
DYNALIB_FN(BASE_IDX + 10, hal_i2c, hal_i2c_read, int32_t(hal_i2c_interface_t, void*))
   d829c:	b508      	push	{r3, lr}
   d829e:	4b02      	ldr	r3, [pc, #8]	; (d82a8 <hal_i2c_read+0xc>)
   d82a0:	681b      	ldr	r3, [r3, #0]
   d82a2:	6a9b      	ldr	r3, [r3, #40]	; 0x28
   d82a4:	9301      	str	r3, [sp, #4]
   d82a6:	bd08      	pop	{r3, pc}
   d82a8:	00030228 	.word	0x00030228

000d82ac <hal_i2c_peek>:
DYNALIB_FN(BASE_IDX + 11, hal_i2c, hal_i2c_peek, int32_t(hal_i2c_interface_t, void*))
   d82ac:	b508      	push	{r3, lr}
   d82ae:	4b02      	ldr	r3, [pc, #8]	; (d82b8 <hal_i2c_peek+0xc>)
   d82b0:	681b      	ldr	r3, [r3, #0]
   d82b2:	6adb      	ldr	r3, [r3, #44]	; 0x2c
   d82b4:	9301      	str	r3, [sp, #4]
   d82b6:	bd08      	pop	{r3, pc}
   d82b8:	00030228 	.word	0x00030228

000d82bc <hal_i2c_flush>:
DYNALIB_FN(BASE_IDX + 12, hal_i2c, hal_i2c_flush, void(hal_i2c_interface_t, void*))
   d82bc:	b508      	push	{r3, lr}
   d82be:	4b02      	ldr	r3, [pc, #8]	; (d82c8 <hal_i2c_flush+0xc>)
   d82c0:	681b      	ldr	r3, [r3, #0]
   d82c2:	6b1b      	ldr	r3, [r3, #48]	; 0x30
   d82c4:	9301      	str	r3, [sp, #4]
   d82c6:	bd08      	pop	{r3, pc}
   d82c8:	00030228 	.word	0x00030228

000d82cc <hal_i2c_is_enabled>:
DYNALIB_FN(BASE_IDX + 13, hal_i2c, hal_i2c_is_enabled, bool(hal_i2c_interface_t, void*))
   d82cc:	b508      	push	{r3, lr}
   d82ce:	4b02      	ldr	r3, [pc, #8]	; (d82d8 <hal_i2c_is_enabled+0xc>)
   d82d0:	681b      	ldr	r3, [r3, #0]
   d82d2:	6b5b      	ldr	r3, [r3, #52]	; 0x34
   d82d4:	9301      	str	r3, [sp, #4]
   d82d6:	bd08      	pop	{r3, pc}
   d82d8:	00030228 	.word	0x00030228

000d82dc <hal_i2c_init>:
DYNALIB_FN(BASE_IDX + 14, hal_i2c, hal_i2c_set_callback_on_received, void(hal_i2c_interface_t, void(*)(int), void*))
DYNALIB_FN(BASE_IDX + 15, hal_i2c, hal_i2c_set_callback_on_requested, void(hal_i2c_interface_t, void(*)(void), void*))
DYNALIB_FN(BASE_IDX + 16, hal_i2c, hal_i2c_init, int(hal_i2c_interface_t, const hal_i2c_config_t*))
   d82dc:	b508      	push	{r3, lr}
   d82de:	4b02      	ldr	r3, [pc, #8]	; (d82e8 <hal_i2c_init+0xc>)
   d82e0:	681b      	ldr	r3, [r3, #0]
   d82e2:	6c1b      	ldr	r3, [r3, #64]	; 0x40
   d82e4:	9301      	str	r3, [sp, #4]
   d82e6:	bd08      	pop	{r3, pc}
   d82e8:	00030228 	.word	0x00030228

000d82ec <hal_i2c_lock>:
DYNALIB_FN(BASE_IDX + 17, hal_i2c, hal_i2c_reset, uint8_t(hal_i2c_interface_t, uint32_t, void*))
DYNALIB_FN(BASE_IDX + 18, hal_i2c, hal_i2c_lock, int32_t(hal_i2c_interface_t, void*))
   d82ec:	b508      	push	{r3, lr}
   d82ee:	4b02      	ldr	r3, [pc, #8]	; (d82f8 <hal_i2c_lock+0xc>)
   d82f0:	681b      	ldr	r3, [r3, #0]
   d82f2:	6c9b      	ldr	r3, [r3, #72]	; 0x48
   d82f4:	9301      	str	r3, [sp, #4]
   d82f6:	bd08      	pop	{r3, pc}
   d82f8:	00030228 	.word	0x00030228

000d82fc <hal_i2c_unlock>:
DYNALIB_FN(BASE_IDX + 19, hal_i2c, hal_i2c_unlock, int32_t(hal_i2c_interface_t, void*))
   d82fc:	b508      	push	{r3, lr}
   d82fe:	4b02      	ldr	r3, [pc, #8]	; (d8308 <hal_i2c_unlock+0xc>)
   d8300:	681b      	ldr	r3, [r3, #0]
   d8302:	6cdb      	ldr	r3, [r3, #76]	; 0x4c
   d8304:	9301      	str	r3, [sp, #4]
   d8306:	bd08      	pop	{r3, pc}
   d8308:	00030228 	.word	0x00030228

000d830c <hal_i2c_request_ex>:
DYNALIB_FN(BASE_IDX + 20, hal_i2c, hal_i2c_request_ex, int32_t(hal_i2c_interface_t, const hal_i2c_transmission_config_t*, void*))
   d830c:	b508      	push	{r3, lr}
   d830e:	4b02      	ldr	r3, [pc, #8]	; (d8318 <hal_i2c_request_ex+0xc>)
   d8310:	681b      	ldr	r3, [r3, #0]
   d8312:	6d1b      	ldr	r3, [r3, #80]	; 0x50
   d8314:	9301      	str	r3, [sp, #4]
   d8316:	bd08      	pop	{r3, pc}
   d8318:	00030228 	.word	0x00030228

000d831c <inet_inet_ntop>:
DYNALIB_FN(0, hal_inet, inet_inet_addr, in_addr_t(const char*))
DYNALIB_FN(1, hal_inet, inet_inet_aton, int(const char*, struct in_addr*))
DYNALIB_FN(2, hal_inet, inet_inet_network, in_addr_t(const char*))
DYNALIB_FN(3, hal_inet, inet_inet_ntoa, char*(struct in_addr))
DYNALIB_FN(4, hal_inet, inet_inet_ntoa_r, char*(struct in_addr, char*, socklen_t))
DYNALIB_FN(5, hal_inet, inet_inet_ntop, const char*(int, const void*, char*, socklen_t))
   d831c:	b508      	push	{r3, lr}
   d831e:	4b02      	ldr	r3, [pc, #8]	; (d8328 <inet_inet_ntop+0xc>)
   d8320:	681b      	ldr	r3, [r3, #0]
   d8322:	695b      	ldr	r3, [r3, #20]
   d8324:	9301      	str	r3, [sp, #4]
   d8326:	bd08      	pop	{r3, pc}
   d8328:	00030264 	.word	0x00030264

000d832c <netdb_freeaddrinfo>:

DYNALIB_BEGIN(hal_netdb)

DYNALIB_FN(0, hal_netdb, netdb_gethostbyname, struct hostent*(const char*))
DYNALIB_FN(1, hal_netdb, netdb_gethostbyname_r, int(const char*, struct hostent*, char*, size_t, struct hostent**, int*))
DYNALIB_FN(2, hal_netdb, netdb_freeaddrinfo, void(struct addrinfo*))
   d832c:	b508      	push	{r3, lr}
   d832e:	4b02      	ldr	r3, [pc, #8]	; (d8338 <netdb_freeaddrinfo+0xc>)
   d8330:	681b      	ldr	r3, [r3, #0]
   d8332:	689b      	ldr	r3, [r3, #8]
   d8334:	9301      	str	r3, [sp, #4]
   d8336:	bd08      	pop	{r3, pc}
   d8338:	00030268 	.word	0x00030268

000d833c <netdb_getaddrinfo>:
DYNALIB_FN(3, hal_netdb, netdb_getaddrinfo, int(const char*, const char*, const struct addrinfo*, struct addrinfo**))
   d833c:	b508      	push	{r3, lr}
   d833e:	4b02      	ldr	r3, [pc, #8]	; (d8348 <netdb_getaddrinfo+0xc>)
   d8340:	681b      	ldr	r3, [r3, #0]
   d8342:	68db      	ldr	r3, [r3, #12]
   d8344:	9301      	str	r3, [sp, #4]
   d8346:	bd08      	pop	{r3, pc}
   d8348:	00030268 	.word	0x00030268

000d834c <hal_spi_begin>:
// New HAL functions must be added to the end of this list.
// GNINRAW

DYNALIB_BEGIN(hal_spi)

DYNALIB_FN(0, hal_spi, hal_spi_begin, void(hal_spi_interface_t, uint16_t))
   d834c:	b508      	push	{r3, lr}
   d834e:	4b02      	ldr	r3, [pc, #8]	; (d8358 <hal_spi_begin+0xc>)
   d8350:	681b      	ldr	r3, [r3, #0]
   d8352:	681b      	ldr	r3, [r3, #0]
   d8354:	9301      	str	r3, [sp, #4]
   d8356:	bd08      	pop	{r3, pc}
   d8358:	00030230 	.word	0x00030230

000d835c <hal_spi_transfer>:
DYNALIB_FN(1, hal_spi, hal_spi_end, void(hal_spi_interface_t))
DYNALIB_FN(2, hal_spi, hal_spi_set_bit_order, void(hal_spi_interface_t, uint8_t))
DYNALIB_FN(3, hal_spi, hal_spi_set_data_mode, void(hal_spi_interface_t, uint8_t))
DYNALIB_FN(4, hal_spi, hal_spi_set_clock_divider, void(hal_spi_interface_t, uint8_t))
DYNALIB_FN(5, hal_spi, hal_spi_transfer, uint16_t(hal_spi_interface_t, uint16_t))
   d835c:	b508      	push	{r3, lr}
   d835e:	4b02      	ldr	r3, [pc, #8]	; (d8368 <hal_spi_transfer+0xc>)
   d8360:	681b      	ldr	r3, [r3, #0]
   d8362:	695b      	ldr	r3, [r3, #20]
   d8364:	9301      	str	r3, [sp, #4]
   d8366:	bd08      	pop	{r3, pc}
   d8368:	00030230 	.word	0x00030230

000d836c <hal_spi_init>:
DYNALIB_FN(6, hal_spi, hal_spi_is_enabled_deprecated, bool(void))
DYNALIB_FN(7, hal_spi, hal_spi_init, void(hal_spi_interface_t))
   d836c:	b508      	push	{r3, lr}
   d836e:	4b02      	ldr	r3, [pc, #8]	; (d8378 <hal_spi_init+0xc>)
   d8370:	681b      	ldr	r3, [r3, #0]
   d8372:	69db      	ldr	r3, [r3, #28]
   d8374:	9301      	str	r3, [sp, #4]
   d8376:	bd08      	pop	{r3, pc}
   d8378:	00030230 	.word	0x00030230

000d837c <hal_spi_is_enabled>:
DYNALIB_FN(8, hal_spi, hal_spi_is_enabled, bool(hal_spi_interface_t))
   d837c:	b508      	push	{r3, lr}
   d837e:	4b02      	ldr	r3, [pc, #8]	; (d8388 <hal_spi_is_enabled+0xc>)
   d8380:	681b      	ldr	r3, [r3, #0]
   d8382:	6a1b      	ldr	r3, [r3, #32]
   d8384:	9301      	str	r3, [sp, #4]
   d8386:	bd08      	pop	{r3, pc}
   d8388:	00030230 	.word	0x00030230

000d838c <hal_spi_info>:
DYNALIB_FN(9, hal_spi, hal_spi_info, void(hal_spi_interface_t, hal_spi_info_t*, void*))
   d838c:	b508      	push	{r3, lr}
   d838e:	4b02      	ldr	r3, [pc, #8]	; (d8398 <hal_spi_info+0xc>)
   d8390:	681b      	ldr	r3, [r3, #0]
   d8392:	6a5b      	ldr	r3, [r3, #36]	; 0x24
   d8394:	9301      	str	r3, [sp, #4]
   d8396:	bd08      	pop	{r3, pc}
   d8398:	00030230 	.word	0x00030230

000d839c <hal_spi_set_settings>:
DYNALIB_FN(10, hal_spi, hal_spi_transfer_dma, void(hal_spi_interface_t, void*, void*, uint32_t, hal_spi_dma_user_callback))
DYNALIB_FN(11, hal_spi, hal_spi_begin_ext, void(hal_spi_interface_t, hal_spi_mode_t, uint16_t, void*))
DYNALIB_FN(12, hal_spi, hal_spi_set_callback_on_selected, void(hal_spi_interface_t, hal_spi_select_user_callback, void*))
DYNALIB_FN(13, hal_spi, hal_spi_transfer_dma_cancel, void(hal_spi_interface_t))
DYNALIB_FN(14, hal_spi, hal_spi_transfer_dma_status, int32_t(hal_spi_interface_t, hal_spi_transfer_status_t*))
DYNALIB_FN(15, hal_spi, hal_spi_set_settings, int32_t(hal_spi_interface_t, uint8_t, uint8_t, uint8_t, uint8_t, void*))
   d839c:	b508      	push	{r3, lr}
   d839e:	4b02      	ldr	r3, [pc, #8]	; (d83a8 <hal_spi_set_settings+0xc>)
   d83a0:	681b      	ldr	r3, [r3, #0]
   d83a2:	6bdb      	ldr	r3, [r3, #60]	; 0x3c
   d83a4:	9301      	str	r3, [sp, #4]
   d83a6:	bd08      	pop	{r3, pc}
   d83a8:	00030230 	.word	0x00030230

000d83ac <hal_spi_acquire>:
#if HAL_PLATFORM_SPI_HAL_THREAD_SAFETY
DYNALIB_FN(16, hal_spi, hal_spi_acquire, int32_t(hal_spi_interface_t, const hal_spi_acquire_config_t*))
   d83ac:	b508      	push	{r3, lr}
   d83ae:	4b02      	ldr	r3, [pc, #8]	; (d83b8 <hal_spi_acquire+0xc>)
   d83b0:	681b      	ldr	r3, [r3, #0]
   d83b2:	6c1b      	ldr	r3, [r3, #64]	; 0x40
   d83b4:	9301      	str	r3, [sp, #4]
   d83b6:	bd08      	pop	{r3, pc}
   d83b8:	00030230 	.word	0x00030230

000d83bc <hal_spi_release>:
DYNALIB_FN(17, hal_spi, hal_spi_release, int32_t(hal_spi_interface_t, void*))
   d83bc:	b508      	push	{r3, lr}
   d83be:	4b02      	ldr	r3, [pc, #8]	; (d83c8 <hal_spi_release+0xc>)
   d83c0:	681b      	ldr	r3, [r3, #0]
   d83c2:	6c5b      	ldr	r3, [r3, #68]	; 0x44
   d83c4:	9301      	str	r3, [sp, #4]
   d83c6:	bd08      	pop	{r3, pc}
   d83c8:	00030230 	.word	0x00030230

000d83cc <hal_usart_init>:
#define BASE_IDX 6 // Base index for all subsequent functions
#else
#define BASE_IDX 0
#endif

DYNALIB_FN(BASE_IDX + 0, hal_usart, hal_usart_init, void(hal_usart_interface_t, hal_usart_ring_buffer_t*, hal_usart_ring_buffer_t*))
   d83cc:	b508      	push	{r3, lr}
   d83ce:	4b02      	ldr	r3, [pc, #8]	; (d83d8 <hal_usart_init+0xc>)
   d83d0:	681b      	ldr	r3, [r3, #0]
   d83d2:	681b      	ldr	r3, [r3, #0]
   d83d4:	9301      	str	r3, [sp, #4]
   d83d6:	bd08      	pop	{r3, pc}
   d83d8:	0003023c 	.word	0x0003023c

000d83dc <hal_usart_write>:
DYNALIB_FN(BASE_IDX + 1, hal_usart, hal_usart_begin, void(hal_usart_interface_t, uint32_t))
DYNALIB_FN(BASE_IDX + 2, hal_usart, hal_usart_end, void(hal_usart_interface_t))
DYNALIB_FN(BASE_IDX + 3, hal_usart, hal_usart_write, uint32_t(hal_usart_interface_t, uint8_t))
   d83dc:	b508      	push	{r3, lr}
   d83de:	4b02      	ldr	r3, [pc, #8]	; (d83e8 <hal_usart_write+0xc>)
   d83e0:	681b      	ldr	r3, [r3, #0]
   d83e2:	68db      	ldr	r3, [r3, #12]
   d83e4:	9301      	str	r3, [sp, #4]
   d83e6:	bd08      	pop	{r3, pc}
   d83e8:	0003023c 	.word	0x0003023c

000d83ec <hal_usart_available>:
DYNALIB_FN(BASE_IDX + 4, hal_usart, hal_usart_available, int32_t(hal_usart_interface_t))
   d83ec:	b508      	push	{r3, lr}
   d83ee:	4b02      	ldr	r3, [pc, #8]	; (d83f8 <hal_usart_available+0xc>)
   d83f0:	681b      	ldr	r3, [r3, #0]
   d83f2:	691b      	ldr	r3, [r3, #16]
   d83f4:	9301      	str	r3, [sp, #4]
   d83f6:	bd08      	pop	{r3, pc}
   d83f8:	0003023c 	.word	0x0003023c

000d83fc <hal_usart_read>:
DYNALIB_FN(BASE_IDX + 5, hal_usart, hal_usart_read, int32_t(hal_usart_interface_t))
   d83fc:	b508      	push	{r3, lr}
   d83fe:	4b02      	ldr	r3, [pc, #8]	; (d8408 <hal_usart_read+0xc>)
   d8400:	681b      	ldr	r3, [r3, #0]
   d8402:	695b      	ldr	r3, [r3, #20]
   d8404:	9301      	str	r3, [sp, #4]
   d8406:	bd08      	pop	{r3, pc}
   d8408:	0003023c 	.word	0x0003023c

000d840c <hal_usart_peek>:
DYNALIB_FN(BASE_IDX + 6, hal_usart, hal_usart_peek, int32_t(hal_usart_interface_t))
   d840c:	b508      	push	{r3, lr}
   d840e:	4b02      	ldr	r3, [pc, #8]	; (d8418 <hal_usart_peek+0xc>)
   d8410:	681b      	ldr	r3, [r3, #0]
   d8412:	699b      	ldr	r3, [r3, #24]
   d8414:	9301      	str	r3, [sp, #4]
   d8416:	bd08      	pop	{r3, pc}
   d8418:	0003023c 	.word	0x0003023c

000d841c <hal_usart_flush>:
DYNALIB_FN(BASE_IDX + 7, hal_usart, hal_usart_flush, void(hal_usart_interface_t))
   d841c:	b508      	push	{r3, lr}
   d841e:	4b02      	ldr	r3, [pc, #8]	; (d8428 <hal_usart_flush+0xc>)
   d8420:	681b      	ldr	r3, [r3, #0]
   d8422:	69db      	ldr	r3, [r3, #28]
   d8424:	9301      	str	r3, [sp, #4]
   d8426:	bd08      	pop	{r3, pc}
   d8428:	0003023c 	.word	0x0003023c

000d842c <hal_usart_is_enabled>:
DYNALIB_FN(BASE_IDX + 8, hal_usart, hal_usart_is_enabled, bool(hal_usart_interface_t))
   d842c:	b508      	push	{r3, lr}
   d842e:	4b02      	ldr	r3, [pc, #8]	; (d8438 <hal_usart_is_enabled+0xc>)
   d8430:	681b      	ldr	r3, [r3, #0]
   d8432:	6a1b      	ldr	r3, [r3, #32]
   d8434:	9301      	str	r3, [sp, #4]
   d8436:	bd08      	pop	{r3, pc}
   d8438:	0003023c 	.word	0x0003023c

000d843c <hal_usart_available_data_for_write>:
DYNALIB_FN(BASE_IDX + 9, hal_usart, hal_usart_half_duplex, void(hal_usart_interface_t, bool))
DYNALIB_FN(BASE_IDX + 10, hal_usart, hal_usart_available_data_for_write, int32_t(hal_usart_interface_t))
   d843c:	b508      	push	{r3, lr}
   d843e:	4b02      	ldr	r3, [pc, #8]	; (d8448 <hal_usart_available_data_for_write+0xc>)
   d8440:	681b      	ldr	r3, [r3, #0]
   d8442:	6a9b      	ldr	r3, [r3, #40]	; 0x28
   d8444:	9301      	str	r3, [sp, #4]
   d8446:	bd08      	pop	{r3, pc}
   d8448:	0003023c 	.word	0x0003023c

000d844c <HAL_USB_USART_Init>:
#endif

DYNALIB_BEGIN(hal_usb)

#ifdef USB_CDC_ENABLE
DYNALIB_FN(0, hal_usb, HAL_USB_USART_Init, void(HAL_USB_USART_Serial, const HAL_USB_USART_Config*))
   d844c:	b508      	push	{r3, lr}
   d844e:	4b02      	ldr	r3, [pc, #8]	; (d8458 <HAL_USB_USART_Init+0xc>)
   d8450:	681b      	ldr	r3, [r3, #0]
   d8452:	681b      	ldr	r3, [r3, #0]
   d8454:	9301      	str	r3, [sp, #4]
   d8456:	bd08      	pop	{r3, pc}
   d8458:	0003024c 	.word	0x0003024c

000d845c <HAL_USB_USART_Available_Data>:
DYNALIB_FN(1, hal_usb, HAL_USB_USART_Begin, void(HAL_USB_USART_Serial, uint32_t, void *))
DYNALIB_FN(2, hal_usb, HAL_USB_USART_End, void(HAL_USB_USART_Serial))
DYNALIB_FN(3, hal_usb, HAL_USB_USART_Baud_Rate, unsigned int(HAL_USB_USART_Serial))
DYNALIB_FN(4, hal_usb, HAL_USB_USART_Available_Data, int32_t(HAL_USB_USART_Serial))
   d845c:	b508      	push	{r3, lr}
   d845e:	4b02      	ldr	r3, [pc, #8]	; (d8468 <HAL_USB_USART_Available_Data+0xc>)
   d8460:	681b      	ldr	r3, [r3, #0]
   d8462:	691b      	ldr	r3, [r3, #16]
   d8464:	9301      	str	r3, [sp, #4]
   d8466:	bd08      	pop	{r3, pc}
   d8468:	0003024c 	.word	0x0003024c

000d846c <HAL_USB_USART_Available_Data_For_Write>:
DYNALIB_FN(5, hal_usb, HAL_USB_USART_Available_Data_For_Write, int32_t(HAL_USB_USART_Serial))
   d846c:	b508      	push	{r3, lr}
   d846e:	4b02      	ldr	r3, [pc, #8]	; (d8478 <HAL_USB_USART_Available_Data_For_Write+0xc>)
   d8470:	681b      	ldr	r3, [r3, #0]
   d8472:	695b      	ldr	r3, [r3, #20]
   d8474:	9301      	str	r3, [sp, #4]
   d8476:	bd08      	pop	{r3, pc}
   d8478:	0003024c 	.word	0x0003024c

000d847c <HAL_USB_USART_Receive_Data>:
DYNALIB_FN(6, hal_usb, HAL_USB_USART_Receive_Data, int32_t(HAL_USB_USART_Serial, uint8_t))
   d847c:	b508      	push	{r3, lr}
   d847e:	4b02      	ldr	r3, [pc, #8]	; (d8488 <HAL_USB_USART_Receive_Data+0xc>)
   d8480:	681b      	ldr	r3, [r3, #0]
   d8482:	699b      	ldr	r3, [r3, #24]
   d8484:	9301      	str	r3, [sp, #4]
   d8486:	bd08      	pop	{r3, pc}
   d8488:	0003024c 	.word	0x0003024c

000d848c <HAL_USB_USART_Send_Data>:
DYNALIB_FN(7, hal_usb, HAL_USB_USART_Send_Data, int32_t(HAL_USB_USART_Serial, uint8_t))
   d848c:	b508      	push	{r3, lr}
   d848e:	4b02      	ldr	r3, [pc, #8]	; (d8498 <HAL_USB_USART_Send_Data+0xc>)
   d8490:	681b      	ldr	r3, [r3, #0]
   d8492:	69db      	ldr	r3, [r3, #28]
   d8494:	9301      	str	r3, [sp, #4]
   d8496:	bd08      	pop	{r3, pc}
   d8498:	0003024c 	.word	0x0003024c

000d849c <HAL_USB_USART_Flush_Data>:
DYNALIB_FN(8, hal_usb, HAL_USB_USART_Flush_Data, void(HAL_USB_USART_Serial))
   d849c:	b508      	push	{r3, lr}
   d849e:	4b02      	ldr	r3, [pc, #8]	; (d84a8 <HAL_USB_USART_Flush_Data+0xc>)
   d84a0:	681b      	ldr	r3, [r3, #0]
   d84a2:	6a1b      	ldr	r3, [r3, #32]
   d84a4:	9301      	str	r3, [sp, #4]
   d84a6:	bd08      	pop	{r3, pc}
   d84a8:	0003024c 	.word	0x0003024c

000d84ac <panic_>:
DYNALIB_FN(9, services, LED_Toggle, void(Led_TypeDef))
DYNALIB_FN(10, services, LED_Fade, void(Led_TypeDef))
DYNALIB_FN(11, services, Get_LED_Brightness, uint8_t(void))

DYNALIB_FN(12, services, set_logger_output, void(debug_output_fn, LoggerOutputLevel)) // Deprecated
DYNALIB_FN(13, services, panic_, void(ePanicCode, void*, void(*)(uint32_t)))
   d84ac:	b508      	push	{r3, lr}
   d84ae:	4b02      	ldr	r3, [pc, #8]	; (d84b8 <panic_+0xc>)
   d84b0:	681b      	ldr	r3, [r3, #0]
   d84b2:	6b5b      	ldr	r3, [r3, #52]	; 0x34
   d84b4:	9301      	str	r3, [sp, #4]
   d84b6:	bd08      	pop	{r3, pc}
   d84b8:	00030260 	.word	0x00030260

000d84bc <log_message>:
DYNALIB_FN(16, services, log_print_, void(int, int, const char*, const char*, const char*, ...)) // Deprecated
DYNALIB_FN(17, services, LED_RGB_SetChangeHandler, void(led_update_handler_fn, void*))
DYNALIB_FN(18, services, log_print_direct_, void(int, void*, const char*, ...)) // Deprecated
DYNALIB_FN(19, services, LED_GetColor, uint32_t(uint32_t, void*))

DYNALIB_FN(20, services, log_message, void(int, const char*, LogAttributes*, void*, const char*, ...))
   d84bc:	b508      	push	{r3, lr}
   d84be:	4b02      	ldr	r3, [pc, #8]	; (d84c8 <log_message+0xc>)
   d84c0:	681b      	ldr	r3, [r3, #0]
   d84c2:	6d1b      	ldr	r3, [r3, #80]	; 0x50
   d84c4:	9301      	str	r3, [sp, #4]
   d84c6:	bd08      	pop	{r3, pc}
   d84c8:	00030260 	.word	0x00030260

000d84cc <log_message_v>:
DYNALIB_FN(21, services, log_message_v, void(int, const char*, LogAttributes*, void*, const char*, va_list))
   d84cc:	b508      	push	{r3, lr}
   d84ce:	4b02      	ldr	r3, [pc, #8]	; (d84d8 <log_message_v+0xc>)
   d84d0:	681b      	ldr	r3, [r3, #0]
   d84d2:	6d5b      	ldr	r3, [r3, #84]	; 0x54
   d84d4:	9301      	str	r3, [sp, #4]
   d84d6:	bd08      	pop	{r3, pc}
   d84d8:	00030260 	.word	0x00030260

000d84dc <diag_get_source>:
DYNALIB_FN(34, services, led_update_enabled, int(void*))
DYNALIB_FN(35, services, led_update, void(system_tick_t, LEDStatusData*, void*))

DYNALIB_FN(36, services, diag_register_source, int(const diag_source*, void*))
DYNALIB_FN(37, services, diag_enum_sources, int(diag_enum_sources_callback, size_t*, void*, void*))
DYNALIB_FN(38, services, diag_get_source, int(uint16_t, const diag_source**, void*))
   d84dc:	b508      	push	{r3, lr}
   d84de:	4b03      	ldr	r3, [pc, #12]	; (d84ec <diag_get_source+0x10>)
   d84e0:	681b      	ldr	r3, [r3, #0]
   d84e2:	f8d3 3098 	ldr.w	r3, [r3, #152]	; 0x98
   d84e6:	9301      	str	r3, [sp, #4]
   d84e8:	bd08      	pop	{r3, pc}
   d84ea:	0000      	.short	0x0000
   d84ec:	00030260 	.word	0x00030260

000d84f0 <system_mode>:
#include "system_power.h"
#endif

DYNALIB_BEGIN(system)

DYNALIB_FN(0, system, system_mode, System_Mode_TypeDef(void))
   d84f0:	b508      	push	{r3, lr}
   d84f2:	4b02      	ldr	r3, [pc, #8]	; (d84fc <system_mode+0xc>)
   d84f4:	681b      	ldr	r3, [r3, #0]
   d84f6:	681b      	ldr	r3, [r3, #0]
   d84f8:	9301      	str	r3, [sp, #4]
   d84fa:	bd08      	pop	{r3, pc}
   d84fc:	00030220 	.word	0x00030220

000d8500 <set_system_mode>:
DYNALIB_FN(1, system, set_system_mode, void(System_Mode_TypeDef))
   d8500:	b508      	push	{r3, lr}
   d8502:	4b02      	ldr	r3, [pc, #8]	; (d850c <set_system_mode+0xc>)
   d8504:	681b      	ldr	r3, [r3, #0]
   d8506:	685b      	ldr	r3, [r3, #4]
   d8508:	9301      	str	r3, [sp, #4]
   d850a:	bd08      	pop	{r3, pc}
   d850c:	00030220 	.word	0x00030220

000d8510 <system_delay_ms>:

DYNALIB_FN(2, system, set_ymodem_serial_flash_update_handler, void(ymodem_serial_flash_update_handler))
DYNALIB_FN(3, system, system_firmwareUpdate, bool(Stream*, void*))
DYNALIB_FN(4, system, system_fileTransfer, bool(system_file_transfer_t*, void*))

DYNALIB_FN(5, system, system_delay_ms, void(unsigned long, bool))
   d8510:	b508      	push	{r3, lr}
   d8512:	4b02      	ldr	r3, [pc, #8]	; (d851c <system_delay_ms+0xc>)
   d8514:	681b      	ldr	r3, [r3, #0]
   d8516:	695b      	ldr	r3, [r3, #20]
   d8518:	9301      	str	r3, [sp, #4]
   d851a:	bd08      	pop	{r3, pc}
   d851c:	00030220 	.word	0x00030220

000d8520 <system_sleep>:
DYNALIB_FN(6, system, system_sleep, int(Spark_Sleep_TypeDef, long, uint32_t, void*))
   d8520:	b508      	push	{r3, lr}
   d8522:	4b02      	ldr	r3, [pc, #8]	; (d852c <system_sleep+0xc>)
   d8524:	681b      	ldr	r3, [r3, #0]
   d8526:	699b      	ldr	r3, [r3, #24]
   d8528:	9301      	str	r3, [sp, #4]
   d852a:	bd08      	pop	{r3, pc}
   d852c:	00030220 	.word	0x00030220

000d8530 <system_subscribe_event>:
DYNALIB_FN(7, system, system_sleep_pin, int(uint16_t, uint16_t, long, uint32_t, void*))
DYNALIB_FN(8, system, system_subscribe_event, int(system_event_t, system_event_handler_t*, void*))
   d8530:	b508      	push	{r3, lr}
   d8532:	4b02      	ldr	r3, [pc, #8]	; (d853c <system_subscribe_event+0xc>)
   d8534:	681b      	ldr	r3, [r3, #0]
   d8536:	6a1b      	ldr	r3, [r3, #32]
   d8538:	9301      	str	r3, [sp, #4]
   d853a:	bd08      	pop	{r3, pc}
   d853c:	00030220 	.word	0x00030220

000d8540 <system_thread_set_state>:
DYNALIB_FN(9, system, system_unsubscribe_event, void(system_event_t, system_event_handler_t*, void*))
DYNALIB_FN(10, system, system_button_pushed_duration, uint16_t(uint8_t, void*))
DYNALIB_FN(11, system, system_thread_set_state, void(spark::feature::State, void*))
   d8540:	b508      	push	{r3, lr}
   d8542:	4b02      	ldr	r3, [pc, #8]	; (d854c <system_thread_set_state+0xc>)
   d8544:	681b      	ldr	r3, [r3, #0]
   d8546:	6adb      	ldr	r3, [r3, #44]	; 0x2c
   d8548:	9301      	str	r3, [sp, #4]
   d854a:	bd08      	pop	{r3, pc}
   d854c:	00030220 	.word	0x00030220

000d8550 <application_thread_current>:
DYNALIB_FN(15, system, system_get_flag, int(system_flag_t, uint8_t*, void*))
DYNALIB_FN(16, system, Spark_Prepare_For_Firmware_Update, int(FileTransfer::Descriptor&, uint32_t, void*))
DYNALIB_FN(17, system, Spark_Save_Firmware_Chunk, int(FileTransfer::Descriptor&, const uint8_t*, void*))
DYNALIB_FN(18, system, Spark_Finish_Firmware_Update, int(FileTransfer::Descriptor&, uint32_t, void*))

DYNALIB_FN(19, system, application_thread_current, uint8_t(void*))
   d8550:	b508      	push	{r3, lr}
   d8552:	4b02      	ldr	r3, [pc, #8]	; (d855c <application_thread_current+0xc>)
   d8554:	681b      	ldr	r3, [r3, #0]
   d8556:	6cdb      	ldr	r3, [r3, #76]	; 0x4c
   d8558:	9301      	str	r3, [sp, #4]
   d855a:	bd08      	pop	{r3, pc}
   d855c:	00030220 	.word	0x00030220

000d8560 <application_thread_invoke>:
DYNALIB_FN(20, system, system_thread_current, uint8_t(void*))
DYNALIB_FN(21, system, application_thread_invoke, uint8_t(void(*)(void*), void*, void*))
   d8560:	b508      	push	{r3, lr}
   d8562:	4b02      	ldr	r3, [pc, #8]	; (d856c <application_thread_invoke+0xc>)
   d8564:	681b      	ldr	r3, [r3, #0]
   d8566:	6d5b      	ldr	r3, [r3, #84]	; 0x54
   d8568:	9301      	str	r3, [sp, #4]
   d856a:	bd08      	pop	{r3, pc}
   d856c:	00030220 	.word	0x00030220

000d8570 <system_thread_get_state>:
DYNALIB_FN(22, system, system_thread_get_state, spark::feature::State(void*))
   d8570:	b508      	push	{r3, lr}
   d8572:	4b02      	ldr	r3, [pc, #8]	; (d857c <system_thread_get_state+0xc>)
   d8574:	681b      	ldr	r3, [r3, #0]
   d8576:	6d9b      	ldr	r3, [r3, #88]	; 0x58
   d8578:	9301      	str	r3, [sp, #4]
   d857a:	bd08      	pop	{r3, pc}
   d857c:	00030220 	.word	0x00030220

000d8580 <system_notify_time_changed>:
DYNALIB_FN(23, system, system_notify_time_changed, void(uint32_t, void*, void*))
   d8580:	b508      	push	{r3, lr}
   d8582:	4b02      	ldr	r3, [pc, #8]	; (d858c <system_notify_time_changed+0xc>)
   d8584:	681b      	ldr	r3, [r3, #0]
   d8586:	6ddb      	ldr	r3, [r3, #92]	; 0x5c
   d8588:	9301      	str	r3, [sp, #4]
   d858a:	bd08      	pop	{r3, pc}
   d858c:	00030220 	.word	0x00030220

000d8590 <system_ctrl_set_app_request_handler>:
DYNALIB_FN(BASE_IDX + 6, system, led_pattern_period, uint16_t(int, int, void*))
DYNALIB_FN(BASE_IDX + 7, system, system_set_tester_handlers, int(system_tester_handlers_t*, void*))
DYNALIB_FN(BASE_IDX + 8, system, system_format_diag_data, int(const uint16_t*, size_t, unsigned, appender_fn, void*, void*))

// Control requests
DYNALIB_FN(BASE_IDX + 9, system, system_ctrl_set_app_request_handler, int(ctrl_request_handler_fn, void*))
   d8590:	b508      	push	{r3, lr}
   d8592:	4b03      	ldr	r3, [pc, #12]	; (d85a0 <system_ctrl_set_app_request_handler+0x10>)
   d8594:	681b      	ldr	r3, [r3, #0]
   d8596:	f8d3 3088 	ldr.w	r3, [r3, #136]	; 0x88
   d859a:	9301      	str	r3, [sp, #4]
   d859c:	bd08      	pop	{r3, pc}
   d859e:	0000      	.short	0x0000
   d85a0:	00030220 	.word	0x00030220

000d85a4 <system_ctrl_set_result>:
DYNALIB_FN(BASE_IDX + 10, system, system_ctrl_alloc_reply_data, int(ctrl_request*, size_t, void*))
DYNALIB_FN(BASE_IDX + 11, system, system_ctrl_free_request_data, void(ctrl_request*, void*))
DYNALIB_FN(BASE_IDX + 12, system, system_ctrl_set_result, void(ctrl_request*, int, ctrl_completion_handler_fn, void*, void*))
   d85a4:	b508      	push	{r3, lr}
   d85a6:	4b03      	ldr	r3, [pc, #12]	; (d85b4 <system_ctrl_set_result+0x10>)
   d85a8:	681b      	ldr	r3, [r3, #0]
   d85aa:	f8d3 3094 	ldr.w	r3, [r3, #148]	; 0x94
   d85ae:	9301      	str	r3, [sp, #4]
   d85b0:	bd08      	pop	{r3, pc}
   d85b2:	0000      	.short	0x0000
   d85b4:	00030220 	.word	0x00030220

000d85b8 <system_power_management_set_config>:
DYNALIB_FN(BASE_IDX + 14, system, system_pool_free, void(void*, void*))
DYNALIB_FN(BASE_IDX + 15, system, system_sleep_pins, int(const uint16_t*, size_t, const InterruptMode*, size_t, long, uint32_t, void*))
DYNALIB_FN(BASE_IDX + 16, system, system_invoke_event_handler, int(uint16_t handlerInfoSize, FilteringEventHandler* handlerInfo, const char* event_name, const char* event_data, void* reserved))

#if HAL_PLATFORM_POWER_MANAGEMENT
DYNALIB_FN(BASE_IDX + 17, system, system_power_management_set_config, int(const hal_power_config*, void*))
   d85b8:	b508      	push	{r3, lr}
   d85ba:	4b03      	ldr	r3, [pc, #12]	; (d85c8 <system_power_management_set_config+0x10>)
   d85bc:	681b      	ldr	r3, [r3, #0]
   d85be:	f8d3 30a8 	ldr.w	r3, [r3, #168]	; 0xa8
   d85c2:	9301      	str	r3, [sp, #4]
   d85c4:	bd08      	pop	{r3, pc}
   d85c6:	0000      	.short	0x0000
   d85c8:	00030220 	.word	0x00030220

000d85cc <system_sleep_ext>:
#define BASE_IDX1 (BASE_IDX + 18)
#else
#define BASE_IDX1 (BASE_IDX + 17)
#endif // HAL_PLATFORM_POWER_MANAGEMENT

DYNALIB_FN(BASE_IDX1 + 0, system, system_sleep_ext, int(const hal_sleep_config_t*, hal_wakeup_source_base_t**, void*))
   d85cc:	b508      	push	{r3, lr}
   d85ce:	4b03      	ldr	r3, [pc, #12]	; (d85dc <system_sleep_ext+0x10>)
   d85d0:	681b      	ldr	r3, [r3, #0]
   d85d2:	f8d3 30ac 	ldr.w	r3, [r3, #172]	; 0xac
   d85d6:	9301      	str	r3, [sp, #4]
   d85d8:	bd08      	pop	{r3, pc}
   d85da:	0000      	.short	0x0000
   d85dc:	00030220 	.word	0x00030220

000d85e0 <system_reset>:
DYNALIB_FN(BASE_IDX1 + 1, system, system_reset, int(unsigned, unsigned, unsigned, unsigned, void*))
   d85e0:	b508      	push	{r3, lr}
   d85e2:	4b03      	ldr	r3, [pc, #12]	; (d85f0 <system_reset+0x10>)
   d85e4:	681b      	ldr	r3, [r3, #0]
   d85e6:	f8d3 30b0 	ldr.w	r3, [r3, #176]	; 0xb0
   d85ea:	9301      	str	r3, [sp, #4]
   d85ec:	bd08      	pop	{r3, pc}
   d85ee:	0000      	.short	0x0000
   d85f0:	00030220 	.word	0x00030220

000d85f4 <spark_variable>:
#endif


DYNALIB_BEGIN(system_cloud)

DYNALIB_FN(0, system_cloud, spark_variable, bool(const char*, const void*, Spark_Data_TypeDef, spark_variable_t*))
   d85f4:	b508      	push	{r3, lr}
   d85f6:	4b02      	ldr	r3, [pc, #8]	; (d8600 <spark_variable+0xc>)
   d85f8:	681b      	ldr	r3, [r3, #0]
   d85fa:	681b      	ldr	r3, [r3, #0]
   d85fc:	9301      	str	r3, [sp, #4]
   d85fe:	bd08      	pop	{r3, pc}
   d8600:	00030244 	.word	0x00030244

000d8604 <spark_function>:
DYNALIB_FN(1, system_cloud, spark_function, bool(const char*, p_user_function_int_str_t, void*))
   d8604:	b508      	push	{r3, lr}
   d8606:	4b02      	ldr	r3, [pc, #8]	; (d8610 <spark_function+0xc>)
   d8608:	681b      	ldr	r3, [r3, #0]
   d860a:	685b      	ldr	r3, [r3, #4]
   d860c:	9301      	str	r3, [sp, #4]
   d860e:	bd08      	pop	{r3, pc}
   d8610:	00030244 	.word	0x00030244

000d8614 <spark_process>:
DYNALIB_FN(2, system_cloud, spark_process, void(void))
   d8614:	b508      	push	{r3, lr}
   d8616:	4b02      	ldr	r3, [pc, #8]	; (d8620 <spark_process+0xc>)
   d8618:	681b      	ldr	r3, [r3, #0]
   d861a:	689b      	ldr	r3, [r3, #8]
   d861c:	9301      	str	r3, [sp, #4]
   d861e:	bd08      	pop	{r3, pc}
   d8620:	00030244 	.word	0x00030244

000d8624 <spark_cloud_flag_connect>:
DYNALIB_FN(3, system_cloud, spark_cloud_flag_connect, void(void))
   d8624:	b508      	push	{r3, lr}
   d8626:	4b02      	ldr	r3, [pc, #8]	; (d8630 <spark_cloud_flag_connect+0xc>)
   d8628:	681b      	ldr	r3, [r3, #0]
   d862a:	68db      	ldr	r3, [r3, #12]
   d862c:	9301      	str	r3, [sp, #4]
   d862e:	bd08      	pop	{r3, pc}
   d8630:	00030244 	.word	0x00030244

000d8634 <spark_cloud_flag_connected>:
DYNALIB_FN(4, system_cloud, spark_cloud_flag_disconnect, void(void))
DYNALIB_FN(5, system_cloud, spark_cloud_flag_connected, bool(void))
   d8634:	b508      	push	{r3, lr}
   d8636:	4b02      	ldr	r3, [pc, #8]	; (d8640 <spark_cloud_flag_connected+0xc>)
   d8638:	681b      	ldr	r3, [r3, #0]
   d863a:	695b      	ldr	r3, [r3, #20]
   d863c:	9301      	str	r3, [sp, #4]
   d863e:	bd08      	pop	{r3, pc}
   d8640:	00030244 	.word	0x00030244

000d8644 <spark_deviceID>:
DYNALIB_FN(6, system_cloud, system_cloud_protocol_instance, ProtocolFacade*(void))
DYNALIB_FN(7, system_cloud, spark_deviceID, String(void))
   d8644:	b508      	push	{r3, lr}
   d8646:	4b02      	ldr	r3, [pc, #8]	; (d8650 <spark_deviceID+0xc>)
   d8648:	681b      	ldr	r3, [r3, #0]
   d864a:	69db      	ldr	r3, [r3, #28]
   d864c:	9301      	str	r3, [sp, #4]
   d864e:	bd08      	pop	{r3, pc}
   d8650:	00030244 	.word	0x00030244

000d8654 <spark_send_event>:
DYNALIB_FN(8, system_cloud, spark_send_event, bool(const char*, const char*, int, uint32_t, void*))
   d8654:	b508      	push	{r3, lr}
   d8656:	4b02      	ldr	r3, [pc, #8]	; (d8660 <spark_send_event+0xc>)
   d8658:	681b      	ldr	r3, [r3, #0]
   d865a:	6a1b      	ldr	r3, [r3, #32]
   d865c:	9301      	str	r3, [sp, #4]
   d865e:	bd08      	pop	{r3, pc}
   d8660:	00030244 	.word	0x00030244

000d8664 <spark_subscribe>:
DYNALIB_FN(9, system_cloud, spark_subscribe, bool(const char*, EventHandler, void*, Spark_Subscription_Scope_TypeDef, const char*, void*))
   d8664:	b508      	push	{r3, lr}
   d8666:	4b02      	ldr	r3, [pc, #8]	; (d8670 <spark_subscribe+0xc>)
   d8668:	681b      	ldr	r3, [r3, #0]
   d866a:	6a5b      	ldr	r3, [r3, #36]	; 0x24
   d866c:	9301      	str	r3, [sp, #4]
   d866e:	bd08      	pop	{r3, pc}
   d8670:	00030244 	.word	0x00030244

000d8674 <spark_sync_time>:
DYNALIB_FN(10, system_cloud, spark_unsubscribe, void(void*))
DYNALIB_FN(11, system_cloud, spark_sync_time, bool(void*))
   d8674:	b508      	push	{r3, lr}
   d8676:	4b02      	ldr	r3, [pc, #8]	; (d8680 <spark_sync_time+0xc>)
   d8678:	681b      	ldr	r3, [r3, #0]
   d867a:	6adb      	ldr	r3, [r3, #44]	; 0x2c
   d867c:	9301      	str	r3, [sp, #4]
   d867e:	bd08      	pop	{r3, pc}
   d8680:	00030244 	.word	0x00030244

000d8684 <spark_sync_time_pending>:
DYNALIB_FN(12, system_cloud, spark_sync_time_pending, bool(void*))
   d8684:	b508      	push	{r3, lr}
   d8686:	4b02      	ldr	r3, [pc, #8]	; (d8690 <spark_sync_time_pending+0xc>)
   d8688:	681b      	ldr	r3, [r3, #0]
   d868a:	6b1b      	ldr	r3, [r3, #48]	; 0x30
   d868c:	9301      	str	r3, [sp, #4]
   d868e:	bd08      	pop	{r3, pc}
   d8690:	00030244 	.word	0x00030244

000d8694 <spark_sync_time_last>:
DYNALIB_FN(13, system_cloud, spark_sync_time_last, system_tick_t(time32_t*, time_t*))
   d8694:	b508      	push	{r3, lr}
   d8696:	4b02      	ldr	r3, [pc, #8]	; (d86a0 <spark_sync_time_last+0xc>)
   d8698:	681b      	ldr	r3, [r3, #0]
   d869a:	6b5b      	ldr	r3, [r3, #52]	; 0x34
   d869c:	9301      	str	r3, [sp, #4]
   d869e:	bd08      	pop	{r3, pc}
   d86a0:	00030244 	.word	0x00030244

000d86a4 <spark_set_connection_property>:
DYNALIB_FN(14, system_cloud, spark_set_connection_property, int(unsigned, unsigned, const void*, void*))
   d86a4:	b508      	push	{r3, lr}
   d86a6:	4b02      	ldr	r3, [pc, #8]	; (d86b0 <spark_set_connection_property+0xc>)
   d86a8:	681b      	ldr	r3, [r3, #0]
   d86aa:	6b9b      	ldr	r3, [r3, #56]	; 0x38
   d86ac:	9301      	str	r3, [sp, #4]
   d86ae:	bd08      	pop	{r3, pc}
   d86b0:	00030244 	.word	0x00030244

000d86b4 <spark_set_random_seed_from_cloud_handler>:
DYNALIB_FN(15, system_cloud, spark_set_random_seed_from_cloud_handler, int(void (*handler)(unsigned int), void*))
   d86b4:	b508      	push	{r3, lr}
   d86b6:	4b02      	ldr	r3, [pc, #8]	; (d86c0 <spark_set_random_seed_from_cloud_handler+0xc>)
   d86b8:	681b      	ldr	r3, [r3, #0]
   d86ba:	6bdb      	ldr	r3, [r3, #60]	; 0x3c
   d86bc:	9301      	str	r3, [sp, #4]
   d86be:	bd08      	pop	{r3, pc}
   d86c0:	00030244 	.word	0x00030244

000d86c4 <spark_cloud_disconnect>:
DYNALIB_FN(16, system_cloud, spark_publish_vitals, int(system_tick_t, void*))
DYNALIB_FN(17, system_cloud, spark_cloud_disconnect, int(const spark_cloud_disconnect_options*, void*))
   d86c4:	b508      	push	{r3, lr}
   d86c6:	4b02      	ldr	r3, [pc, #8]	; (d86d0 <spark_cloud_disconnect+0xc>)
   d86c8:	681b      	ldr	r3, [r3, #0]
   d86ca:	6c5b      	ldr	r3, [r3, #68]	; 0x44
   d86cc:	9301      	str	r3, [sp, #4]
   d86ce:	bd08      	pop	{r3, pc}
   d86d0:	00030244 	.word	0x00030244

000d86d4 <network_connect>:
#endif

DYNALIB_BEGIN(system_net)

DYNALIB_FN(0, system_net, network_config, const void*(network_handle_t, uint32_t, void*))
DYNALIB_FN(1, system_net, network_connect, void(network_handle_t, uint32_t, uint32_t, void*))
   d86d4:	b508      	push	{r3, lr}
   d86d6:	4b02      	ldr	r3, [pc, #8]	; (d86e0 <network_connect+0xc>)
   d86d8:	681b      	ldr	r3, [r3, #0]
   d86da:	685b      	ldr	r3, [r3, #4]
   d86dc:	9301      	str	r3, [sp, #4]
   d86de:	bd08      	pop	{r3, pc}
   d86e0:	00030240 	.word	0x00030240

000d86e4 <network_connecting>:
DYNALIB_FN(2, system_net, network_connecting, bool(network_handle_t, uint32_t, void*))
   d86e4:	b508      	push	{r3, lr}
   d86e6:	4b02      	ldr	r3, [pc, #8]	; (d86f0 <network_connecting+0xc>)
   d86e8:	681b      	ldr	r3, [r3, #0]
   d86ea:	689b      	ldr	r3, [r3, #8]
   d86ec:	9301      	str	r3, [sp, #4]
   d86ee:	bd08      	pop	{r3, pc}
   d86f0:	00030240 	.word	0x00030240

000d86f4 <network_disconnect>:
DYNALIB_FN(3, system_net, network_disconnect, void(network_handle_t, uint32_t, void*))
   d86f4:	b508      	push	{r3, lr}
   d86f6:	4b02      	ldr	r3, [pc, #8]	; (d8700 <network_disconnect+0xc>)
   d86f8:	681b      	ldr	r3, [r3, #0]
   d86fa:	68db      	ldr	r3, [r3, #12]
   d86fc:	9301      	str	r3, [sp, #4]
   d86fe:	bd08      	pop	{r3, pc}
   d8700:	00030240 	.word	0x00030240

000d8704 <network_ready>:
DYNALIB_FN(4, system_net, network_ready, bool(network_handle_t, uint32_t, void*))
   d8704:	b508      	push	{r3, lr}
   d8706:	4b02      	ldr	r3, [pc, #8]	; (d8710 <network_ready+0xc>)
   d8708:	681b      	ldr	r3, [r3, #0]
   d870a:	691b      	ldr	r3, [r3, #16]
   d870c:	9301      	str	r3, [sp, #4]
   d870e:	bd08      	pop	{r3, pc}
   d8710:	00030240 	.word	0x00030240

000d8714 <network_on>:
DYNALIB_FN(5, system_net, network_on, void(network_handle_t, uint32_t, uint32_t, void*))
   d8714:	b508      	push	{r3, lr}
   d8716:	4b02      	ldr	r3, [pc, #8]	; (d8720 <network_on+0xc>)
   d8718:	681b      	ldr	r3, [r3, #0]
   d871a:	695b      	ldr	r3, [r3, #20]
   d871c:	9301      	str	r3, [sp, #4]
   d871e:	bd08      	pop	{r3, pc}
   d8720:	00030240 	.word	0x00030240

000d8724 <network_off>:
DYNALIB_FN(6, system_net, network_off, void(network_handle_t, uint32_t, uint32_t, void*))
   d8724:	b508      	push	{r3, lr}
   d8726:	4b02      	ldr	r3, [pc, #8]	; (d8730 <network_off+0xc>)
   d8728:	681b      	ldr	r3, [r3, #0]
   d872a:	699b      	ldr	r3, [r3, #24]
   d872c:	9301      	str	r3, [sp, #4]
   d872e:	bd08      	pop	{r3, pc}
   d8730:	00030240 	.word	0x00030240

000d8734 <network_listen>:
DYNALIB_FN(7, system_net, network_listen, void(network_handle_t, uint32_t, void*))
   d8734:	b508      	push	{r3, lr}
   d8736:	4b02      	ldr	r3, [pc, #8]	; (d8740 <network_listen+0xc>)
   d8738:	681b      	ldr	r3, [r3, #0]
   d873a:	69db      	ldr	r3, [r3, #28]
   d873c:	9301      	str	r3, [sp, #4]
   d873e:	bd08      	pop	{r3, pc}
   d8740:	00030240 	.word	0x00030240

000d8744 <network_listening>:
DYNALIB_FN(8, system_net, network_listening, bool(network_handle_t, uint32_t, void*))
   d8744:	b508      	push	{r3, lr}
   d8746:	4b02      	ldr	r3, [pc, #8]	; (d8750 <network_listening+0xc>)
   d8748:	681b      	ldr	r3, [r3, #0]
   d874a:	6a1b      	ldr	r3, [r3, #32]
   d874c:	9301      	str	r3, [sp, #4]
   d874e:	bd08      	pop	{r3, pc}
   d8750:	00030240 	.word	0x00030240

000d8754 <network_set_listen_timeout>:
DYNALIB_FN(9, system_net, network_has_credentials, bool(network_handle_t, uint32_t, void*))
DYNALIB_FN(10, system_net, network_set_credentials, int(network_handle_t, uint32_t, NetworkCredentials*, void*))
DYNALIB_FN(11, system_net, network_clear_credentials, bool(network_handle_t, uint32_t, NetworkCredentials*, void*))
DYNALIB_FN(12, system_net, network_set_listen_timeout, void(network_handle_t, uint16_t, void*))
   d8754:	b508      	push	{r3, lr}
   d8756:	4b02      	ldr	r3, [pc, #8]	; (d8760 <network_set_listen_timeout+0xc>)
   d8758:	681b      	ldr	r3, [r3, #0]
   d875a:	6b1b      	ldr	r3, [r3, #48]	; 0x30
   d875c:	9301      	str	r3, [sp, #4]
   d875e:	bd08      	pop	{r3, pc}
   d8760:	00030240 	.word	0x00030240

000d8764 <network_get_listen_timeout>:
DYNALIB_FN(13, system_net, network_get_listen_timeout, uint16_t(network_handle_t, uint32_t, void*))
   d8764:	b508      	push	{r3, lr}
   d8766:	4b02      	ldr	r3, [pc, #8]	; (d8770 <network_get_listen_timeout+0xc>)
   d8768:	681b      	ldr	r3, [r3, #0]
   d876a:	6b5b      	ldr	r3, [r3, #52]	; 0x34
   d876c:	9301      	str	r3, [sp, #4]
   d876e:	bd08      	pop	{r3, pc}
   d8770:	00030240 	.word	0x00030240

000d8774 <malloc>:
#include "hal_platform.h"
#endif // defined(DYNALIB_EXPORT) || (defined(DYNALIB_IMPORT) && !defined(RT_DYNALIB_NO_DEPENDENCY_BREAKING_IMPORTS))

DYNALIB_BEGIN(rt)

DYNALIB_FN(0, rt, malloc, void*(size_t))
   d8774:	b508      	push	{r3, lr}
   d8776:	4b02      	ldr	r3, [pc, #8]	; (d8780 <malloc+0xc>)
   d8778:	681b      	ldr	r3, [r3, #0]
   d877a:	681b      	ldr	r3, [r3, #0]
   d877c:	9301      	str	r3, [sp, #4]
   d877e:	bd08      	pop	{r3, pc}
   d8780:	0003021c 	.word	0x0003021c

000d8784 <free>:
DYNALIB_FN(1, rt, free, void(void*))
   d8784:	b508      	push	{r3, lr}
   d8786:	4b02      	ldr	r3, [pc, #8]	; (d8790 <free+0xc>)
   d8788:	681b      	ldr	r3, [r3, #0]
   d878a:	685b      	ldr	r3, [r3, #4]
   d878c:	9301      	str	r3, [sp, #4]
   d878e:	bd08      	pop	{r3, pc}
   d8790:	0003021c 	.word	0x0003021c

000d8794 <realloc>:
DYNALIB_FN(2, rt, realloc, void*(void*, size_t))
   d8794:	b508      	push	{r3, lr}
   d8796:	4b02      	ldr	r3, [pc, #8]	; (d87a0 <realloc+0xc>)
   d8798:	681b      	ldr	r3, [r3, #0]
   d879a:	689b      	ldr	r3, [r3, #8]
   d879c:	9301      	str	r3, [sp, #4]
   d879e:	bd08      	pop	{r3, pc}
   d87a0:	0003021c 	.word	0x0003021c

000d87a4 <siprintf>:
DYNALIB_FN(3, rt, sprintf, int(char*, const char*, ...))
DYNALIB_FN(4, rt, siprintf, int(char*, const char*, ...))
   d87a4:	b508      	push	{r3, lr}
   d87a6:	4b02      	ldr	r3, [pc, #8]	; (d87b0 <siprintf+0xc>)
   d87a8:	681b      	ldr	r3, [r3, #0]
   d87aa:	691b      	ldr	r3, [r3, #16]
   d87ac:	9301      	str	r3, [sp, #4]
   d87ae:	bd08      	pop	{r3, pc}
   d87b0:	0003021c 	.word	0x0003021c

000d87b4 <snprintf>:
DYNALIB_FN(5, rt, sscanf, int(const char*, const char*, ...))
DYNALIB_FN(6, rt, siscanf, int(const char*, const char*, ...))
DYNALIB_FN(7, rt, snprintf, int(char*, size_t, const char*, ...))
   d87b4:	b508      	push	{r3, lr}
   d87b6:	4b02      	ldr	r3, [pc, #8]	; (d87c0 <snprintf+0xc>)
   d87b8:	681b      	ldr	r3, [r3, #0]
   d87ba:	69db      	ldr	r3, [r3, #28]
   d87bc:	9301      	str	r3, [sp, #4]
   d87be:	bd08      	pop	{r3, pc}
   d87c0:	0003021c 	.word	0x0003021c

000d87c4 <vsnprintf>:
DYNALIB_FN(8, rt, sniprintf, int(char*, size_t, const char*, ...))
DYNALIB_FN(9, rt, vsnprintf, int(char*, size_t, const char*, va_list))
   d87c4:	b508      	push	{r3, lr}
   d87c6:	4b02      	ldr	r3, [pc, #8]	; (d87d0 <vsnprintf+0xc>)
   d87c8:	681b      	ldr	r3, [r3, #0]
   d87ca:	6a5b      	ldr	r3, [r3, #36]	; 0x24
   d87cc:	9301      	str	r3, [sp, #4]
   d87ce:	bd08      	pop	{r3, pc}
   d87d0:	0003021c 	.word	0x0003021c

000d87d4 <abort>:
DYNALIB_FN(10, rt, vsniprintf, int(char*, size_t, const char*, va_list))
DYNALIB_FN(11, rt, abort, void(void))
   d87d4:	b508      	push	{r3, lr}
   d87d6:	4b02      	ldr	r3, [pc, #8]	; (d87e0 <abort+0xc>)
   d87d8:	681b      	ldr	r3, [r3, #0]
   d87da:	6adb      	ldr	r3, [r3, #44]	; 0x2c
   d87dc:	9301      	str	r3, [sp, #4]
   d87de:	bd08      	pop	{r3, pc}
   d87e0:	0003021c 	.word	0x0003021c

000d87e4 <_malloc_r>:
DYNALIB_FN(12, rt, _malloc_r, void*(struct _reent*, size_t))
   d87e4:	b508      	push	{r3, lr}
   d87e6:	4b02      	ldr	r3, [pc, #8]	; (d87f0 <_malloc_r+0xc>)
   d87e8:	681b      	ldr	r3, [r3, #0]
   d87ea:	6b1b      	ldr	r3, [r3, #48]	; 0x30
   d87ec:	9301      	str	r3, [sp, #4]
   d87ee:	bd08      	pop	{r3, pc}
   d87f0:	0003021c 	.word	0x0003021c

000d87f4 <newlib_impure_ptr_callback>:
// RT is currently being imported into system-part1 from system-part2,
// which is the reverse direction.

#if defined(DYNALIB_EXPORT) || (defined(DYNALIB_IMPORT) && !defined(RT_DYNALIB_NO_DEPENDENCY_BREAKING_IMPORTS))
DYNALIB_FN(16, rt, __assert_func, void(const char*, int, const char*, const char*))
DYNALIB_FN(17, rt, newlib_impure_ptr_callback, void(void (*)(struct _reent*, size_t, uint32_t, void*), void*))
   d87f4:	b508      	push	{r3, lr}
   d87f6:	4b02      	ldr	r3, [pc, #8]	; (d8800 <newlib_impure_ptr_callback+0xc>)
   d87f8:	681b      	ldr	r3, [r3, #0]
   d87fa:	6c5b      	ldr	r3, [r3, #68]	; 0x44
   d87fc:	9301      	str	r3, [sp, #4]
   d87fe:	bd08      	pop	{r3, pc}
   d8800:	0003021c 	.word	0x0003021c

000d8804 <strftime>:
// Electron has some of these exported from a different system part through services2 dynalib
// Photon/P1 do not have enough space in system-part2
#if HAL_PLATFORM_EXPORT_STDLIB_RT_DYNALIB
DYNALIB_FN(18, rt, strftime, size_t(char* __restrict, size_t, const char* __restrict, const struct tm* __restrict))
   d8804:	b508      	push	{r3, lr}
   d8806:	4b02      	ldr	r3, [pc, #8]	; (d8810 <strftime+0xc>)
   d8808:	681b      	ldr	r3, [r3, #0]
   d880a:	6c9b      	ldr	r3, [r3, #72]	; 0x48
   d880c:	9301      	str	r3, [sp, #4]
   d880e:	bd08      	pop	{r3, pc}
   d8810:	0003021c 	.word	0x0003021c

000d8814 <localtime_r>:
DYNALIB_FN(19, rt, localtime_r, struct tm*(const time_t* __restrict, struct tm* __restrict))
   d8814:	b508      	push	{r3, lr}
   d8816:	4b02      	ldr	r3, [pc, #8]	; (d8820 <localtime_r+0xc>)
   d8818:	681b      	ldr	r3, [r3, #0]
   d881a:	6cdb      	ldr	r3, [r3, #76]	; 0x4c
   d881c:	9301      	str	r3, [sp, #4]
   d881e:	bd08      	pop	{r3, pc}
   d8820:	0003021c 	.word	0x0003021c

000d8824 <gmtime_r>:
DYNALIB_FN(20, rt, gmtime_r, struct tm*(const time_t* __restrict, struct tm* __restrict))
   d8824:	b508      	push	{r3, lr}
   d8826:	4b02      	ldr	r3, [pc, #8]	; (d8830 <gmtime_r+0xc>)
   d8828:	681b      	ldr	r3, [r3, #0]
   d882a:	6d1b      	ldr	r3, [r3, #80]	; 0x50
   d882c:	9301      	str	r3, [sp, #4]
   d882e:	bd08      	pop	{r3, pc}
   d8830:	0003021c 	.word	0x0003021c

000d8834 <mktime>:
DYNALIB_FN(21, rt, mktime, time_t(struct tm*))
   d8834:	b508      	push	{r3, lr}
   d8836:	4b02      	ldr	r3, [pc, #8]	; (d8840 <mktime+0xc>)
   d8838:	681b      	ldr	r3, [r3, #0]
   d883a:	6d5b      	ldr	r3, [r3, #84]	; 0x54
   d883c:	9301      	str	r3, [sp, #4]
   d883e:	bd08      	pop	{r3, pc}
   d8840:	0003021c 	.word	0x0003021c

000d8844 <delay>:
    return (value - fromStart) * (toEnd - toStart) / (fromEnd - fromStart) + toStart;
}

void delay(unsigned long ms)
{
    system_delay_ms(ms, false);
   d8844:	2100      	movs	r1, #0
   d8846:	f7ff be63 	b.w	d8510 <system_delay_ms>

000d884a <_ZN8particle6detail21futureCallbackWrapperEPv>:
 * License along with this library; if not, see <http://www.gnu.org/licenses/>.
 */

#include "spark_wiring_async.h"

void particle::detail::futureCallbackWrapper(void* data) {
   d884a:	b510      	push	{r4, lr}
      if (_M_empty())
   d884c:	6883      	ldr	r3, [r0, #8]
   d884e:	4604      	mov	r4, r0
   d8850:	b90b      	cbnz	r3, d8856 <_ZN8particle6detail21futureCallbackWrapperEPv+0xc>
	__throw_bad_function_call();
   d8852:	f001 fdec 	bl	da42e <_ZSt25__throw_bad_function_callv>
      return _M_invoker(_M_functor, std::forward<_ArgTypes>(__args)...);
   d8856:	68c3      	ldr	r3, [r0, #12]
   d8858:	4798      	blx	r3
      if (_M_manager)
   d885a:	68a3      	ldr	r3, [r4, #8]
   d885c:	b11b      	cbz	r3, d8866 <_ZN8particle6detail21futureCallbackWrapperEPv+0x1c>
	_M_manager(_M_functor, _M_functor, __destroy_functor);
   d885e:	2203      	movs	r2, #3
   d8860:	4621      	mov	r1, r4
   d8862:	4620      	mov	r0, r4
   d8864:	4798      	blx	r3
    auto callbackPtr = static_cast<const std::function<void()>*>(data);
    (*callbackPtr)();
    delete callbackPtr;
   d8866:	4620      	mov	r0, r4
   d8868:	2110      	movs	r1, #16
}
   d886a:	e8bd 4010 	ldmia.w	sp!, {r4, lr}
    delete callbackPtr;
   d886e:	f001 bdd8 	b.w	da422 <_ZdlPvj>

000d8872 <_ZN14RecursiveMutexD1Ev>:
    RecursiveMutex() : handle_(nullptr)
    {
        os_mutex_recursive_create(&handle_);
    }

    ~RecursiveMutex() {
   d8872:	b510      	push	{r4, lr}
   d8874:	4604      	mov	r4, r0
        dispose();
    }

    void dispose()
    {
        if (handle_) {
   d8876:	6800      	ldr	r0, [r0, #0]
   d8878:	b108      	cbz	r0, d887e <_ZN14RecursiveMutexD1Ev+0xc>
            os_mutex_recursive_destroy(handle_);
   d887a:	f7ff fc3f 	bl	d80fc <os_mutex_recursive_destroy>
    }
   d887e:	4620      	mov	r0, r4
   d8880:	bd10      	pop	{r4, pc}

000d8882 <_ZNSt14__shared_countILN9__gnu_cxx12_Lock_policyE0EEC1ERKS2_>:
      : _M_pi(__r._M_pi)
   d8882:	680b      	ldr	r3, [r1, #0]
   d8884:	6003      	str	r3, [r0, #0]
	if (_M_pi != 0)
   d8886:	b113      	cbz	r3, d888e <_ZNSt14__shared_countILN9__gnu_cxx12_Lock_policyE0EEC1ERKS2_+0xc>
    { ++_M_use_count; }
   d8888:	685a      	ldr	r2, [r3, #4]
   d888a:	3201      	adds	r2, #1
   d888c:	605a      	str	r2, [r3, #4]
      }
   d888e:	4770      	bx	lr

000d8890 <_GLOBAL__sub_I__ZN8particle3ble13WiringBleLock6mutex_E>:
BleCharacteristic BleLocalDevice::addCharacteristic(const String& desc, EnumFlags<BleCharacteristicProperty> properties, BleOnDataReceivedCallback callback, void* context) {
    WiringBleLock lk;
    return addCharacteristic(desc.c_str(), properties, callback, context);
}

} /* namespace particle */
   d8890:	b510      	push	{r4, lr}
    RecursiveMutex() : handle_(nullptr)
   d8892:	4c06      	ldr	r4, [pc, #24]	; (d88ac <_GLOBAL__sub_I__ZN8particle3ble13WiringBleLock6mutex_E+0x1c>)
   d8894:	2300      	movs	r3, #0
        os_mutex_recursive_create(&handle_);
   d8896:	4620      	mov	r0, r4
    RecursiveMutex() : handle_(nullptr)
   d8898:	6023      	str	r3, [r4, #0]
        os_mutex_recursive_create(&handle_);
   d889a:	f7ff fc27 	bl	d80ec <os_mutex_recursive_create>
RecursiveMutex WiringBleLock::mutex_;
   d889e:	4620      	mov	r0, r4
   d88a0:	4a03      	ldr	r2, [pc, #12]	; (d88b0 <_GLOBAL__sub_I__ZN8particle3ble13WiringBleLock6mutex_E+0x20>)
   d88a2:	4904      	ldr	r1, [pc, #16]	; (d88b4 <_GLOBAL__sub_I__ZN8particle3ble13WiringBleLock6mutex_E+0x24>)
} /* namespace particle */
   d88a4:	e8bd 4010 	ldmia.w	sp!, {r4, lr}
RecursiveMutex WiringBleLock::mutex_;
   d88a8:	f001 bdb6 	b.w	da418 <__aeabi_atexit>
   d88ac:	2003e5e8 	.word	0x2003e5e8
   d88b0:	2003e1f8 	.word	0x2003e1f8
   d88b4:	000d8873 	.word	0x000d8873

000d88b8 <_ZN5spark13CellularClass5readyEv>:
        return network_listening(*this, 0, NULL);
    }

    bool ready()
    {
        return network_ready(*this, 0,  NULL);
   d88b8:	2200      	movs	r2, #0
   d88ba:	6840      	ldr	r0, [r0, #4]
   d88bc:	4611      	mov	r1, r2
   d88be:	f7ff bf21 	b.w	d8704 <network_ready>

000d88c2 <_ZN5spark13CellularClass9listeningEv>:
        return network_listening(*this, 0, NULL);
   d88c2:	2200      	movs	r2, #0
   d88c4:	6840      	ldr	r0, [r0, #4]
   d88c6:	4611      	mov	r1, r2
   d88c8:	f7ff bf3c 	b.w	d8744 <network_listening>

000d88cc <_ZN5spark13CellularClass16getListenTimeoutEv>:
        return network_get_listen_timeout(*this, 0, NULL);
   d88cc:	2200      	movs	r2, #0
   d88ce:	6840      	ldr	r0, [r0, #4]
   d88d0:	4611      	mov	r1, r2
   d88d2:	f7ff bf47 	b.w	d8764 <network_get_listen_timeout>

000d88d6 <_ZN5spark13CellularClass16setListenTimeoutEt>:
        network_set_listen_timeout(*this, timeout, NULL);
   d88d6:	6840      	ldr	r0, [r0, #4]
   d88d8:	2200      	movs	r2, #0
   d88da:	f7ff bf3b 	b.w	d8754 <network_set_listen_timeout>

000d88de <_ZN5spark13CellularClass6listenEb>:
        network_listen(*this, begin ? 0 : 1, NULL);
   d88de:	6840      	ldr	r0, [r0, #4]
   d88e0:	2200      	movs	r2, #0
   d88e2:	f081 0101 	eor.w	r1, r1, #1
   d88e6:	f7ff bf25 	b.w	d8734 <network_listen>

000d88ea <_ZN5spark13CellularClass3offEv>:
        network_off(*this, 0, 0, NULL);
   d88ea:	2300      	movs	r3, #0
   d88ec:	6840      	ldr	r0, [r0, #4]
   d88ee:	461a      	mov	r2, r3
   d88f0:	4619      	mov	r1, r3
   d88f2:	f7ff bf17 	b.w	d8724 <network_off>

000d88f6 <_ZN5spark13CellularClass2onEv>:
        network_on(*this, 0, 0, NULL);
   d88f6:	2300      	movs	r3, #0
   d88f8:	6840      	ldr	r0, [r0, #4]
   d88fa:	461a      	mov	r2, r3
   d88fc:	4619      	mov	r1, r3
   d88fe:	f7ff bf09 	b.w	d8714 <network_on>

000d8902 <_ZN5spark13CellularClass10connectingEv>:
        return network_connecting(*this, 0, NULL);
   d8902:	2200      	movs	r2, #0
   d8904:	6840      	ldr	r0, [r0, #4]
   d8906:	4611      	mov	r1, r2
   d8908:	f7ff beec 	b.w	d86e4 <network_connecting>

000d890c <_ZN5spark13CellularClass10disconnectEv>:
        network_disconnect(*this, NETWORK_DISCONNECT_REASON_USER, NULL);
   d890c:	6840      	ldr	r0, [r0, #4]
   d890e:	2200      	movs	r2, #0
   d8910:	2102      	movs	r1, #2
   d8912:	f7ff beef 	b.w	d86f4 <network_disconnect>

000d8916 <_ZN5spark13CellularClass7connectEj>:
        network_connect(*this, flags, 0, NULL);
   d8916:	2300      	movs	r3, #0
   d8918:	6840      	ldr	r0, [r0, #4]
   d891a:	461a      	mov	r2, r3
   d891c:	f7ff beda 	b.w	d86d4 <network_connect>

000d8920 <_ZN5spark13CellularClass4RSSIEv>:

// #include "cellular_internal.h"

namespace spark {

    CellularSignal CellularClass::RSSI() {
   d8920:	b5f0      	push	{r4, r5, r6, r7, lr}
    int qual __attribute__((deprecated("Use getQualityValue() instead"))) = 0;

// TODO: remove once rssi/qual are removed
#pragma GCC diagnostic push
#pragma GCC diagnostic ignored "-Wdeprecated-declarations"
    CellularSignal() {}
   d8922:	4b1b      	ldr	r3, [pc, #108]	; (d8990 <_ZN5spark13CellularClass4RSSIEv+0x70>)
   d8924:	6003      	str	r3, [r0, #0]
   d8926:	2500      	movs	r5, #0
   d8928:	460f      	mov	r7, r1
   d892a:	3328      	adds	r3, #40	; 0x28
   d892c:	2618      	movs	r6, #24
   d892e:	e9c0 5502 	strd	r5, r5, [r0, #8]
   d8932:	b089      	sub	sp, #36	; 0x24
   d8934:	6043      	str	r3, [r0, #4]
   d8936:	4632      	mov	r2, r6
   d8938:	4629      	mov	r1, r5
   d893a:	4604      	mov	r4, r0
   d893c:	3010      	adds	r0, #16
   d893e:	f002 fa61 	bl	dae04 <memset>
// TODO: remove once rssi/qual are removed
#pragma GCC diagnostic push
#pragma GCC diagnostic ignored "-Wdeprecated-declarations"
        CellularSignal sig;
        if (!network_ready(*this, 0, NULL)) {
   d8942:	6878      	ldr	r0, [r7, #4]
   d8944:	462a      	mov	r2, r5
   d8946:	4629      	mov	r1, r5
   d8948:	f7ff fedc 	bl	d8704 <network_ready>
   d894c:	b918      	cbnz	r0, d8956 <_ZN5spark13CellularClass4RSSIEv+0x36>
            sig.rssi = 0;
   d894e:	60a0      	str	r0, [r4, #8]
            sig.rssi = 2;
        }
        sig.fromHalCellularSignal(sigext);
        return sig;
#pragma GCC diagnostic pop
    }
   d8950:	4620      	mov	r0, r4
   d8952:	b009      	add	sp, #36	; 0x24
   d8954:	bdf0      	pop	{r4, r5, r6, r7, pc}
        cellular_signal_t sigext = {0};
   d8956:	4629      	mov	r1, r5
   d8958:	4632      	mov	r2, r6
   d895a:	a802      	add	r0, sp, #8
        CellularSignalHal sig_hal = {0};
   d895c:	e9cd 5500 	strd	r5, r5, [sp]
        cellular_signal_t sigext = {0};
   d8960:	f002 fa50 	bl	dae04 <memset>
        if (cellular_signal(&sig_hal, &sigext) != 0) {
   d8964:	a902      	add	r1, sp, #8
   d8966:	4668      	mov	r0, sp
        sigext.size = sizeof(sigext);
   d8968:	f8ad 6008 	strh.w	r6, [sp, #8]
        if (cellular_signal(&sig_hal, &sigext) != 0) {
   d896c:	f7ff fb76 	bl	d805c <cellular_signal>
   d8970:	b110      	cbz	r0, d8978 <_ZN5spark13CellularClass4RSSIEv+0x58>
            sig.rssi = 1;
   d8972:	2301      	movs	r3, #1
   d8974:	60a3      	str	r3, [r4, #8]
            return sig;
   d8976:	e7eb      	b.n	d8950 <_ZN5spark13CellularClass4RSSIEv+0x30>
        sig.rssi = sig_hal.rssi;
   d8978:	9b00      	ldr	r3, [sp, #0]
        sig.qual = sig_hal.qual;
   d897a:	9a01      	ldr	r2, [sp, #4]
        sig.rssi = sig_hal.rssi;
   d897c:	60a3      	str	r3, [r4, #8]
        sig.qual = sig_hal.qual;
   d897e:	60e2      	str	r2, [r4, #12]
        if (sig.rssi == 0) {
   d8980:	b90b      	cbnz	r3, d8986 <_ZN5spark13CellularClass4RSSIEv+0x66>
            sig.rssi = 2;
   d8982:	2302      	movs	r3, #2
   d8984:	60a3      	str	r3, [r4, #8]
        sig.fromHalCellularSignal(sigext);
   d8986:	a902      	add	r1, sp, #8
   d8988:	4620      	mov	r0, r4
   d898a:	f000 f8ae 	bl	d8aea <_ZN14CellularSignal21fromHalCellularSignalERK17cellular_signal_t>
        return sig;
   d898e:	e7df      	b.n	d8950 <_ZN5spark13CellularClass4RSSIEv+0x30>
   d8990:	000db990 	.word	0x000db990

000d8994 <_GLOBAL__sub_I__ZN5spark13CellularClass4RSSIEv>:
    int tx_total;
    int rx_total;

    CellularDataHal()
    {
        memset(this, 0, sizeof(*this));
   d8994:	4b08      	ldr	r3, [pc, #32]	; (d89b8 <_GLOBAL__sub_I__ZN5spark13CellularClass4RSSIEv+0x24>)
        return (band_get.ok = true);
    }

    CellularClass Cellular;
    // NetworkClass& Network = Cellular;
}
   d8996:	b510      	push	{r4, lr}
   d8998:	2428      	movs	r4, #40	; 0x28
   d899a:	4622      	mov	r2, r4
   d899c:	4618      	mov	r0, r3
   d899e:	2100      	movs	r1, #0
   d89a0:	f002 fa30 	bl	dae04 <memset>
    static NetworkClass& from(network_interface_t nif);

    virtual IPAddress resolve(const char* name);

    explicit NetworkClass(network_interface_t iface)
            : iface_(iface) {
   d89a4:	4b05      	ldr	r3, [pc, #20]	; (d89bc <_GLOBAL__sub_I__ZN5spark13CellularClass4RSSIEv+0x28>)
        cid = -1;
        size = sizeof(*this);
   d89a6:	8004      	strh	r4, [r0, #0]
        cid = -1;
   d89a8:	f04f 32ff 	mov.w	r2, #4294967295	; 0xffffffff
   d89ac:	6042      	str	r2, [r0, #4]
   d89ae:	2204      	movs	r2, #4
   d89b0:	605a      	str	r2, [r3, #4]
            NetworkClass(NETWORK_INTERFACE_CELLULAR) {
   d89b2:	4a03      	ldr	r2, [pc, #12]	; (d89c0 <_GLOBAL__sub_I__ZN5spark13CellularClass4RSSIEv+0x2c>)
   d89b4:	601a      	str	r2, [r3, #0]
   d89b6:	bd10      	pop	{r4, pc}
   d89b8:	2003e5f4 	.word	0x2003e5f4
   d89bc:	2003e5ec 	.word	0x2003e5ec
   d89c0:	000db95c 	.word	0x000db95c

000d89c4 <_ZN14CellularSignalD1Ev>:
    CellularSignal(const cellular_signal_t& sig);
    virtual ~CellularSignal() {};
   d89c4:	4770      	bx	lr

000d89c6 <_ZNK14CellularSignal19getAccessTechnologyEv>:
#pragma GCC diagnostic pop

hal_net_access_tech_t CellularSignal::getAccessTechnology() const
{
    return static_cast<hal_net_access_tech_t>(sig_.rat);
}
   d89c6:	7d00      	ldrb	r0, [r0, #20]
   d89c8:	4770      	bx	lr

000d89ca <_ZN14CellularSignalD0Ev>:
   d89ca:	b510      	push	{r4, lr}
   d89cc:	2128      	movs	r1, #40	; 0x28
   d89ce:	4604      	mov	r4, r0
   d89d0:	f001 fd27 	bl	da422 <_ZdlPvj>
   d89d4:	4620      	mov	r0, r4
   d89d6:	bd10      	pop	{r4, pc}

000d89d8 <_ZNK14CellularSignal11getStrengthEv>:

float CellularSignal::getStrength() const
{
    if (sig_.rat != NET_ACCESS_TECHNOLOGY_NONE && sig_.strength >= 0) {
   d89d8:	7d03      	ldrb	r3, [r0, #20]
   d89da:	b17b      	cbz	r3, d89fc <_ZNK14CellularSignal11getStrengthEv+0x24>
   d89dc:	69c3      	ldr	r3, [r0, #28]
   d89de:	2b00      	cmp	r3, #0
   d89e0:	db0c      	blt.n	d89fc <_ZNK14CellularSignal11getStrengthEv+0x24>
        return (float)sig_.strength / 65535.0f * 100.0f;
   d89e2:	ee07 3a90 	vmov	s15, r3
   d89e6:	ed9f 7a07 	vldr	s14, [pc, #28]	; d8a04 <_ZNK14CellularSignal11getStrengthEv+0x2c>
   d89ea:	eef8 7ae7 	vcvt.f32.s32	s15, s15
   d89ee:	ee87 0a87 	vdiv.f32	s0, s15, s14
   d89f2:	eddf 7a05 	vldr	s15, [pc, #20]	; d8a08 <_ZNK14CellularSignal11getStrengthEv+0x30>
   d89f6:	ee20 0a27 	vmul.f32	s0, s0, s15
   d89fa:	4770      	bx	lr
    }

    return -1.0f;
   d89fc:	eebf 0a00 	vmov.f32	s0, #240	; 0xbf800000 -1.0
}
   d8a00:	4770      	bx	lr
   d8a02:	bf00      	nop
   d8a04:	477fff00 	.word	0x477fff00
   d8a08:	42c80000 	.word	0x42c80000

000d8a0c <_ZNK14CellularSignal16getStrengthValueEv>:

float CellularSignal::getStrengthValue() const
{
    if (sig_.rat != NET_ACCESS_TECHNOLOGY_NONE && sig_.rssi != std::numeric_limits<int32_t>::min()) {
   d8a0c:	7d03      	ldrb	r3, [r0, #20]
   d8a0e:	b163      	cbz	r3, d8a2a <_ZNK14CellularSignal16getStrengthValueEv+0x1e>
   d8a10:	6983      	ldr	r3, [r0, #24]
   d8a12:	f1b3 4f00 	cmp.w	r3, #2147483648	; 0x80000000
   d8a16:	d008      	beq.n	d8a2a <_ZNK14CellularSignal16getStrengthValueEv+0x1e>
        return (float)sig_.rssi / 100.0f;
   d8a18:	ee07 3a90 	vmov	s15, r3
   d8a1c:	ed9f 7a04 	vldr	s14, [pc, #16]	; d8a30 <_ZNK14CellularSignal16getStrengthValueEv+0x24>
   d8a20:	eef8 7ae7 	vcvt.f32.s32	s15, s15
   d8a24:	ee87 0a87 	vdiv.f32	s0, s15, s14
   d8a28:	4770      	bx	lr
    }

    return 0.0f;
   d8a2a:	ed9f 0a02 	vldr	s0, [pc, #8]	; d8a34 <_ZNK14CellularSignal16getStrengthValueEv+0x28>
}
   d8a2e:	4770      	bx	lr
   d8a30:	42c80000 	.word	0x42c80000
   d8a34:	00000000 	.word	0x00000000

000d8a38 <_ZNK14CellularSignal10getQualityEv>:

float CellularSignal::getQuality() const
{
    if (sig_.rat != NET_ACCESS_TECHNOLOGY_NONE && sig_.quality >= 0) {
   d8a38:	7d03      	ldrb	r3, [r0, #20]
   d8a3a:	b17b      	cbz	r3, d8a5c <_ZNK14CellularSignal10getQualityEv+0x24>
   d8a3c:	6a43      	ldr	r3, [r0, #36]	; 0x24
   d8a3e:	2b00      	cmp	r3, #0
   d8a40:	db0c      	blt.n	d8a5c <_ZNK14CellularSignal10getQualityEv+0x24>
        return (float)sig_.quality / 65535.0f * 100.0f;
   d8a42:	ee07 3a90 	vmov	s15, r3
   d8a46:	ed9f 7a07 	vldr	s14, [pc, #28]	; d8a64 <_ZNK14CellularSignal10getQualityEv+0x2c>
   d8a4a:	eef8 7ae7 	vcvt.f32.s32	s15, s15
   d8a4e:	ee87 0a87 	vdiv.f32	s0, s15, s14
   d8a52:	eddf 7a05 	vldr	s15, [pc, #20]	; d8a68 <_ZNK14CellularSignal10getQualityEv+0x30>
   d8a56:	ee20 0a27 	vmul.f32	s0, s0, s15
   d8a5a:	4770      	bx	lr
    }

    return -1.0f;
   d8a5c:	eebf 0a00 	vmov.f32	s0, #240	; 0xbf800000 -1.0
}
   d8a60:	4770      	bx	lr
   d8a62:	bf00      	nop
   d8a64:	477fff00 	.word	0x477fff00
   d8a68:	42c80000 	.word	0x42c80000

000d8a6c <_ZNK14CellularSignal15getQualityValueEv>:

float CellularSignal::getQualityValue() const
{
    if (sig_.rat != NET_ACCESS_TECHNOLOGY_NONE && sig_.qual != std::numeric_limits<int32_t>::min()) {
   d8a6c:	7d03      	ldrb	r3, [r0, #20]
   d8a6e:	b163      	cbz	r3, d8a8a <_ZNK14CellularSignal15getQualityValueEv+0x1e>
   d8a70:	6a03      	ldr	r3, [r0, #32]
   d8a72:	f1b3 4f00 	cmp.w	r3, #2147483648	; 0x80000000
   d8a76:	d008      	beq.n	d8a8a <_ZNK14CellularSignal15getQualityValueEv+0x1e>
        return (float)sig_.qual / 100.0f;
   d8a78:	ee07 3a90 	vmov	s15, r3
   d8a7c:	ed9f 7a04 	vldr	s14, [pc, #16]	; d8a90 <_ZNK14CellularSignal15getQualityValueEv+0x24>
   d8a80:	eef8 7ae7 	vcvt.f32.s32	s15, s15
   d8a84:	ee87 0a87 	vdiv.f32	s0, s15, s14
   d8a88:	4770      	bx	lr
    }

    return 0.0f;
   d8a8a:	ed9f 0a02 	vldr	s0, [pc, #8]	; d8a94 <_ZNK14CellularSignal15getQualityValueEv+0x28>
}
   d8a8e:	4770      	bx	lr
   d8a90:	42c80000 	.word	0x42c80000
   d8a94:	00000000 	.word	0x00000000

000d8a98 <_ZN5Print5printIiLi0EEEjT_i.part.0.constprop.0>:
    size_t vprintf(bool newline, const char* format, va_list args) __attribute__ ((format(printf, 3, 0)));
};

template <typename T, std::enable_if_t<!std::is_base_of<Printable, T>::value && (std::is_integral<T>::value || std::is_convertible<T, unsigned long long>::value ||
    std::is_convertible<T, long long>::value), int>>
size_t Print::print(T n, int base)
   d8a98:	b570      	push	{r4, r5, r6, lr}
// FIXME: avoids 'comparison of constant '0' with boolean expression is always false'
#if __GNUC__ >= 9
#pragma GCC diagnostic push
#pragma GCC diagnostic ignored "-Wbool-compare"
#endif // __GNUC__ >= 9
        if (n < 0 && base == 10) {
   d8a9a:	1e0c      	subs	r4, r1, #0
size_t Print::print(T n, int base)
   d8a9c:	4606      	mov	r6, r0
        if (n < 0 && base == 10) {
   d8a9e:	da0a      	bge.n	d8ab6 <_ZN5Print5printIiLi0EEEjT_i.part.0.constprop.0+0x1e>
            t = print('-');
   d8aa0:	212d      	movs	r1, #45	; 0x2d
   d8aa2:	f000 fd33 	bl	d950c <_ZN5Print5printEc>
            val = -n;
   d8aa6:	4261      	negs	r1, r4
            t = print('-');
   d8aa8:	4605      	mov	r5, r0
            val = n;
        }
#if __GNUC__ >= 9
#pragma GCC diagnostic pop
#endif // __GNUC__ >= 9
        return printNumber(val, base) + t;
   d8aaa:	220a      	movs	r2, #10
   d8aac:	4630      	mov	r0, r6
   d8aae:	f000 fd3c 	bl	d952a <_ZN5Print11printNumberEmh>
    }
}
   d8ab2:	4428      	add	r0, r5
   d8ab4:	bd70      	pop	{r4, r5, r6, pc}
            val = n;
   d8ab6:	4621      	mov	r1, r4
        size_t t = 0;
   d8ab8:	2500      	movs	r5, #0
   d8aba:	e7f6      	b.n	d8aaa <_ZN5Print5printIiLi0EEEjT_i.part.0.constprop.0+0x12>

000d8abc <_ZNK14CellularSignal7printToER5Print>:

// TODO: remove once rssi/qual are removed
#pragma GCC diagnostic push
#pragma GCC diagnostic ignored "-Wdeprecated-declarations"
size_t CellularSignal::printTo(Print& p) const
{
   d8abc:	b570      	push	{r4, r5, r6, lr}
   d8abe:	460c      	mov	r4, r1
   d8ac0:	4605      	mov	r5, r0
   d8ac2:	6881      	ldr	r1, [r0, #8]
   d8ac4:	4620      	mov	r0, r4
   d8ac6:	f7ff ffe7 	bl	d8a98 <_ZN5Print5printIiLi0EEEjT_i.part.0.constprop.0>
    size_t n = 0;
    n += p.print((*this).rssi, DEC);
    n += p.print(',');
   d8aca:	212c      	movs	r1, #44	; 0x2c
   d8acc:	4606      	mov	r6, r0
   d8ace:	4620      	mov	r0, r4
   d8ad0:	f000 fd1c 	bl	d950c <_ZN5Print5printEc>
   d8ad4:	68e9      	ldr	r1, [r5, #12]
   d8ad6:	4406      	add	r6, r0
size_t Print::print(T n, int base)
   d8ad8:	4620      	mov	r0, r4
   d8ada:	f7ff ffdd 	bl	d8a98 <_ZN5Print5printIiLi0EEEjT_i.part.0.constprop.0>
    n += p.print((*this).qual, DEC);
    return n;
}
   d8ade:	4430      	add	r0, r6
   d8ae0:	bd70      	pop	{r4, r5, r6, pc}

000d8ae2 <_ZThn4_NK14CellularSignal7printToER5Print>:
    virtual float getStrength() const;
    virtual float getStrengthValue() const;
    virtual float getQuality() const;
    virtual float getQualityValue() const;

    virtual size_t printTo(Print& p) const;
   d8ae2:	f1a0 0004 	sub.w	r0, r0, #4
   d8ae6:	f7ff bfe9 	b.w	d8abc <_ZNK14CellularSignal7printToER5Print>

000d8aea <_ZN14CellularSignal21fromHalCellularSignalERK17cellular_signal_t>:
{
   d8aea:	b530      	push	{r4, r5, lr}
    sig_ = sig;
   d8aec:	460d      	mov	r5, r1
   d8aee:	f100 0410 	add.w	r4, r0, #16
   d8af2:	cd0f      	ldmia	r5!, {r0, r1, r2, r3}
   d8af4:	c40f      	stmia	r4!, {r0, r1, r2, r3}
   d8af6:	e895 0003 	ldmia.w	r5, {r0, r1}
   d8afa:	e884 0003 	stmia.w	r4, {r0, r1}
}
   d8afe:	2001      	movs	r0, #1
   d8b00:	bd30      	pop	{r4, r5, pc}

000d8b02 <_ZNSt15_Sp_counted_ptrIPN8particle6detail10FutureImplIbNS1_13FutureContextEEELN9__gnu_cxx12_Lock_policyE0EED1Ev>:
    class _Sp_counted_ptr final : public _Sp_counted_base<_Lp>
   d8b02:	4770      	bx	lr

000d8b04 <_ZNSt15_Sp_counted_ptrIPN8particle6detail10FutureImplIbNS1_13FutureContextEEELN9__gnu_cxx12_Lock_policyE0EE14_M_get_deleterERKSt9type_info>:
      { return nullptr; }
   d8b04:	2000      	movs	r0, #0
   d8b06:	4770      	bx	lr

000d8b08 <_ZNSt15_Sp_counted_ptrIPN8particle6detail10FutureImplIbNS1_13FutureContextEEELN9__gnu_cxx12_Lock_policyE0EED0Ev>:
    class _Sp_counted_ptr final : public _Sp_counted_base<_Lp>
   d8b08:	b510      	push	{r4, lr}
   d8b0a:	2110      	movs	r1, #16
   d8b0c:	4604      	mov	r4, r0
   d8b0e:	f001 fc88 	bl	da422 <_ZdlPvj>
   d8b12:	4620      	mov	r0, r4
   d8b14:	bd10      	pop	{r4, pc}

000d8b16 <_ZNSt15_Sp_counted_ptrIPN8particle6detail10FutureImplIbNS1_13FutureContextEEELN9__gnu_cxx12_Lock_policyE0EE10_M_destroyEv>:
      _M_destroy() noexcept
   d8b16:	b508      	push	{r3, lr}
      { delete this; }
   d8b18:	f7ff fff6 	bl	d8b08 <_ZNSt15_Sp_counted_ptrIPN8particle6detail10FutureImplIbNS1_13FutureContextEEELN9__gnu_cxx12_Lock_policyE0EED0Ev>
   d8b1c:	bd08      	pop	{r3, pc}

000d8b1e <_ZN8particle5ErrorC1EOS0_>:

inline particle::Error::Error(const Error& error) :
        Error(error.type_, error.msg_) {
}

inline particle::Error::Error(Error&& error) :
   d8b1e:	b530      	push	{r4, r5, lr}
        type_(type) {
   d8b20:	2200      	movs	r2, #0
   d8b22:	f64f 749c 	movw	r4, #65436	; 0xff9c
   d8b26:	6002      	str	r2, [r0, #0]
   d8b28:	8084      	strh	r4, [r0, #4]
   d8b2a:	888d      	ldrh	r5, [r1, #4]
      __b = _GLIBCXX_MOVE(__tmp);
   d8b2c:	808c      	strh	r4, [r1, #4]
      __a = _GLIBCXX_MOVE(__b);
   d8b2e:	680c      	ldr	r4, [r1, #0]
   d8b30:	8085      	strh	r5, [r0, #4]
   d8b32:	6004      	str	r4, [r0, #0]
      __b = _GLIBCXX_MOVE(__tmp);
   d8b34:	600a      	str	r2, [r1, #0]
        Error() {
    swap(*this, error);
}
   d8b36:	bd30      	pop	{r4, r5, pc}

000d8b38 <_ZN8particle5ErrorD1Ev>:

inline particle::Error::~Error() {
   d8b38:	b510      	push	{r4, lr}
   d8b3a:	4604      	mov	r4, r0
    free((void*)msg_);
   d8b3c:	6800      	ldr	r0, [r0, #0]
   d8b3e:	f7ff fe21 	bl	d8784 <free>
}
   d8b42:	4620      	mov	r0, r4
   d8b44:	bd10      	pop	{r4, pc}

000d8b46 <_ZNSt15_Sp_counted_ptrIPN8particle6detail10FutureImplIbNS1_13FutureContextEEELN9__gnu_cxx12_Lock_policyE0EE10_M_disposeEv>:
      _M_dispose() noexcept
   d8b46:	b538      	push	{r3, r4, r5, lr}
      { delete _M_ptr; }
   d8b48:	68c4      	ldr	r4, [r0, #12]
   d8b4a:	b1f4      	cbz	r4, d8b8a <_ZNSt15_Sp_counted_ptrIPN8particle6detail10FutureImplIbNS1_13FutureContextEEELN9__gnu_cxx12_Lock_policyE0EE10_M_disposeEv+0x44>
   d8b4c:	7823      	ldrb	r3, [r4, #0]
    ~FutureImpl() {
        // Call destructor of the appropriate unnamed enum's field
        const State s = this->state();
        if (s == State::SUCCEEDED) {
            result_.~ResultT();
        } else if (s == State::FAILED) {
   d8b4e:	2b02      	cmp	r3, #2
   d8b50:	d103      	bne.n	d8b5a <_ZNSt15_Sp_counted_ptrIPN8particle6detail10FutureImplIbNS1_13FutureContextEEELN9__gnu_cxx12_Lock_policyE0EE10_M_disposeEv+0x14>
            error_.~Error();
   d8b52:	f104 000c 	add.w	r0, r4, #12
   d8b56:	f7ff ffef 	bl	d8b38 <_ZN8particle5ErrorD1Ev>
      {
	memory_order __b = __m & __memory_order_mask;
	__glibcxx_assert(__b != memory_order_release);
	__glibcxx_assert(__b != memory_order_acq_rel);

	return __atomic_load_n(&_M_p, int(__m));
   d8b5a:	6865      	ldr	r5, [r4, #4]
        delete onSuccess_.load(std::memory_order_relaxed);
   d8b5c:	b135      	cbz	r5, d8b6c <_ZNSt15_Sp_counted_ptrIPN8particle6detail10FutureImplIbNS1_13FutureContextEEELN9__gnu_cxx12_Lock_policyE0EE10_M_disposeEv+0x26>
    class function<_Res(_ArgTypes...)>
   d8b5e:	4628      	mov	r0, r5
   d8b60:	f7fd fca4 	bl	d64ac <_ZNSt14_Function_baseD1Ev>
   d8b64:	2110      	movs	r1, #16
   d8b66:	4628      	mov	r0, r5
   d8b68:	f001 fc5b 	bl	da422 <_ZdlPvj>
   d8b6c:	68a5      	ldr	r5, [r4, #8]
        delete onError_.load(std::memory_order_relaxed);
   d8b6e:	b135      	cbz	r5, d8b7e <_ZNSt15_Sp_counted_ptrIPN8particle6detail10FutureImplIbNS1_13FutureContextEEELN9__gnu_cxx12_Lock_policyE0EE10_M_disposeEv+0x38>
   d8b70:	4628      	mov	r0, r5
   d8b72:	f7fd fc9b 	bl	d64ac <_ZNSt14_Function_baseD1Ev>
   d8b76:	2110      	movs	r1, #16
   d8b78:	4628      	mov	r0, r5
   d8b7a:	f001 fc52 	bl	da422 <_ZdlPvj>
   d8b7e:	4620      	mov	r0, r4
   d8b80:	2114      	movs	r1, #20
   d8b82:	e8bd 4038 	ldmia.w	sp!, {r3, r4, r5, lr}
   d8b86:	f001 bc4c 	b.w	da422 <_ZdlPvj>
   d8b8a:	bd38      	pop	{r3, r4, r5, pc}

000d8b8c <_ZN10CloudClass22call_raw_user_functionEPvPKcS0_>:
{
    return CloudDisconnectOptions(options->flags, options->timeout, options->graceful);
}

int CloudClass::call_raw_user_function(void* data, const char* param, void* reserved)
{
   d8b8c:	b510      	push	{r4, lr}
   d8b8e:	b088      	sub	sp, #32
   d8b90:	4604      	mov	r4, r0
    user_function_int_str_t* fn = (user_function_int_str_t*)(data);
    String p(param);
   d8b92:	4668      	mov	r0, sp
   d8b94:	f000 fe27 	bl	d97e6 <_ZN6StringC1EPKc>
    return (*fn)(p);
   d8b98:	4669      	mov	r1, sp
   d8b9a:	a804      	add	r0, sp, #16
   d8b9c:	f000 fe46 	bl	d982c <_ZN6StringC1ERKS_>
   d8ba0:	a804      	add	r0, sp, #16
   d8ba2:	47a0      	blx	r4
   d8ba4:	4604      	mov	r4, r0
   d8ba6:	a804      	add	r0, sp, #16
   d8ba8:	f000 fdd2 	bl	d9750 <_ZN6StringD1Ev>
    String p(param);
   d8bac:	4668      	mov	r0, sp
   d8bae:	f000 fdcf 	bl	d9750 <_ZN6StringD1Ev>
}
   d8bb2:	4620      	mov	r0, r4
   d8bb4:	b008      	add	sp, #32
   d8bb6:	bd10      	pop	{r4, pc}

000d8bb8 <_ZN10CloudClass17register_functionEPFiPvPKcS0_ES0_S2_>:
    wiring_event_handler_t* fn = (wiring_event_handler_t*)(handler_data);
    (*fn)(event_name, data);
}

bool CloudClass::register_function(cloud_function_t fn, void* data, const char* funcKey)
{
   d8bb8:	b51f      	push	{r0, r1, r2, r3, r4, lr}
    const char *funcKey;
    cloud_function_t fn;
    void* data;

     cloud_function_descriptor() {
         memset(this, 0, sizeof(*this));
   d8bba:	2300      	movs	r3, #0
    cloud_function_descriptor desc = {};
    desc.size = sizeof(desc);
    desc.fn = fn;
    desc.data = (void*)data;
   d8bbc:	e9cd 0102 	strd	r0, r1, [sp, #8]
    desc.funcKey = funcKey;
   d8bc0:	9201      	str	r2, [sp, #4]
         size = sizeof(*this);
   d8bc2:	2410      	movs	r4, #16
    return spark_function(NULL, (user_function_int_str_t*)&desc, NULL);
   d8bc4:	461a      	mov	r2, r3
   d8bc6:	4669      	mov	r1, sp
   d8bc8:	4618      	mov	r0, r3
         memset(this, 0, sizeof(*this));
   d8bca:	f8ad 3002 	strh.w	r3, [sp, #2]
         size = sizeof(*this);
   d8bce:	f8ad 4000 	strh.w	r4, [sp]
   d8bd2:	f7ff fd17 	bl	d8604 <spark_function>
}
   d8bd6:	b004      	add	sp, #16
   d8bd8:	bd10      	pop	{r4, pc}

000d8bda <_ZN10CloudClass10disconnectERK22CloudDisconnectOptions>:

int CloudClass::publishVitals(system_tick_t period_s_) {
    return spark_publish_vitals(period_s_, nullptr);
}

void CloudClass::disconnect(const CloudDisconnectOptions& options) {
   d8bda:	b507      	push	{r0, r1, r2, lr}
    opts.size = sizeof(opts);
   d8bdc:	2308      	movs	r3, #8
   d8bde:	f8ad 3000 	strh.w	r3, [sp]
    opts.flags = flags_;
   d8be2:	6803      	ldr	r3, [r0, #0]
   d8be4:	f88d 3002 	strb.w	r3, [sp, #2]
    opts.graceful = graceful_;
   d8be8:	7a03      	ldrb	r3, [r0, #8]
   d8bea:	f88d 3003 	strb.w	r3, [sp, #3]
    const auto opts = options.toSystemOptions();
    spark_cloud_disconnect(&opts, nullptr /* reserved */);
   d8bee:	2100      	movs	r1, #0
    opts.timeout = timeout_;
   d8bf0:	6843      	ldr	r3, [r0, #4]
   d8bf2:	9301      	str	r3, [sp, #4]
    spark_cloud_disconnect(&opts, nullptr /* reserved */);
   d8bf4:	4668      	mov	r0, sp
   d8bf6:	f7ff fd65 	bl	d86c4 <spark_cloud_disconnect>
}
   d8bfa:	b003      	add	sp, #12
   d8bfc:	f85d fb04 	ldr.w	pc, [sp], #4

000d8c00 <_ZN10CloudClass20setDisconnectOptionsERK22CloudDisconnectOptions>:

void CloudClass::setDisconnectOptions(const CloudDisconnectOptions& options) {
   d8c00:	b507      	push	{r0, r1, r2, lr}
    opts.size = sizeof(opts);
   d8c02:	2308      	movs	r3, #8
   d8c04:	f8ad 3000 	strh.w	r3, [sp]
    opts.flags = flags_;
   d8c08:	6803      	ldr	r3, [r0, #0]
   d8c0a:	f88d 3002 	strb.w	r3, [sp, #2]
    opts.graceful = graceful_;
   d8c0e:	7a03      	ldrb	r3, [r0, #8]
   d8c10:	f88d 3003 	strb.w	r3, [sp, #3]
    opts.timeout = timeout_;
   d8c14:	6843      	ldr	r3, [r0, #4]
   d8c16:	9301      	str	r3, [sp, #4]
    const auto opts = options.toSystemOptions();
    spark_set_connection_property(SPARK_CLOUD_DISCONNECT_OPTIONS, 0 /* value */, &opts, nullptr /* reserved */);
   d8c18:	2300      	movs	r3, #0
   d8c1a:	466a      	mov	r2, sp
   d8c1c:	4619      	mov	r1, r3
   d8c1e:	2002      	movs	r0, #2
   d8c20:	f7ff fd40 	bl	d86a4 <spark_set_connection_property>
}
   d8c24:	b003      	add	sp, #12
   d8c26:	f85d fb04 	ldr.w	pc, [sp], #4

000d8c2a <_ZN8particle11PromiseBaseIbNS_6detail13FutureContextEE11fromDataPtrEPv>:
        // TODO: Use custom reference counting object to avoid unnecessary memory allocation
        return new detail::FutureImplPtr<ResultT, ContextT>(p_);
    }

    // Unwraps promise from an object pointer created via dataPtr() method
    static Promise<ResultT, ContextT> fromDataPtr(void* data) {
   d8c2a:	b573      	push	{r0, r1, r4, r5, r6, lr}
      __shared_ptr(const __shared_ptr&) noexcept = default;
   d8c2c:	460e      	mov	r6, r1
   d8c2e:	4604      	mov	r4, r0
   d8c30:	f856 3b04 	ldr.w	r3, [r6], #4
   d8c34:	9300      	str	r3, [sp, #0]
   d8c36:	460d      	mov	r5, r1
   d8c38:	a801      	add	r0, sp, #4
   d8c3a:	4631      	mov	r1, r6
   d8c3c:	f7ff fe21 	bl	d8882 <_ZNSt14__shared_countILN9__gnu_cxx12_Lock_policyE0EEC1ERKS2_>
	_Sp_counted_base<_Lp>* __tmp = __r._M_pi;
   d8c40:	9a01      	ldr	r2, [sp, #4]
	__shared_ptr(const __shared_ptr<_Yp, _Lp>& __r) noexcept
	: _M_ptr(__r._M_ptr), _M_refcount(__r._M_refcount)
	{ }

      __shared_ptr(__shared_ptr&& __r) noexcept
      : _M_ptr(__r._M_ptr), _M_refcount()
   d8c42:	9b00      	ldr	r3, [sp, #0]
	_M_pi = __tmp;
   d8c44:	6062      	str	r2, [r4, #4]
      : _M_ptr(__r._M_ptr), _M_refcount()
   d8c46:	6023      	str	r3, [r4, #0]
      ~__shared_ptr() = default;
   d8c48:	a801      	add	r0, sp, #4
	__r._M_pi = _M_pi;
   d8c4a:	2300      	movs	r3, #0
   d8c4c:	9301      	str	r3, [sp, #4]
      {
	_M_refcount._M_swap(__r._M_refcount);
	__r._M_ptr = 0;
   d8c4e:	9300      	str	r3, [sp, #0]
      ~__shared_ptr() = default;
   d8c50:	f7fc f81e 	bl	d4c90 <_ZNSt14__shared_countILN9__gnu_cxx12_Lock_policyE0EED1Ev>
   d8c54:	4630      	mov	r0, r6
   d8c56:	f7fc f81b 	bl	d4c90 <_ZNSt14__shared_countILN9__gnu_cxx12_Lock_policyE0EED1Ev>
        auto d = static_cast<detail::FutureImplPtr<ResultT, ContextT>*>(data);
        const Promise<ResultT, ContextT> p(*d);
        delete d;
   d8c5a:	4628      	mov	r0, r5
   d8c5c:	2108      	movs	r1, #8
   d8c5e:	f001 fbe0 	bl	da422 <_ZdlPvj>
        return p;
    }
   d8c62:	4620      	mov	r0, r4
   d8c64:	b002      	add	sp, #8
   d8c66:	bd70      	pop	{r4, r5, r6, pc}

000d8c68 <_ZNKSt8functionIFvRKN8particle5ErrorEEEclES3_>:
      if (_M_empty())
   d8c68:	6882      	ldr	r2, [r0, #8]
    function<_Res(_ArgTypes...)>::
   d8c6a:	b510      	push	{r4, lr}
      if (_M_empty())
   d8c6c:	b90a      	cbnz	r2, d8c72 <_ZNKSt8functionIFvRKN8particle5ErrorEEEclES3_+0xa>
	__throw_bad_function_call();
   d8c6e:	f001 fbde 	bl	da42e <_ZSt25__throw_bad_function_callv>
    }
   d8c72:	e8bd 4010 	ldmia.w	sp!, {r4, lr}
      return _M_invoker(_M_functor, std::forward<_ArgTypes>(__args)...);
   d8c76:	68c3      	ldr	r3, [r0, #12]
   d8c78:	4718      	bx	r3

000d8c7a <_ZNSt17_Function_handlerIFvvESt5_BindIFSt8functionIFvRKN8particle5ErrorEEES4_EEE9_M_invokeERKSt9_Any_data>:
      _M_invoke(const _Any_data& __functor, _ArgTypes&&... __args)
   d8c7a:	b508      	push	{r3, lr}
	    return __source._M_access<_Functor*>();
   d8c7c:	6800      	ldr	r0, [r0, #0]
    { return std::forward<_Fn>(__f)(std::forward<_Args>(__args)...); }
   d8c7e:	f100 0110 	add.w	r1, r0, #16
   d8c82:	f7ff fff1 	bl	d8c68 <_ZNKSt8functionIFvRKN8particle5ErrorEEEclES3_>
      }
   d8c86:	bd08      	pop	{r3, pc}

000d8c88 <_ZNKSt8functionIFvRKbEEclES1_>:
      if (_M_empty())
   d8c88:	6882      	ldr	r2, [r0, #8]
    function<_Res(_ArgTypes...)>::
   d8c8a:	b510      	push	{r4, lr}
      if (_M_empty())
   d8c8c:	b90a      	cbnz	r2, d8c92 <_ZNKSt8functionIFvRKbEEclES1_+0xa>
	__throw_bad_function_call();
   d8c8e:	f001 fbce 	bl	da42e <_ZSt25__throw_bad_function_callv>
    }
   d8c92:	e8bd 4010 	ldmia.w	sp!, {r4, lr}
      return _M_invoker(_M_functor, std::forward<_ArgTypes>(__args)...);
   d8c96:	68c3      	ldr	r3, [r0, #12]
   d8c98:	4718      	bx	r3

000d8c9a <_ZNSt17_Function_handlerIFvvESt5_BindIFSt8functionIFvRKbEEbEEE9_M_invokeERKSt9_Any_data>:
      _M_invoke(const _Any_data& __functor, _ArgTypes&&... __args)
   d8c9a:	b508      	push	{r3, lr}
	    return __source._M_access<_Functor*>();
   d8c9c:	6800      	ldr	r0, [r0, #0]
   d8c9e:	f100 0110 	add.w	r1, r0, #16
   d8ca2:	f7ff fff1 	bl	d8c88 <_ZNKSt8functionIFvRKbEEclES1_>
      }
   d8ca6:	bd08      	pop	{r3, pc}

000d8ca8 <_ZNSt14__shared_countILN9__gnu_cxx12_Lock_policyE0EEC1IPN8particle6detail10FutureImplIbNS5_13FutureContextEEEEET_>:
	__shared_count(_Ptr __p) : _M_pi(0)
   d8ca8:	b538      	push	{r3, r4, r5, lr}
   d8caa:	2300      	movs	r3, #0
   d8cac:	4604      	mov	r4, r0
   d8cae:	6003      	str	r3, [r0, #0]
	      _M_pi = new _Sp_counted_ptr<_Ptr, _Lp>(__p);
   d8cb0:	2010      	movs	r0, #16
	__shared_count(_Ptr __p) : _M_pi(0)
   d8cb2:	460d      	mov	r5, r1
	      _M_pi = new _Sp_counted_ptr<_Ptr, _Lp>(__p);
   d8cb4:	f7fb f9ef 	bl	d4096 <_Znwj>
   d8cb8:	b128      	cbz	r0, d8cc6 <_ZNSt14__shared_countILN9__gnu_cxx12_Lock_policyE0EEC1IPN8particle6detail10FutureImplIbNS5_13FutureContextEEEEET_+0x1e>
      : _M_use_count(1), _M_weak_count(1) { }
   d8cba:	2301      	movs	r3, #1
   d8cbc:	e9c0 3301 	strd	r3, r3, [r0, #4]
      : _M_ptr(__p) { }
   d8cc0:	4b02      	ldr	r3, [pc, #8]	; (d8ccc <_ZNSt14__shared_countILN9__gnu_cxx12_Lock_policyE0EEC1IPN8particle6detail10FutureImplIbNS5_13FutureContextEEEEET_+0x24>)
   d8cc2:	6003      	str	r3, [r0, #0]
   d8cc4:	60c5      	str	r5, [r0, #12]
	      _M_pi = new _Sp_counted_ptr<_Ptr, _Lp>(__p);
   d8cc6:	6020      	str	r0, [r4, #0]
	}
   d8cc8:	4620      	mov	r0, r4
   d8cca:	bd38      	pop	{r3, r4, r5, pc}
   d8ccc:	000db9c4 	.word	0x000db9c4

000d8cd0 <_ZNSt8functionIFvRKN8particle5ErrorEEEC1ERKS5_>:
    function<_Res(_ArgTypes...)>::
   d8cd0:	b538      	push	{r3, r4, r5, lr}
    _Function_base() : _M_manager(nullptr) { }
   d8cd2:	2300      	movs	r3, #0
   d8cd4:	6083      	str	r3, [r0, #8]
      { return !_M_empty(); }
   d8cd6:	688b      	ldr	r3, [r1, #8]
    function<_Res(_ArgTypes...)>::
   d8cd8:	4604      	mov	r4, r0
   d8cda:	460d      	mov	r5, r1
      if (static_cast<bool>(__x))
   d8cdc:	b12b      	cbz	r3, d8cea <_ZNSt8functionIFvRKN8particle5ErrorEEEC1ERKS5_+0x1a>
	  __x._M_manager(_M_functor, __x._M_functor, __clone_functor);
   d8cde:	2202      	movs	r2, #2
   d8ce0:	4798      	blx	r3
	  _M_invoker = __x._M_invoker;
   d8ce2:	68eb      	ldr	r3, [r5, #12]
   d8ce4:	60e3      	str	r3, [r4, #12]
	  _M_manager = __x._M_manager;
   d8ce6:	68ab      	ldr	r3, [r5, #8]
   d8ce8:	60a3      	str	r3, [r4, #8]
    }
   d8cea:	4620      	mov	r0, r4
   d8cec:	bd38      	pop	{r3, r4, r5, pc}
	...

000d8cf0 <_ZN8particle11PromiseBaseIbNS_6detail13FutureContextEE8setErrorENS_5ErrorE>:
    void setError(Error error) {
   d8cf0:	b5f0      	push	{r4, r5, r6, r7, lr}
   d8cf2:	b089      	sub	sp, #36	; 0x24
      { return static_cast<const __shared_ptr<_Tp, _Lp>*>(this)->get(); }
   d8cf4:	6804      	ldr	r4, [r0, #0]
        p_->setError(std::move(error));
   d8cf6:	4668      	mov	r0, sp
   d8cf8:	f7ff ff11 	bl	d8b1e <_ZN8particle5ErrorC1EOS0_>

      bool
      compare_exchange_strong(_Tp& __e, _Tp __i, memory_order __s,
			      memory_order __f) noexcept
      {
	return __atomic_compare_exchange(std::__addressof(_M_i),
   d8cfc:	f04f 0302 	mov.w	r3, #2
   d8d00:	e8d4 2f4f 	ldrexb	r2, [r4]
   d8d04:	2a00      	cmp	r2, #0
   d8d06:	d103      	bne.n	d8d10 <_ZN8particle11PromiseBaseIbNS_6detail13FutureContextEE8setErrorENS_5ErrorE+0x20>
   d8d08:	e8c4 3f41 	strexb	r1, r3, [r4]
   d8d0c:	2900      	cmp	r1, #0
   d8d0e:	d1f7      	bne.n	d8d00 <_ZN8particle11PromiseBaseIbNS_6detail13FutureContextEE8setErrorENS_5ErrorE+0x10>
        if (this->changeState(State::FAILED)) {
   d8d10:	d125      	bne.n	d8d5e <_ZN8particle11PromiseBaseIbNS_6detail13FutureContextEE8setErrorENS_5ErrorE+0x6e>
            new(&error_) Error(std::move(error));
   d8d12:	f104 050c 	add.w	r5, r4, #12
   d8d16:	4669      	mov	r1, sp
   d8d18:	4628      	mov	r0, r5
   d8d1a:	f7ff ff00 	bl	d8b1e <_ZN8particle5ErrorC1EOS0_>
	__atomic_store_n(&_M_i, __i, int(__m));
   d8d1e:	f3bf 8f5b 	dmb	ish
   d8d22:	2301      	movs	r3, #1
   d8d24:	7063      	strb	r3, [r4, #1]

      _GLIBCXX_ALWAYS_INLINE __pointer_type
      exchange(__pointer_type __p,
	       memory_order __m = memory_order_seq_cst) noexcept
      {
	return __atomic_exchange_n(&_M_p, __p, int(__m));
   d8d26:	2000      	movs	r0, #0
   d8d28:	f104 0308 	add.w	r3, r4, #8
   d8d2c:	f3bf 8f5b 	dmb	ish
   d8d30:	e853 6f00 	ldrex	r6, [r3]
   d8d34:	e843 0200 	strex	r2, r0, [r3]
   d8d38:	2a00      	cmp	r2, #0
   d8d3a:	d1f9      	bne.n	d8d30 <_ZN8particle11PromiseBaseIbNS_6detail13FutureContextEE8setErrorENS_5ErrorE+0x40>
   d8d3c:	f3bf 8f5b 	dmb	ish
        if (callbackPtr) {
   d8d40:	b16e      	cbz	r6, d8d5e <_ZN8particle11PromiseBaseIbNS_6detail13FutureContextEE8setErrorENS_5ErrorE+0x6e>
        return (application_thread_current(nullptr) != 0);
   d8d42:	f7ff fc05 	bl	d8550 <application_thread_current>
        if (ContextT::isApplicationThreadCurrent()) {
   d8d46:	b178      	cbz	r0, d8d68 <_ZN8particle11PromiseBaseIbNS_6detail13FutureContextEE8setErrorENS_5ErrorE+0x78>
            callback(std::forward<ArgsT>(args)...); // Synchronous call
   d8d48:	4629      	mov	r1, r5
   d8d4a:	4630      	mov	r0, r6
   d8d4c:	f7ff ff8c 	bl	d8c68 <_ZNKSt8functionIFvRKN8particle5ErrorEEEclES3_>
    class function<_Res(_ArgTypes...)>
   d8d50:	4630      	mov	r0, r6
   d8d52:	f7fd fbab 	bl	d64ac <_ZNSt14_Function_baseD1Ev>
            delete callbackPtr;
   d8d56:	2110      	movs	r1, #16
   d8d58:	4630      	mov	r0, r6
   d8d5a:	f001 fb62 	bl	da422 <_ZdlPvj>
        p_->setError(std::move(error));
   d8d5e:	4668      	mov	r0, sp
   d8d60:	f7ff feea 	bl	d8b38 <_ZN8particle5ErrorD1Ev>
    }
   d8d64:	b009      	add	sp, #36	; 0x24
   d8d66:	bdf0      	pop	{r4, r5, r6, r7, pc}
	  typename __cv_quals<_Bound_args>::type...>;

     public:
      template<typename... _Args>
	explicit _Bind(const _Functor& __f, _Args&&... __args)
	: _M_f(__f), _M_bound_args(std::forward<_Args>(__args)...)
   d8d68:	4631      	mov	r1, r6
   d8d6a:	a802      	add	r0, sp, #8
   d8d6c:	f7ff ffb0 	bl	d8cd0 <_ZNSt8functionIFvRKN8particle5ErrorEEEC1ERKS5_>
        Error(error.type_, error.msg_) {
   d8d70:	68e0      	ldr	r0, [r4, #12]
   d8d72:	f9b4 5010 	ldrsh.w	r5, [r4, #16]
        msg_(msg ? (const char*)strdup(msg) : nullptr),
   d8d76:	b108      	cbz	r0, d8d7c <_ZN8particle11PromiseBaseIbNS_6detail13FutureContextEE8setErrorENS_5ErrorE+0x8c>
   d8d78:	f002 f882 	bl	dae80 <strdup>
        type_(type) {
   d8d7c:	9006      	str	r0, [sp, #24]
            auto callbackPtr = new std::function<void()>(std::bind(callback, std::forward<ArgsT>(args)...));
   d8d7e:	2010      	movs	r0, #16
   d8d80:	f8ad 501c 	strh.w	r5, [sp, #28]
   d8d84:	f7fb f987 	bl	d4096 <_Znwj>
   d8d88:	4605      	mov	r5, r0
   d8d8a:	b1e8      	cbz	r0, d8dc8 <_ZN8particle11PromiseBaseIbNS_6detail13FutureContextEE8setErrorENS_5ErrorE+0xd8>
    _Function_base() : _M_manager(nullptr) { }
   d8d8c:	2700      	movs	r7, #0
   d8d8e:	6087      	str	r7, [r0, #8]
	{ __functor._M_access<_Functor*>() = new _Functor(std::move(__f)); }
   d8d90:	2018      	movs	r0, #24
   d8d92:	f7fb f980 	bl	d4096 <_Znwj>
   d8d96:	4604      	mov	r4, r0
   d8d98:	b188      	cbz	r0, d8dbe <_ZN8particle11PromiseBaseIbNS_6detail13FutureContextEE8setErrorENS_5ErrorE+0xce>
	std::swap(_M_functor, __x._M_functor);
   d8d9a:	4601      	mov	r1, r0
    _Function_base() : _M_manager(nullptr) { }
   d8d9c:	6087      	str	r7, [r0, #8]
	std::swap(_M_functor, __x._M_functor);
   d8d9e:	a802      	add	r0, sp, #8
   d8da0:	f7fe f923 	bl	d6fea <_ZSt4swapISt9_Any_dataENSt9enable_ifIXsrSt6__and_IJSt6__not_ISt15__is_tuple_likeIT_EESt21is_move_constructibleIS5_ESt18is_move_assignableIS5_EEE5valueEvE4typeERS5_SF_>
      _Tp __tmp = _GLIBCXX_MOVE(__a);
   d8da4:	9b04      	ldr	r3, [sp, #16]
      __a = _GLIBCXX_MOVE(__b);
   d8da6:	68a2      	ldr	r2, [r4, #8]
      __b = _GLIBCXX_MOVE(__tmp);
   d8da8:	60a3      	str	r3, [r4, #8]
      _Tp __tmp = _GLIBCXX_MOVE(__a);
   d8daa:	9b05      	ldr	r3, [sp, #20]
      __a = _GLIBCXX_MOVE(__b);
   d8dac:	9204      	str	r2, [sp, #16]
      constexpr _Head_base(const _Head_base&) = default;
      constexpr _Head_base(_Head_base&&) = default;

      template<typename _UHead>
        constexpr _Head_base(_UHead&& __h)
	: _M_head_impl(std::forward<_UHead>(__h)) { }
   d8dae:	a906      	add	r1, sp, #24
   d8db0:	68e2      	ldr	r2, [r4, #12]
      __b = _GLIBCXX_MOVE(__tmp);
   d8db2:	60e3      	str	r3, [r4, #12]
   d8db4:	f104 0010 	add.w	r0, r4, #16
      __a = _GLIBCXX_MOVE(__b);
   d8db8:	9205      	str	r2, [sp, #20]
   d8dba:	f7ff feb0 	bl	d8b1e <_ZN8particle5ErrorC1EOS0_>
	    _M_invoker = &_My_handler::_M_invoke;
   d8dbe:	4b08      	ldr	r3, [pc, #32]	; (d8de0 <_ZN8particle11PromiseBaseIbNS_6detail13FutureContextEE8setErrorENS_5ErrorE+0xf0>)
   d8dc0:	60eb      	str	r3, [r5, #12]
	    _M_manager = &_My_handler::_M_manager;
   d8dc2:	4b08      	ldr	r3, [pc, #32]	; (d8de4 <_ZN8particle11PromiseBaseIbNS_6detail13FutureContextEE8setErrorENS_5ErrorE+0xf4>)
	{ __functor._M_access<_Functor*>() = new _Functor(std::move(__f)); }
   d8dc4:	602c      	str	r4, [r5, #0]
	    _M_manager = &_My_handler::_M_manager;
   d8dc6:	60ab      	str	r3, [r5, #8]
    struct _Head_base<_Idx, _Head, false>
   d8dc8:	a806      	add	r0, sp, #24
   d8dca:	f7ff feb5 	bl	d8b38 <_ZN8particle5ErrorD1Ev>
    class function<_Res(_ArgTypes...)>
   d8dce:	a802      	add	r0, sp, #8
   d8dd0:	f7fd fb6c 	bl	d64ac <_ZNSt14_Function_baseD1Ev>
        return (application_thread_invoke(callback, data, nullptr) == 0);
   d8dd4:	2200      	movs	r2, #0
   d8dd6:	4629      	mov	r1, r5
   d8dd8:	4803      	ldr	r0, [pc, #12]	; (d8de8 <_ZN8particle11PromiseBaseIbNS_6detail13FutureContextEE8setErrorENS_5ErrorE+0xf8>)
   d8dda:	f7ff fbc1 	bl	d8560 <application_thread_invoke>
   d8dde:	e7b7      	b.n	d8d50 <_ZN8particle11PromiseBaseIbNS_6detail13FutureContextEE8setErrorENS_5ErrorE+0x60>
   d8de0:	000d8c7b 	.word	0x000d8c7b
   d8de4:	000d8f11 	.word	0x000d8f11
   d8de8:	000d884b 	.word	0x000d884b

000d8dec <_ZN10CloudClass13publish_eventEPKcS1_iN8particle5FlagsI15PublishFlagTypehEE>:
Future<bool> CloudClass::publish_event(const char *eventName, const char *eventData, int ttl, PublishFlags flags) {
   d8dec:	e92d 47f0 	stmdb	sp!, {r4, r5, r6, r7, r8, r9, sl, lr}
   d8df0:	b08a      	sub	sp, #40	; 0x28
   d8df2:	4605      	mov	r5, r0
   d8df4:	f89d 9048 	ldrb.w	r9, [sp, #72]	; 0x48
   d8df8:	460c      	mov	r4, r1
   d8dfa:	4617      	mov	r7, r2
   d8dfc:	4698      	mov	r8, r3
    static void sleep(Spark_Sleep_TypeDef sleepMode, long seconds=0) __attribute__ ((deprecated("Please use System.sleep() instead.")))
    { SystemClass::sleep(sleepMode, seconds); }
    static void sleep(uint16_t wakeUpPin, InterruptMode edgeTriggerMode, long seconds=0) __attribute__ ((deprecated("Please use System.sleep() instead.")))
    { SystemClass::sleep(wakeUpPin, edgeTriggerMode, seconds); }

    static bool connected(void) { return spark_cloud_flag_connected(); }
   d8dfe:	f7ff fc19 	bl	d8634 <spark_cloud_flag_connected>
   d8e02:	ae07      	add	r6, sp, #28
    if (!connected()) {
   d8e04:	4682      	mov	sl, r0
   d8e06:	bb38      	cbnz	r0, d8e58 <_ZN10CloudClass13publish_eventEPKcS1_iN8particle5FlagsI15PublishFlagTypehEE+0x6c>
        type_(type) {
   d8e08:	f64f 732e 	movw	r3, #65326	; 0xff2e
   d8e0c:	9005      	str	r0, [sp, #20]
    typedef typename detail::FutureImpl<ResultT, ContextT>::OnSuccessCallback OnSuccessCallback;
    typedef typename detail::FutureImpl<ResultT, ContextT>::OnErrorCallback OnErrorCallback;

    // Construct failed future
    explicit FutureBase(Error error) :
            p_(new detail::FutureImpl<ResultT, ContextT>(std::move(error))) {
   d8e0e:	a905      	add	r1, sp, #20
   d8e10:	4630      	mov	r0, r6
   d8e12:	f8ad 3018 	strh.w	r3, [sp, #24]
   d8e16:	f7ff fe82 	bl	d8b1e <_ZN8particle5ErrorC1EOS0_>
   d8e1a:	2014      	movs	r0, #20
   d8e1c:	f7fb f93b 	bl	d4096 <_Znwj>
   d8e20:	4604      	mov	r4, r0
   d8e22:	b148      	cbz	r0, d8e38 <_ZN10CloudClass13publish_eventEPKcS1_iN8particle5FlagsI15PublishFlagTypehEE+0x4c>
      constexpr atomic(_Tp __i) noexcept : _M_i(__i) { }
   d8e24:	2302      	movs	r3, #2
   d8e26:	7003      	strb	r3, [r0, #0]
      constexpr __atomic_base(__int_type __i) noexcept : _M_i (__i) { }
   d8e28:	2301      	movs	r3, #1
      constexpr __atomic_base(__pointer_type __p) noexcept : _M_p (__p) { }
   d8e2a:	e9c0 aa01 	strd	sl, sl, [r0, #4]
      constexpr __atomic_base(__int_type __i) noexcept : _M_i (__i) { }
   d8e2e:	7043      	strb	r3, [r0, #1]
            error_(std::move(error)) {
   d8e30:	4631      	mov	r1, r6
   d8e32:	300c      	adds	r0, #12
   d8e34:	f7ff fe73 	bl	d8b1e <_ZN8particle5ErrorC1EOS0_>
	: _M_ptr(__p), _M_refcount(__p, typename is_array<_Tp>::type())
   d8e38:	4628      	mov	r0, r5
	: __shared_count(__p)
   d8e3a:	4621      	mov	r1, r4
	: _M_ptr(__p), _M_refcount(__p, typename is_array<_Tp>::type())
   d8e3c:	f840 4b04 	str.w	r4, [r0], #4
	: __shared_count(__p)
   d8e40:	f7ff ff32 	bl	d8ca8 <_ZNSt14__shared_countILN9__gnu_cxx12_Lock_policyE0EEC1IPN8particle6detail10FutureImplIbNS5_13FutureContextEEEEET_>
            p_(new detail::FutureImpl<ResultT, ContextT>(std::move(error))) {
   d8e44:	4630      	mov	r0, r6
   d8e46:	f7ff fe77 	bl	d8b38 <_ZN8particle5ErrorD1Ev>
    }

    explicit FutureBase(Error::Type error) :
            FutureBase(Error(error)) {
   d8e4a:	a805      	add	r0, sp, #20
   d8e4c:	f7ff fe74 	bl	d8b38 <_ZN8particle5ErrorD1Ev>
}
   d8e50:	4628      	mov	r0, r5
   d8e52:	b00a      	add	sp, #40	; 0x28
   d8e54:	e8bd 87f0 	ldmia.w	sp!, {r4, r5, r6, r7, r8, r9, sl, pc}
    spark_send_event_data d = { sizeof(spark_send_event_data) };
   d8e58:	230c      	movs	r3, #12
   d8e5a:	f04f 0a00 	mov.w	sl, #0
            p_(new detail::FutureImpl<ResultT, ContextT>(State::RUNNING)) {
   d8e5e:	2014      	movs	r0, #20
   d8e60:	e9cd aa08 	strd	sl, sl, [sp, #32]
   d8e64:	9307      	str	r3, [sp, #28]
   d8e66:	f7fb f916 	bl	d4096 <_Znwj>
   d8e6a:	4601      	mov	r1, r0
   d8e6c:	b128      	cbz	r0, d8e7a <_ZN10CloudClass13publish_eventEPKcS1_iN8particle5FlagsI15PublishFlagTypehEE+0x8e>
      constexpr __atomic_base(__pointer_type __p) noexcept : _M_p (__p) { }
   d8e6e:	e9c0 aa01 	strd	sl, sl, [r0, #4]
   d8e72:	f880 a000 	strb.w	sl, [r0]
      constexpr __atomic_base(__int_type __i) noexcept : _M_i (__i) { }
   d8e76:	f880 a001 	strb.w	sl, [r0, #1]
   d8e7a:	a804      	add	r0, sp, #16
	: _M_ptr(__p), _M_refcount(__p, typename is_array<_Tp>::type())
   d8e7c:	9103      	str	r1, [sp, #12]
	: __shared_count(__p)
   d8e7e:	f7ff ff13 	bl	d8ca8 <_ZNSt14__shared_countILN9__gnu_cxx12_Lock_policyE0EEC1IPN8particle6detail10FutureImplIbNS5_13FutureContextEEEEET_>
    d.handler_callback = publishCompletionCallback;
   d8e82:	4b22      	ldr	r3, [pc, #136]	; (d8f0c <_ZN10CloudClass13publish_eventEPKcS1_iN8particle5FlagsI15PublishFlagTypehEE+0x120>)
   d8e84:	9308      	str	r3, [sp, #32]
        return new detail::FutureImplPtr<ResultT, ContextT>(p_);
   d8e86:	2008      	movs	r0, #8
   d8e88:	f7fb f905 	bl	d4096 <_Znwj>
   d8e8c:	4682      	mov	sl, r0
   d8e8e:	b128      	cbz	r0, d8e9c <_ZN10CloudClass13publish_eventEPKcS1_iN8particle5FlagsI15PublishFlagTypehEE+0xb0>
      __shared_ptr(const __shared_ptr&) noexcept = default;
   d8e90:	9b03      	ldr	r3, [sp, #12]
   d8e92:	f840 3b04 	str.w	r3, [r0], #4
   d8e96:	a904      	add	r1, sp, #16
   d8e98:	f7ff fcf3 	bl	d8882 <_ZNSt14__shared_countILN9__gnu_cxx12_Lock_policyE0EEC1ERKS2_>
    if (!spark_send_event(eventName, eventData, ttl, flags.value(), &d) && !p.isDone()) {
   d8e9c:	9600      	str	r6, [sp, #0]
   d8e9e:	fa5f f389 	uxtb.w	r3, r9
   d8ea2:	4642      	mov	r2, r8
   d8ea4:	4639      	mov	r1, r7
   d8ea6:	4620      	mov	r0, r4
    d.handler_data = p.dataPtr();
   d8ea8:	f8cd a024 	str.w	sl, [sp, #36]	; 0x24
    if (!spark_send_event(eventName, eventData, ttl, flags.value(), &d) && !p.isDone()) {
   d8eac:	f7ff fbd2 	bl	d8654 <spark_send_event>
   d8eb0:	b9b8      	cbnz	r0, d8ee2 <_ZN10CloudClass13publish_eventEPKcS1_iN8particle5FlagsI15PublishFlagTypehEE+0xf6>
	return __atomic_load_n(&_M_i, int(__m));
   d8eb2:	9b03      	ldr	r3, [sp, #12]
   d8eb4:	785b      	ldrb	r3, [r3, #1]
   d8eb6:	f003 02ff 	and.w	r2, r3, #255	; 0xff
   d8eba:	b993      	cbnz	r3, d8ee2 <_ZN10CloudClass13publish_eventEPKcS1_iN8particle5FlagsI15PublishFlagTypehEE+0xf6>
   d8ebc:	f64f 739c 	movw	r3, #65436	; 0xff9c
        p.setError(Error::UNKNOWN);
   d8ec0:	a905      	add	r1, sp, #20
   d8ec2:	a803      	add	r0, sp, #12
   d8ec4:	9205      	str	r2, [sp, #20]
   d8ec6:	f8ad 3018 	strh.w	r3, [sp, #24]
   d8eca:	f7ff ff11 	bl	d8cf0 <_ZN8particle11PromiseBaseIbNS_6detail13FutureContextEE8setErrorENS_5ErrorE>
   d8ece:	a805      	add	r0, sp, #20
   d8ed0:	f7ff fe32 	bl	d8b38 <_ZN8particle5ErrorD1Ev>
        p.fromDataPtr(d.handler_data); // Free wrapper object
   d8ed4:	a805      	add	r0, sp, #20
   d8ed6:	9909      	ldr	r1, [sp, #36]	; 0x24
   d8ed8:	f7ff fea7 	bl	d8c2a <_ZN8particle11PromiseBaseIbNS_6detail13FutureContextEE11fromDataPtrEPv>
      ~__shared_ptr() = default;
   d8edc:	a806      	add	r0, sp, #24
   d8ede:	f7fb fed7 	bl	d4c90 <_ZNSt14__shared_countILN9__gnu_cxx12_Lock_policyE0EED1Ev>
      __shared_ptr(const __shared_ptr&) noexcept = default;
   d8ee2:	9b03      	ldr	r3, [sp, #12]
   d8ee4:	9305      	str	r3, [sp, #20]
   d8ee6:	a904      	add	r1, sp, #16
   d8ee8:	a806      	add	r0, sp, #24
   d8eea:	f7ff fcca 	bl	d8882 <_ZNSt14__shared_countILN9__gnu_cxx12_Lock_policyE0EEC1ERKS2_>
      : _M_ptr(__r._M_ptr), _M_refcount()
   d8eee:	9b05      	ldr	r3, [sp, #20]
	_Sp_counted_base<_Lp>* __tmp = __r._M_pi;
   d8ef0:	9a06      	ldr	r2, [sp, #24]
      : _M_ptr(__r._M_ptr), _M_refcount()
   d8ef2:	602b      	str	r3, [r5, #0]
	_M_pi = __tmp;
   d8ef4:	606a      	str	r2, [r5, #4]
	__r._M_pi = _M_pi;
   d8ef6:	2300      	movs	r3, #0
      ~__shared_ptr() = default;
   d8ef8:	a806      	add	r0, sp, #24
	__r._M_pi = _M_pi;
   d8efa:	9306      	str	r3, [sp, #24]
	__r._M_ptr = 0;
   d8efc:	9305      	str	r3, [sp, #20]
      ~__shared_ptr() = default;
   d8efe:	f7fb fec7 	bl	d4c90 <_ZNSt14__shared_countILN9__gnu_cxx12_Lock_policyE0EED1Ev>
   d8f02:	a804      	add	r0, sp, #16
   d8f04:	f7fb fec4 	bl	d4c90 <_ZNSt14__shared_countILN9__gnu_cxx12_Lock_policyE0EED1Ev>
class Promise: public PromiseBase<ResultT, ContextT> {
   d8f08:	e7a2      	b.n	d8e50 <_ZN10CloudClass13publish_eventEPKcS1_iN8particle5FlagsI15PublishFlagTypehEE+0x64>
   d8f0a:	bf00      	nop
   d8f0c:	000d8fd5 	.word	0x000d8fd5

000d8f10 <_ZNSt14_Function_base13_Base_managerISt5_BindIFSt8functionIFvRKN8particle5ErrorEEES4_EEE10_M_managerERSt9_Any_dataRKSC_St18_Manager_operation>:
	  switch (__op)
   d8f10:	2a02      	cmp	r2, #2
	_M_manager(_Any_data& __dest, const _Any_data& __source,
   d8f12:	b5f8      	push	{r3, r4, r5, r6, r7, lr}
   d8f14:	4605      	mov	r5, r0
	  switch (__op)
   d8f16:	d007      	beq.n	d8f28 <_ZNSt14_Function_base13_Base_managerISt5_BindIFSt8functionIFvRKN8particle5ErrorEEES4_EEE10_M_managerERSt9_Any_dataRKSC_St18_Manager_operation+0x18>
   d8f18:	2a03      	cmp	r2, #3
   d8f1a:	d018      	beq.n	d8f4e <_ZNSt14_Function_base13_Base_managerISt5_BindIFSt8functionIFvRKN8particle5ErrorEEES4_EEE10_M_managerERSt9_Any_dataRKSC_St18_Manager_operation+0x3e>
   d8f1c:	2a01      	cmp	r2, #1
   d8f1e:	d101      	bne.n	d8f24 <_ZNSt14_Function_base13_Base_managerISt5_BindIFSt8functionIFvRKN8particle5ErrorEEES4_EEE10_M_managerERSt9_Any_dataRKSC_St18_Manager_operation+0x14>
	    return __source._M_access<_Functor*>();
   d8f20:	680b      	ldr	r3, [r1, #0]
	      __dest._M_access<_Functor*>() = _M_get_pointer(__source);
   d8f22:	6003      	str	r3, [r0, #0]
	}
   d8f24:	2000      	movs	r0, #0
   d8f26:	bdf8      	pop	{r3, r4, r5, r6, r7, pc}
	    new _Functor(*__source._M_access<const _Functor*>());
   d8f28:	2018      	movs	r0, #24
	  __dest._M_access<_Functor*>() =
   d8f2a:	680e      	ldr	r6, [r1, #0]
	    new _Functor(*__source._M_access<const _Functor*>());
   d8f2c:	f7fb f8b3 	bl	d4096 <_Znwj>
   d8f30:	4604      	mov	r4, r0
   d8f32:	b150      	cbz	r0, d8f4a <_ZNSt14_Function_base13_Base_managerISt5_BindIFSt8functionIFvRKN8particle5ErrorEEES4_EEE10_M_managerERSt9_Any_dataRKSC_St18_Manager_operation+0x3a>
      template<typename... _Args>
	explicit _Bind(_Functor&& __f, _Args&&... __args)
	: _M_f(std::move(__f)), _M_bound_args(std::forward<_Args>(__args)...)
	{ }

      _Bind(const _Bind&) = default;
   d8f34:	4631      	mov	r1, r6
   d8f36:	f7ff fecb 	bl	d8cd0 <_ZNSt8functionIFvRKN8particle5ErrorEEEC1ERKS5_>
        Error(error.type_, error.msg_) {
   d8f3a:	6930      	ldr	r0, [r6, #16]
   d8f3c:	f9b6 7014 	ldrsh.w	r7, [r6, #20]
        msg_(msg ? (const char*)strdup(msg) : nullptr),
   d8f40:	b108      	cbz	r0, d8f46 <_ZNSt14_Function_base13_Base_managerISt5_BindIFSt8functionIFvRKN8particle5ErrorEEES4_EEE10_M_managerERSt9_Any_dataRKSC_St18_Manager_operation+0x36>
   d8f42:	f001 ff9d 	bl	dae80 <strdup>
        type_(type) {
   d8f46:	6120      	str	r0, [r4, #16]
   d8f48:	82a7      	strh	r7, [r4, #20]
	  __dest._M_access<_Functor*>() =
   d8f4a:	602c      	str	r4, [r5, #0]
	}
   d8f4c:	e7ea      	b.n	d8f24 <_ZNSt14_Function_base13_Base_managerISt5_BindIFSt8functionIFvRKN8particle5ErrorEEES4_EEE10_M_managerERSt9_Any_dataRKSC_St18_Manager_operation+0x14>
	  delete __victim._M_access<_Functor*>();
   d8f4e:	6804      	ldr	r4, [r0, #0]
   d8f50:	2c00      	cmp	r4, #0
   d8f52:	d0e7      	beq.n	d8f24 <_ZNSt14_Function_base13_Base_managerISt5_BindIFSt8functionIFvRKN8particle5ErrorEEES4_EEE10_M_managerERSt9_Any_dataRKSC_St18_Manager_operation+0x14>
   d8f54:	f104 0010 	add.w	r0, r4, #16
   d8f58:	f7ff fdee 	bl	d8b38 <_ZN8particle5ErrorD1Ev>
    class function<_Res(_ArgTypes...)>
   d8f5c:	4620      	mov	r0, r4
   d8f5e:	f7fd faa5 	bl	d64ac <_ZNSt14_Function_baseD1Ev>
	  delete __victim._M_access<_Functor*>();
   d8f62:	2118      	movs	r1, #24
   d8f64:	4620      	mov	r0, r4
   d8f66:	f001 fa5c 	bl	da422 <_ZdlPvj>
   d8f6a:	e7db      	b.n	d8f24 <_ZNSt14_Function_base13_Base_managerISt5_BindIFSt8functionIFvRKN8particle5ErrorEEES4_EEE10_M_managerERSt9_Any_dataRKSC_St18_Manager_operation+0x14>

000d8f6c <_ZNSt8functionIFvRKbEEC1ERKS3_>:
    function<_Res(_ArgTypes...)>::
   d8f6c:	b538      	push	{r3, r4, r5, lr}
    _Function_base() : _M_manager(nullptr) { }
   d8f6e:	2300      	movs	r3, #0
   d8f70:	6083      	str	r3, [r0, #8]
      { return !_M_empty(); }
   d8f72:	688b      	ldr	r3, [r1, #8]
    function<_Res(_ArgTypes...)>::
   d8f74:	4604      	mov	r4, r0
   d8f76:	460d      	mov	r5, r1
      if (static_cast<bool>(__x))
   d8f78:	b12b      	cbz	r3, d8f86 <_ZNSt8functionIFvRKbEEC1ERKS3_+0x1a>
	  __x._M_manager(_M_functor, __x._M_functor, __clone_functor);
   d8f7a:	2202      	movs	r2, #2
   d8f7c:	4798      	blx	r3
	  _M_invoker = __x._M_invoker;
   d8f7e:	68eb      	ldr	r3, [r5, #12]
   d8f80:	60e3      	str	r3, [r4, #12]
	  _M_manager = __x._M_manager;
   d8f82:	68ab      	ldr	r3, [r5, #8]
   d8f84:	60a3      	str	r3, [r4, #8]
    }
   d8f86:	4620      	mov	r0, r4
   d8f88:	bd38      	pop	{r3, r4, r5, pc}

000d8f8a <_ZNSt14_Function_base13_Base_managerISt5_BindIFSt8functionIFvRKbEEbEEE10_M_managerERSt9_Any_dataRKSA_St18_Manager_operation>:
	  switch (__op)
   d8f8a:	2a02      	cmp	r2, #2
	_M_manager(_Any_data& __dest, const _Any_data& __source,
   d8f8c:	b570      	push	{r4, r5, r6, lr}
   d8f8e:	4604      	mov	r4, r0
	  switch (__op)
   d8f90:	d007      	beq.n	d8fa2 <_ZNSt14_Function_base13_Base_managerISt5_BindIFSt8functionIFvRKbEEbEEE10_M_managerERSt9_Any_dataRKSA_St18_Manager_operation+0x18>
   d8f92:	2a03      	cmp	r2, #3
   d8f94:	d012      	beq.n	d8fbc <_ZNSt14_Function_base13_Base_managerISt5_BindIFSt8functionIFvRKbEEbEEE10_M_managerERSt9_Any_dataRKSA_St18_Manager_operation+0x32>
   d8f96:	2a01      	cmp	r2, #1
   d8f98:	d101      	bne.n	d8f9e <_ZNSt14_Function_base13_Base_managerISt5_BindIFSt8functionIFvRKbEEbEEE10_M_managerERSt9_Any_dataRKSA_St18_Manager_operation+0x14>
	    return __source._M_access<_Functor*>();
   d8f9a:	680b      	ldr	r3, [r1, #0]
	      __dest._M_access<_Functor*>() = _M_get_pointer(__source);
   d8f9c:	6003      	str	r3, [r0, #0]
	}
   d8f9e:	2000      	movs	r0, #0
   d8fa0:	bd70      	pop	{r4, r5, r6, pc}
	    new _Functor(*__source._M_access<const _Functor*>());
   d8fa2:	2014      	movs	r0, #20
	  __dest._M_access<_Functor*>() =
   d8fa4:	680e      	ldr	r6, [r1, #0]
	    new _Functor(*__source._M_access<const _Functor*>());
   d8fa6:	f7fb f876 	bl	d4096 <_Znwj>
   d8faa:	4605      	mov	r5, r0
   d8fac:	b120      	cbz	r0, d8fb8 <_ZNSt14_Function_base13_Base_managerISt5_BindIFSt8functionIFvRKbEEbEEE10_M_managerERSt9_Any_dataRKSA_St18_Manager_operation+0x2e>
   d8fae:	4631      	mov	r1, r6
   d8fb0:	f7ff ffdc 	bl	d8f6c <_ZNSt8functionIFvRKbEEC1ERKS3_>
   d8fb4:	7c33      	ldrb	r3, [r6, #16]
   d8fb6:	742b      	strb	r3, [r5, #16]
	  __dest._M_access<_Functor*>() =
   d8fb8:	6025      	str	r5, [r4, #0]
	}
   d8fba:	e7f0      	b.n	d8f9e <_ZNSt14_Function_base13_Base_managerISt5_BindIFSt8functionIFvRKbEEbEEE10_M_managerERSt9_Any_dataRKSA_St18_Manager_operation+0x14>
	  delete __victim._M_access<_Functor*>();
   d8fbc:	6804      	ldr	r4, [r0, #0]
   d8fbe:	2c00      	cmp	r4, #0
   d8fc0:	d0ed      	beq.n	d8f9e <_ZNSt14_Function_base13_Base_managerISt5_BindIFSt8functionIFvRKbEEbEEE10_M_managerERSt9_Any_dataRKSA_St18_Manager_operation+0x14>
    class function<_Res(_ArgTypes...)>
   d8fc2:	4620      	mov	r0, r4
   d8fc4:	f7fd fa72 	bl	d64ac <_ZNSt14_Function_baseD1Ev>
	  delete __victim._M_access<_Functor*>();
   d8fc8:	2114      	movs	r1, #20
   d8fca:	4620      	mov	r0, r4
   d8fcc:	f001 fa29 	bl	da422 <_ZdlPvj>
   d8fd0:	e7e5      	b.n	d8f9e <_ZNSt14_Function_base13_Base_managerISt5_BindIFSt8functionIFvRKbEEbEEE10_M_managerERSt9_Any_dataRKSA_St18_Manager_operation+0x14>
	...

000d8fd4 <_ZN12_GLOBAL__N_125publishCompletionCallbackEiPKvPvS2_>:
void publishCompletionCallback(int error, const void* data, void* callbackData, void* reserved) {
   d8fd4:	b5f0      	push	{r4, r5, r6, r7, lr}
   d8fd6:	b089      	sub	sp, #36	; 0x24
   d8fd8:	4604      	mov	r4, r0
   d8fda:	460d      	mov	r5, r1
    auto p = Promise<bool>::fromDataPtr(callbackData);
   d8fdc:	a801      	add	r0, sp, #4
   d8fde:	4611      	mov	r1, r2
   d8fe0:	f7ff fe23 	bl	d8c2a <_ZN8particle11PromiseBaseIbNS_6detail13FutureContextEE11fromDataPtrEPv>
    if (error != Error::NONE) {
   d8fe4:	b1a4      	cbz	r4, d9010 <_ZN12_GLOBAL__N_125publishCompletionCallbackEiPKvPvS2_+0x3c>
        p.setError(Error((Error::Type)error, (const char*)data));
   d8fe6:	b224      	sxth	r4, r4
        msg_(msg ? (const char*)strdup(msg) : nullptr),
   d8fe8:	b11d      	cbz	r5, d8ff2 <_ZN12_GLOBAL__N_125publishCompletionCallbackEiPKvPvS2_+0x1e>
   d8fea:	4628      	mov	r0, r5
   d8fec:	f001 ff48 	bl	dae80 <strdup>
   d8ff0:	4605      	mov	r5, r0
   d8ff2:	a801      	add	r0, sp, #4
   d8ff4:	a903      	add	r1, sp, #12
        type_(type) {
   d8ff6:	9503      	str	r5, [sp, #12]
   d8ff8:	f8ad 4010 	strh.w	r4, [sp, #16]
   d8ffc:	f7ff fe78 	bl	d8cf0 <_ZN8particle11PromiseBaseIbNS_6detail13FutureContextEE8setErrorENS_5ErrorE>
   d9000:	a803      	add	r0, sp, #12
   d9002:	f7ff fd99 	bl	d8b38 <_ZN8particle5ErrorD1Ev>
   d9006:	a802      	add	r0, sp, #8
   d9008:	f7fb fe42 	bl	d4c90 <_ZNSt14__shared_countILN9__gnu_cxx12_Lock_policyE0EED1Ev>
}
   d900c:	b009      	add	sp, #36	; 0x24
   d900e:	bdf0      	pop	{r4, r5, r6, r7, pc}
      { return static_cast<const __shared_ptr<_Tp, _Lp>*>(this)->get(); }
   d9010:	9d01      	ldr	r5, [sp, #4]
	return __atomic_compare_exchange(std::__addressof(_M_i),
   d9012:	2301      	movs	r3, #1
   d9014:	e8d5 2f4f 	ldrexb	r2, [r5]
   d9018:	2a00      	cmp	r2, #0
   d901a:	d103      	bne.n	d9024 <_ZN12_GLOBAL__N_125publishCompletionCallbackEiPKvPvS2_+0x50>
   d901c:	e8c5 3f41 	strexb	r1, r3, [r5]
   d9020:	2900      	cmp	r1, #0
   d9022:	d1f7      	bne.n	d9014 <_ZN12_GLOBAL__N_125publishCompletionCallbackEiPKvPvS2_+0x40>
        if (this->changeState(State::SUCCEEDED)) {
   d9024:	d1ef      	bne.n	d9006 <_ZN12_GLOBAL__N_125publishCompletionCallbackEiPKvPvS2_+0x32>
            new(&result_) ResultT(std::move(result));
   d9026:	732b      	strb	r3, [r5, #12]
	__atomic_store_n(&_M_i, __i, int(__m));
   d9028:	f3bf 8f5b 	dmb	ish
   d902c:	706b      	strb	r3, [r5, #1]
	return __atomic_exchange_n(&_M_p, __p, int(__m));
   d902e:	1d2b      	adds	r3, r5, #4
   d9030:	f3bf 8f5b 	dmb	ish
   d9034:	e853 6f00 	ldrex	r6, [r3]
   d9038:	e843 4200 	strex	r2, r4, [r3]
   d903c:	2a00      	cmp	r2, #0
   d903e:	d1f9      	bne.n	d9034 <_ZN12_GLOBAL__N_125publishCompletionCallbackEiPKvPvS2_+0x60>
   d9040:	f3bf 8f5b 	dmb	ish
        if (callbackPtr) {
   d9044:	2e00      	cmp	r6, #0
   d9046:	d0de      	beq.n	d9006 <_ZN12_GLOBAL__N_125publishCompletionCallbackEiPKvPvS2_+0x32>
        return (application_thread_current(nullptr) != 0);
   d9048:	4620      	mov	r0, r4
   d904a:	f7ff fa81 	bl	d8550 <application_thread_current>
        if (ContextT::isApplicationThreadCurrent()) {
   d904e:	4607      	mov	r7, r0
   d9050:	b160      	cbz	r0, d906c <_ZN12_GLOBAL__N_125publishCompletionCallbackEiPKvPvS2_+0x98>
            callback(std::forward<ArgsT>(args)...); // Synchronous call
   d9052:	f105 010c 	add.w	r1, r5, #12
   d9056:	4630      	mov	r0, r6
   d9058:	f7ff fe16 	bl	d8c88 <_ZNKSt8functionIFvRKbEEclES1_>
    class function<_Res(_ArgTypes...)>
   d905c:	4630      	mov	r0, r6
   d905e:	f7fd fa25 	bl	d64ac <_ZNSt14_Function_baseD1Ev>
            delete callbackPtr;
   d9062:	2110      	movs	r1, #16
   d9064:	4630      	mov	r0, r6
   d9066:	f001 f9dc 	bl	da422 <_ZdlPvj>
   d906a:	e7cc      	b.n	d9006 <_ZN12_GLOBAL__N_125publishCompletionCallbackEiPKvPvS2_+0x32>
	: _M_f(__f), _M_bound_args(std::forward<_Args>(__args)...)
   d906c:	4631      	mov	r1, r6
   d906e:	a803      	add	r0, sp, #12
   d9070:	f7ff ff7c 	bl	d8f6c <_ZNSt8functionIFvRKbEEC1ERKS3_>
	: _M_head_impl(std::forward<_UHead>(__h)) { }
   d9074:	7b2b      	ldrb	r3, [r5, #12]
   d9076:	f88d 301c 	strb.w	r3, [sp, #28]
            auto callbackPtr = new std::function<void()>(std::bind(callback, std::forward<ArgsT>(args)...));
   d907a:	2010      	movs	r0, #16
   d907c:	f7fb f80b 	bl	d4096 <_Znwj>
   d9080:	4605      	mov	r5, r0
   d9082:	b1d0      	cbz	r0, d90ba <_ZN12_GLOBAL__N_125publishCompletionCallbackEiPKvPvS2_+0xe6>
    _Function_base() : _M_manager(nullptr) { }
   d9084:	6087      	str	r7, [r0, #8]
	{ __functor._M_access<_Functor*>() = new _Functor(std::move(__f)); }
   d9086:	2014      	movs	r0, #20
   d9088:	f7fb f805 	bl	d4096 <_Znwj>
   d908c:	4604      	mov	r4, r0
   d908e:	b178      	cbz	r0, d90b0 <_ZN12_GLOBAL__N_125publishCompletionCallbackEiPKvPvS2_+0xdc>
    _Function_base() : _M_manager(nullptr) { }
   d9090:	6087      	str	r7, [r0, #8]
	std::swap(_M_functor, __x._M_functor);
   d9092:	4601      	mov	r1, r0
   d9094:	a803      	add	r0, sp, #12
   d9096:	f7fd ffa8 	bl	d6fea <_ZSt4swapISt9_Any_dataENSt9enable_ifIXsrSt6__and_IJSt6__not_ISt15__is_tuple_likeIT_EESt21is_move_constructibleIS5_ESt18is_move_assignableIS5_EEE5valueEvE4typeERS5_SF_>
      _Tp __tmp = _GLIBCXX_MOVE(__a);
   d909a:	9b05      	ldr	r3, [sp, #20]
      __a = _GLIBCXX_MOVE(__b);
   d909c:	68a2      	ldr	r2, [r4, #8]
      __b = _GLIBCXX_MOVE(__tmp);
   d909e:	60a3      	str	r3, [r4, #8]
      _Tp __tmp = _GLIBCXX_MOVE(__a);
   d90a0:	9b06      	ldr	r3, [sp, #24]
      __a = _GLIBCXX_MOVE(__b);
   d90a2:	9205      	str	r2, [sp, #20]
   d90a4:	68e2      	ldr	r2, [r4, #12]
      __b = _GLIBCXX_MOVE(__tmp);
   d90a6:	60e3      	str	r3, [r4, #12]
   d90a8:	f89d 301c 	ldrb.w	r3, [sp, #28]
      __a = _GLIBCXX_MOVE(__b);
   d90ac:	9206      	str	r2, [sp, #24]
   d90ae:	7423      	strb	r3, [r4, #16]
	    _M_invoker = &_My_handler::_M_invoke;
   d90b0:	4b06      	ldr	r3, [pc, #24]	; (d90cc <_ZN12_GLOBAL__N_125publishCompletionCallbackEiPKvPvS2_+0xf8>)
   d90b2:	60eb      	str	r3, [r5, #12]
	    _M_manager = &_My_handler::_M_manager;
   d90b4:	4b06      	ldr	r3, [pc, #24]	; (d90d0 <_ZN12_GLOBAL__N_125publishCompletionCallbackEiPKvPvS2_+0xfc>)
	{ __functor._M_access<_Functor*>() = new _Functor(std::move(__f)); }
   d90b6:	602c      	str	r4, [r5, #0]
	    _M_manager = &_My_handler::_M_manager;
   d90b8:	60ab      	str	r3, [r5, #8]
    class function<_Res(_ArgTypes...)>
   d90ba:	a803      	add	r0, sp, #12
   d90bc:	f7fd f9f6 	bl	d64ac <_ZNSt14_Function_baseD1Ev>
        return (application_thread_invoke(callback, data, nullptr) == 0);
   d90c0:	2200      	movs	r2, #0
   d90c2:	4629      	mov	r1, r5
   d90c4:	4803      	ldr	r0, [pc, #12]	; (d90d4 <_ZN12_GLOBAL__N_125publishCompletionCallbackEiPKvPvS2_+0x100>)
   d90c6:	f7ff fa4b 	bl	d8560 <application_thread_invoke>
   d90ca:	e7c7      	b.n	d905c <_ZN12_GLOBAL__N_125publishCompletionCallbackEiPKvPvS2_+0x88>
   d90cc:	000d8c9b 	.word	0x000d8c9b
   d90d0:	000d8f8b 	.word	0x000d8f8b
   d90d4:	000d884b 	.word	0x000d884b

000d90d8 <_ZN5spark13EthernetClass9listeningEv>:
    uint16_t getListenTimeout(void) {
        return network_get_listen_timeout(*this, 0, NULL);
    }

    bool listening(void) {
        return network_listening(*this, 0, NULL);
   d90d8:	2200      	movs	r2, #0
   d90da:	6840      	ldr	r0, [r0, #4]
   d90dc:	4611      	mov	r1, r2
   d90de:	f7ff bb31 	b.w	d8744 <network_listening>

000d90e2 <_ZN5spark13EthernetClass16getListenTimeoutEv>:
        return network_get_listen_timeout(*this, 0, NULL);
   d90e2:	2200      	movs	r2, #0
   d90e4:	6840      	ldr	r0, [r0, #4]
   d90e6:	4611      	mov	r1, r2
   d90e8:	f7ff bb3c 	b.w	d8764 <network_get_listen_timeout>

000d90ec <_ZN5spark13EthernetClass16setListenTimeoutEt>:
        network_set_listen_timeout(*this, timeout, NULL);
   d90ec:	6840      	ldr	r0, [r0, #4]
   d90ee:	2200      	movs	r2, #0
   d90f0:	f7ff bb30 	b.w	d8754 <network_set_listen_timeout>

000d90f4 <_ZN5spark13EthernetClass6listenEb>:
        network_listen(*this, begin ? 0 : 1, NULL);
   d90f4:	6840      	ldr	r0, [r0, #4]
   d90f6:	2200      	movs	r2, #0
   d90f8:	f081 0101 	eor.w	r1, r1, #1
   d90fc:	f7ff bb1a 	b.w	d8734 <network_listen>

000d9100 <_ZN5spark13EthernetClass3offEv>:
        network_off(*this, 0, 0, NULL);
   d9100:	2300      	movs	r3, #0
   d9102:	6840      	ldr	r0, [r0, #4]
   d9104:	461a      	mov	r2, r3
   d9106:	4619      	mov	r1, r3
   d9108:	f7ff bb0c 	b.w	d8724 <network_off>

000d910c <_ZN5spark13EthernetClass2onEv>:
        network_on(*this, 0, 0, NULL);
   d910c:	2300      	movs	r3, #0
   d910e:	6840      	ldr	r0, [r0, #4]
   d9110:	461a      	mov	r2, r3
   d9112:	4619      	mov	r1, r3
   d9114:	f7ff bafe 	b.w	d8714 <network_on>

000d9118 <_ZN5spark13EthernetClass5readyEv>:
    }

    bool ready() {
        return network_ready(*this, 0,  NULL);
   d9118:	2200      	movs	r2, #0
   d911a:	6840      	ldr	r0, [r0, #4]
   d911c:	4611      	mov	r1, r2
   d911e:	f7ff baf1 	b.w	d8704 <network_ready>

000d9122 <_ZN5spark13EthernetClass10connectingEv>:
        return network_connecting(*this, 0, NULL);
   d9122:	2200      	movs	r2, #0
   d9124:	6840      	ldr	r0, [r0, #4]
   d9126:	4611      	mov	r1, r2
   d9128:	f7ff badc 	b.w	d86e4 <network_connecting>

000d912c <_ZN5spark13EthernetClass10disconnectEv>:
        network_disconnect(*this, NETWORK_DISCONNECT_REASON_USER, NULL);
   d912c:	6840      	ldr	r0, [r0, #4]
   d912e:	2200      	movs	r2, #0
   d9130:	2102      	movs	r1, #2
   d9132:	f7ff badf 	b.w	d86f4 <network_disconnect>

000d9136 <_ZN5spark13EthernetClass7connectEj>:
        network_connect(*this, flags, 0, NULL);
   d9136:	2300      	movs	r3, #0
   d9138:	6840      	ldr	r0, [r0, #4]
   d913a:	461a      	mov	r2, r3
   d913c:	f7ff baca 	b.w	d86d4 <network_connect>

000d9140 <_GLOBAL__sub_I__ZN5spark8EthernetE>:
   d9140:	4b02      	ldr	r3, [pc, #8]	; (d914c <_GLOBAL__sub_I__ZN5spark8EthernetE+0xc>)
   d9142:	2203      	movs	r2, #3
   d9144:	605a      	str	r2, [r3, #4]
            NetworkClass(NETWORK_INTERFACE_ETHERNET) {
   d9146:	4a02      	ldr	r2, [pc, #8]	; (d9150 <_GLOBAL__sub_I__ZN5spark8EthernetE+0x10>)
   d9148:	601a      	str	r2, [r3, #0]

namespace spark {

EthernetClass Ethernet;

} // spark
   d914a:	4770      	bx	lr
   d914c:	2003e61c 	.word	0x2003e61c
   d9150:	000db9e0 	.word	0x000db9e0

000d9154 <_ZN7TwoWireD1Ev>:
private:
  hal_i2c_interface_t _i2c;

public:
  TwoWire(hal_i2c_interface_t i2c, const hal_i2c_config_t& config);
  virtual ~TwoWire() {};
   d9154:	4770      	bx	lr

000d9156 <_ZN7TwoWire5writeEPKhj>:

// must be called in:
// slave tx event callback
// or after beginTransmission(address)
size_t TwoWire::write(const uint8_t *data, size_t quantity)
{
   d9156:	b5f8      	push	{r3, r4, r5, r6, r7, lr}
   d9158:	4606      	mov	r6, r0
   d915a:	4615      	mov	r5, r2
   d915c:	460c      	mov	r4, r1
   d915e:	188f      	adds	r7, r1, r2
  // in master/slave transmitter mode
  for(size_t i = 0; i < quantity; ++i)
   d9160:	42bc      	cmp	r4, r7
   d9162:	d006      	beq.n	d9172 <_ZN7TwoWire5writeEPKhj+0x1c>
  {
    write(data[i]);
   d9164:	6833      	ldr	r3, [r6, #0]
   d9166:	f814 1b01 	ldrb.w	r1, [r4], #1
   d916a:	689b      	ldr	r3, [r3, #8]
   d916c:	4630      	mov	r0, r6
   d916e:	4798      	blx	r3
  for(size_t i = 0; i < quantity; ++i)
   d9170:	e7f6      	b.n	d9160 <_ZN7TwoWire5writeEPKhj+0xa>
  }

  return quantity;
}
   d9172:	4628      	mov	r0, r5
   d9174:	bdf8      	pop	{r3, r4, r5, r6, r7, pc}

000d9176 <_ZN7TwoWire5writeEh>:
  return hal_i2c_write(_i2c, data, NULL);
   d9176:	7c00      	ldrb	r0, [r0, #16]
   d9178:	2200      	movs	r2, #0
   d917a:	f7ff b87f 	b.w	d827c <hal_i2c_write>

000d917e <_ZN7TwoWire9availableEv>:
// must be called in:
// slave rx event callback
// or after requestFrom(address, numBytes)
int TwoWire::available(void)
{
  return hal_i2c_available(_i2c, NULL);
   d917e:	7c00      	ldrb	r0, [r0, #16]
   d9180:	2100      	movs	r1, #0
   d9182:	f7ff b883 	b.w	d828c <hal_i2c_available>

000d9186 <_ZN7TwoWire4readEv>:
// must be called in:
// slave rx event callback
// or after requestFrom(address, numBytes)
int TwoWire::read(void)
{
  return hal_i2c_read(_i2c, NULL);
   d9186:	7c00      	ldrb	r0, [r0, #16]
   d9188:	2100      	movs	r1, #0
   d918a:	f7ff b887 	b.w	d829c <hal_i2c_read>

000d918e <_ZN7TwoWire4peekEv>:
// must be called in:
// slave rx event callback
// or after requestFrom(address, numBytes)
int TwoWire::peek(void)
{
  return hal_i2c_peek(_i2c, NULL);
   d918e:	7c00      	ldrb	r0, [r0, #16]
   d9190:	2100      	movs	r1, #0
   d9192:	f7ff b88b 	b.w	d82ac <hal_i2c_peek>

000d9196 <_ZN7TwoWire5flushEv>:
}

void TwoWire::flush(void)
{
  hal_i2c_flush(_i2c, NULL);
   d9196:	7c00      	ldrb	r0, [r0, #16]
   d9198:	2100      	movs	r1, #0
   d919a:	f7ff b88f 	b.w	d82bc <hal_i2c_flush>

000d919e <_ZN7TwoWireD0Ev>:
   d919e:	b510      	push	{r4, lr}
   d91a0:	2114      	movs	r1, #20
   d91a2:	4604      	mov	r4, r0
   d91a4:	f001 f93d 	bl	da422 <_ZdlPvj>
   d91a8:	4620      	mov	r0, r4
   d91aa:	bd10      	pop	{r4, pc}

000d91ac <_ZN7TwoWireC1E19hal_i2c_interface_tRK16hal_i2c_config_t>:
TwoWire::TwoWire(hal_i2c_interface_t i2c, const hal_i2c_config_t& conf)
   d91ac:	b510      	push	{r4, lr}
    virtual int available() = 0;
    virtual int read() = 0;
    virtual int peek() = 0;
    virtual void flush() = 0;

    Stream() {_timeout=1000;}
   d91ae:	f44f 737a 	mov.w	r3, #1000	; 0x3e8
   d91b2:	4604      	mov	r4, r0
   d91b4:	4608      	mov	r0, r1
   d91b6:	2100      	movs	r1, #0
   d91b8:	e9c4 1301 	strd	r1, r3, [r4, #4]
   d91bc:	4b03      	ldr	r3, [pc, #12]	; (d91cc <_ZN7TwoWireC1E19hal_i2c_interface_tRK16hal_i2c_config_t+0x20>)
   d91be:	6023      	str	r3, [r4, #0]
  _i2c = i2c;
   d91c0:	7420      	strb	r0, [r4, #16]
  hal_i2c_init(_i2c, &conf);
   d91c2:	4611      	mov	r1, r2
   d91c4:	f7ff f88a 	bl	d82dc <hal_i2c_init>
}
   d91c8:	4620      	mov	r0, r4
   d91ca:	bd10      	pop	{r4, pc}
   d91cc:	000dba14 	.word	0x000dba14

000d91d0 <_ZN7TwoWire5beginEv>:
	hal_i2c_begin(_i2c, I2C_MODE_MASTER, 0x00, NULL);
   d91d0:	2300      	movs	r3, #0
   d91d2:	7c00      	ldrb	r0, [r0, #16]
   d91d4:	461a      	mov	r2, r3
   d91d6:	4619      	mov	r1, r3
   d91d8:	f7ff b838 	b.w	d824c <hal_i2c_begin>

000d91dc <_ZN7TwoWire11requestFromERK16WireTransmission>:
size_t TwoWire::requestFrom(const WireTransmission& transfer) {
   d91dc:	b57f      	push	{r0, r1, r2, r3, r4, r5, r6, lr}
    hal_i2c_transmission_config_t conf = {
   d91de:	2200      	movs	r2, #0
   d91e0:	2314      	movs	r3, #20
   d91e2:	e9cd 2201 	strd	r2, r2, [sp, #4]
   d91e6:	f8ad 3004 	strh.w	r3, [sp, #4]
    };
   d91ea:	780b      	ldrb	r3, [r1, #0]
   d91ec:	f88d 3008 	strb.w	r3, [sp, #8]
   d91f0:	684b      	ldr	r3, [r1, #4]
   d91f2:	9303      	str	r3, [sp, #12]
   d91f4:	68cb      	ldr	r3, [r1, #12]
   d91f6:	9304      	str	r3, [sp, #16]
  return hal_i2c_request_ex(_i2c, &conf, nullptr);
   d91f8:	7c00      	ldrb	r0, [r0, #16]
      .flags = (uint32_t)(stop_ ? HAL_I2C_TRANSMISSION_FLAG_STOP : 0)
   d91fa:	7a0b      	ldrb	r3, [r1, #8]
   d91fc:	9305      	str	r3, [sp, #20]
   d91fe:	a901      	add	r1, sp, #4
   d9200:	f7ff f884 	bl	d830c <hal_i2c_request_ex>
}
   d9204:	b007      	add	sp, #28
   d9206:	f85d fb04 	ldr.w	pc, [sp], #4

000d920a <_ZN7TwoWire11requestFromEhjh>:
{
   d920a:	b51f      	push	{r0, r1, r2, r3, r4, lr}
  return requestFrom(WireTransmission(address).quantity(quantity).stop(sendStop));
   d920c:	3b00      	subs	r3, #0
        timeout_{HAL_I2C_DEFAULT_TIMEOUT_MS} {
   d920e:	f88d 1000 	strb.w	r1, [sp]
   d9212:	f04f 0164 	mov.w	r1, #100	; 0x64
   d9216:	9103      	str	r1, [sp, #12]
   d9218:	bf18      	it	ne
   d921a:	2301      	movne	r3, #1
   d921c:	4669      	mov	r1, sp
    size_ = size;
   d921e:	9201      	str	r2, [sp, #4]
   d9220:	f88d 3008 	strb.w	r3, [sp, #8]
   d9224:	f7ff ffda 	bl	d91dc <_ZN7TwoWire11requestFromERK16WireTransmission>
}
   d9228:	b005      	add	sp, #20
   d922a:	f85d fb04 	ldr.w	pc, [sp], #4

000d922e <_ZN7TwoWire17beginTransmissionEh>:
	hal_i2c_begin_transmission(_i2c, address, NULL);
   d922e:	7c00      	ldrb	r0, [r0, #16]
   d9230:	2200      	movs	r2, #0
   d9232:	f7ff b813 	b.w	d825c <hal_i2c_begin_transmission>

000d9236 <_ZN7TwoWire17beginTransmissionEi>:
  beginTransmission((uint8_t)address);
   d9236:	b2c9      	uxtb	r1, r1
   d9238:	f7ff bff9 	b.w	d922e <_ZN7TwoWire17beginTransmissionEh>

000d923c <_ZN7TwoWire15endTransmissionEh>:
	return hal_i2c_end_transmission(_i2c, sendStop, NULL);
   d923c:	7c00      	ldrb	r0, [r0, #16]
   d923e:	2200      	movs	r2, #0
   d9240:	f7ff b814 	b.w	d826c <hal_i2c_end_transmission>

000d9244 <_ZN7TwoWire4lockEv>:
{
  hal_i2c_reset(_i2c, 0, NULL);
}

bool TwoWire::lock()
{
   d9244:	b508      	push	{r3, lr}
  return hal_i2c_lock(_i2c, NULL) == 0;
   d9246:	2100      	movs	r1, #0
   d9248:	7c00      	ldrb	r0, [r0, #16]
   d924a:	f7ff f84f 	bl	d82ec <hal_i2c_lock>
}
   d924e:	fab0 f080 	clz	r0, r0
   d9252:	0940      	lsrs	r0, r0, #5
   d9254:	bd08      	pop	{r3, pc}

000d9256 <_ZN7TwoWire6unlockEv>:

bool TwoWire::unlock()
{
   d9256:	b508      	push	{r3, lr}
  return hal_i2c_unlock(_i2c, NULL) == 0;
   d9258:	2100      	movs	r1, #0
   d925a:	7c00      	ldrb	r0, [r0, #16]
   d925c:	f7ff f84e 	bl	d82fc <hal_i2c_unlock>
}
   d9260:	fab0 f080 	clz	r0, r0
   d9264:	0940      	lsrs	r0, r0, #5
   d9266:	bd08      	pop	{r3, pc}

000d9268 <_Z12noInterruptsv>:
 * Return         : None.
 *******************************************************************************/
void noInterrupts(void)
{
  //Only disable the interrupts that are exposed to the user
  HAL_Interrupts_Disable_All();
   d9268:	f7fe bfe8 	b.w	d823c <HAL_Interrupts_Disable_All>

000d926c <_Z10interruptsv>:
 * Return         : None.
 *******************************************************************************/
void interrupts(void)
{
  //Only enable the interrupts that are exposed to the user
  HAL_Interrupts_Enable_All();
   d926c:	f7fe bfde 	b.w	d822c <HAL_Interrupts_Enable_All>

000d9270 <_ZN9IPAddressD1Ev>:
    IPAddress(uint8_t first_octet, uint8_t second_octet, uint8_t third_octet, uint8_t fourth_octet);
    IPAddress(uint32_t address);
    IPAddress(const uint8_t* address);
    IPAddress(const HAL_IPAddress& address);

    virtual ~IPAddress() {}
   d9270:	4770      	bx	lr

000d9272 <_ZN9IPAddressD0Ev>:
   d9272:	b510      	push	{r4, lr}
   d9274:	2118      	movs	r1, #24
   d9276:	4604      	mov	r4, r0
   d9278:	f001 f8d3 	bl	da422 <_ZdlPvj>
   d927c:	4620      	mov	r0, r4
   d927e:	bd10      	pop	{r4, pc}

000d9280 <_ZNK9IPAddress7printToER5Print>:
#endif // Wiring_IPv6
	return address.ipv4==that.address.ipv4;
}

size_t IPAddress::printTo(Print& p) const
{
   d9280:	b5f0      	push	{r4, r5, r6, r7, lr}
#if Wiring_IPv6
#if HAL_USE_INET_HAL_POSIX
	if (address.v==6) {
   d9282:	7d03      	ldrb	r3, [r0, #20]
   d9284:	2b06      	cmp	r3, #6
{
   d9286:	b08d      	sub	sp, #52	; 0x34
   d9288:	460e      	mov	r6, r1
   d928a:	f100 0704 	add.w	r7, r0, #4
   d928e:	f04f 0400 	mov.w	r4, #0
	if (address.v==6) {
   d9292:	d012      	beq.n	d92ba <_ZNK9IPAddress7printToER5Print+0x3a>
   d9294:	f100 0508 	add.w	r5, r0, #8
        return printNumber(val, base) + t;
   d9298:	f815 1d01 	ldrb.w	r1, [r5, #-1]!
   d929c:	220a      	movs	r2, #10
   d929e:	4630      	mov	r0, r6
   d92a0:	f000 f943 	bl	d952a <_ZN5Print11printNumberEmh>
#else
#pragma message "HAL_USE_INET_HAL_POSIX is required for IPv6 support in IPAddress::printTo()"
#endif // HAL_USE_INET_HAL_POSIX
#endif // Wiring_IPv6
    size_t n = 0;
    for (int i = 0; i < 4; i++)
   d92a4:	42af      	cmp	r7, r5
    {
        if (n)
            n += p.print('.');
        n += p.print((*this)[i], DEC);
   d92a6:	4404      	add	r4, r0
    for (int i = 0; i < 4; i++)
   d92a8:	d019      	beq.n	d92de <_ZNK9IPAddress7printToER5Print+0x5e>
        if (n)
   d92aa:	2c00      	cmp	r4, #0
   d92ac:	d0f4      	beq.n	d9298 <_ZNK9IPAddress7printToER5Print+0x18>
            n += p.print('.');
   d92ae:	212e      	movs	r1, #46	; 0x2e
   d92b0:	4630      	mov	r0, r6
   d92b2:	f000 f92b 	bl	d950c <_ZN5Print5printEc>
   d92b6:	4404      	add	r4, r0
   d92b8:	e7ee      	b.n	d9298 <_ZNK9IPAddress7printToER5Print+0x18>
		inet_inet_ntop(AF_INET6, address.ipv6, buf, sizeof(buf));
   d92ba:	232f      	movs	r3, #47	; 0x2f
   d92bc:	466a      	mov	r2, sp
   d92be:	4639      	mov	r1, r7
   d92c0:	200a      	movs	r0, #10
		buf[0] = 0;
   d92c2:	f88d 4000 	strb.w	r4, [sp]
		inet_inet_ntop(AF_INET6, address.ipv6, buf, sizeof(buf));
   d92c6:	f7ff f829 	bl	d831c <inet_inet_ntop>
      return write((const uint8_t *)str, strlen(str));
   d92ca:	4668      	mov	r0, sp
   d92cc:	f001 fdf5 	bl	daeba <strlen>
   d92d0:	6833      	ldr	r3, [r6, #0]
   d92d2:	4602      	mov	r2, r0
   d92d4:	68db      	ldr	r3, [r3, #12]
   d92d6:	4669      	mov	r1, sp
   d92d8:	4630      	mov	r0, r6
   d92da:	4798      	blx	r3
   d92dc:	4604      	mov	r4, r0
    }
    return n;
}
   d92de:	4620      	mov	r0, r4
   d92e0:	b00d      	add	sp, #52	; 0x34
   d92e2:	bdf0      	pop	{r4, r5, r6, r7, pc}

000d92e4 <_ZN9IPAddressC1Ev>:
IPAddress::IPAddress()
   d92e4:	b510      	push	{r4, lr}
   d92e6:	4b05      	ldr	r3, [pc, #20]	; (d92fc <_ZN9IPAddressC1Ev+0x18>)
   d92e8:	4604      	mov	r4, r0
        return address;
    }

    virtual size_t printTo(Print& p) const;

    void clear() { memset(&address, 0, sizeof (address)); }
   d92ea:	2211      	movs	r2, #17
   d92ec:	f840 3b04 	str.w	r3, [r0], #4
   d92f0:	2100      	movs	r1, #0
   d92f2:	f001 fd87 	bl	dae04 <memset>
}
   d92f6:	4620      	mov	r0, r4
   d92f8:	bd10      	pop	{r4, pc}
   d92fa:	bf00      	nop
   d92fc:	000dba3c 	.word	0x000dba3c

000d9300 <_ZN9IPAddressC1ERK16_HAL_IPAddress_t>:
IPAddress::IPAddress(const HAL_IPAddress& address)
   d9300:	4603      	mov	r3, r0
   d9302:	4a07      	ldr	r2, [pc, #28]	; (d9320 <_ZN9IPAddressC1ERK16_HAL_IPAddress_t+0x20>)
   d9304:	b510      	push	{r4, lr}
   d9306:	f843 2b04 	str.w	r2, [r3], #4
    memcpy(&this->address, &address, sizeof(address));
   d930a:	f101 0210 	add.w	r2, r1, #16
   d930e:	f851 4b04 	ldr.w	r4, [r1], #4
   d9312:	f843 4b04 	str.w	r4, [r3], #4
   d9316:	4291      	cmp	r1, r2
   d9318:	d1f9      	bne.n	d930e <_ZN9IPAddressC1ERK16_HAL_IPAddress_t+0xe>
   d931a:	780a      	ldrb	r2, [r1, #0]
   d931c:	701a      	strb	r2, [r3, #0]
}
   d931e:	bd10      	pop	{r4, pc}
   d9320:	000dba3c 	.word	0x000dba3c

000d9324 <_ZN9IPAddress8set_ipv4Ehhhh>:
{
   d9324:	b510      	push	{r4, lr}
    address.ipv4 = b0<<24 | b1 << 16 | b2 << 8 | b3;
   d9326:	f89d 4008 	ldrb.w	r4, [sp, #8]
   d932a:	ea44 2303 	orr.w	r3, r4, r3, lsl #8
   d932e:	ea43 4202 	orr.w	r2, r3, r2, lsl #16
   d9332:	ea42 6101 	orr.w	r1, r2, r1, lsl #24
        address.v = version;
   d9336:	2304      	movs	r3, #4
   d9338:	6041      	str	r1, [r0, #4]
   d933a:	7503      	strb	r3, [r0, #20]
}
   d933c:	bd10      	pop	{r4, pc}

000d933e <_ZN9IPAddressaSEPKh>:
{
   d933e:	b513      	push	{r0, r1, r4, lr}
    set_ipv4(address[0], address[1], address[2], address[3]);
   d9340:	78cb      	ldrb	r3, [r1, #3]
   d9342:	9300      	str	r3, [sp, #0]
   d9344:	788b      	ldrb	r3, [r1, #2]
   d9346:	784a      	ldrb	r2, [r1, #1]
   d9348:	7809      	ldrb	r1, [r1, #0]
   d934a:	f7ff ffeb 	bl	d9324 <_ZN9IPAddress8set_ipv4Ehhhh>
}
   d934e:	b002      	add	sp, #8
   d9350:	bd10      	pop	{r4, pc}
	...

000d9354 <_GLOBAL__sub_I__ZN5spark3LogE>:
    // This handler doesn't support direct logging
}

// spark::Logger
inline spark::Logger::Logger(const char *name) :
        name_(name) {
   d9354:	4b01      	ldr	r3, [pc, #4]	; (d935c <_GLOBAL__sub_I__ZN5spark3LogE+0x8>)
   d9356:	4a02      	ldr	r2, [pc, #8]	; (d9360 <_GLOBAL__sub_I__ZN5spark3LogE+0xc>)
   d9358:	601a      	str	r2, [r3, #0]
#if Wiring_LogConfig

// spark::
void spark::logProcessControlRequest(ctrl_request* req) {
    JSONRequestHandler::process(req);
}
   d935a:	4770      	bx	lr
   d935c:	2003e624 	.word	0x2003e624
   d9360:	000dba48 	.word	0x000dba48

000d9364 <_ZN5spark12NetworkClass7connectEj>:
        return Network;
    }
}

void NetworkClass::connect(unsigned flags) {
    network_connect(*this, flags, 0, nullptr);
   d9364:	2300      	movs	r3, #0
   d9366:	6840      	ldr	r0, [r0, #4]
   d9368:	461a      	mov	r2, r3
   d936a:	f7ff b9b3 	b.w	d86d4 <network_connect>

000d936e <_ZN5spark12NetworkClass10disconnectEv>:
}

void NetworkClass::disconnect() {
    network_disconnect(*this, NETWORK_DISCONNECT_REASON_USER, nullptr);
   d936e:	6840      	ldr	r0, [r0, #4]
   d9370:	2200      	movs	r2, #0
   d9372:	2102      	movs	r1, #2
   d9374:	f7ff b9be 	b.w	d86f4 <network_disconnect>

000d9378 <_ZN5spark12NetworkClass10connectingEv>:
}

bool NetworkClass::connecting() {
    return network_connecting(*this, 0, nullptr);
   d9378:	2200      	movs	r2, #0
   d937a:	6840      	ldr	r0, [r0, #4]
   d937c:	4611      	mov	r1, r2
   d937e:	f7ff b9b1 	b.w	d86e4 <network_connecting>

000d9382 <_ZN5spark12NetworkClass5readyEv>:
}

bool NetworkClass::ready() {
    return network_ready(*this, 0, nullptr);
   d9382:	2200      	movs	r2, #0
   d9384:	6840      	ldr	r0, [r0, #4]
   d9386:	4611      	mov	r1, r2
   d9388:	f7ff b9bc 	b.w	d8704 <network_ready>

000d938c <_ZN5spark12NetworkClass2onEv>:
}

void NetworkClass::on() {
    network_on(*this, 0, 0, nullptr);
   d938c:	2300      	movs	r3, #0
   d938e:	6840      	ldr	r0, [r0, #4]
   d9390:	461a      	mov	r2, r3
   d9392:	4619      	mov	r1, r3
   d9394:	f7ff b9be 	b.w	d8714 <network_on>

000d9398 <_ZN5spark12NetworkClass3offEv>:
}

void NetworkClass::off() {
    network_off(*this, 0, 0, nullptr);
   d9398:	2300      	movs	r3, #0
   d939a:	6840      	ldr	r0, [r0, #4]
   d939c:	461a      	mov	r2, r3
   d939e:	4619      	mov	r1, r3
   d93a0:	f7ff b9c0 	b.w	d8724 <network_off>

000d93a4 <_ZN5spark12NetworkClass6listenEb>:
}

void NetworkClass::listen(bool begin) {
    network_listen(*this, begin ? 0 : 1, nullptr);
   d93a4:	6840      	ldr	r0, [r0, #4]
   d93a6:	2200      	movs	r2, #0
   d93a8:	f081 0101 	eor.w	r1, r1, #1
   d93ac:	f7ff b9c2 	b.w	d8734 <network_listen>

000d93b0 <_ZN5spark12NetworkClass16setListenTimeoutEt>:
}

void NetworkClass::setListenTimeout(uint16_t timeout) {
    network_set_listen_timeout(*this, timeout, nullptr);
   d93b0:	6840      	ldr	r0, [r0, #4]
   d93b2:	2200      	movs	r2, #0
   d93b4:	f7ff b9ce 	b.w	d8754 <network_set_listen_timeout>

000d93b8 <_ZN5spark12NetworkClass16getListenTimeoutEv>:
}

uint16_t NetworkClass::getListenTimeout() {
    return network_get_listen_timeout(*this, 0, nullptr);
   d93b8:	2200      	movs	r2, #0
   d93ba:	6840      	ldr	r0, [r0, #4]
   d93bc:	4611      	mov	r1, r2
   d93be:	f7ff b9d1 	b.w	d8764 <network_get_listen_timeout>

000d93c2 <_ZN5spark12NetworkClass9listeningEv>:
}

bool NetworkClass::listening() {
    return network_listening(*this, 0, nullptr);
   d93c2:	2200      	movs	r2, #0
   d93c4:	6840      	ldr	r0, [r0, #4]
   d93c6:	4611      	mov	r1, r2
   d93c8:	f7ff b9bc 	b.w	d8744 <network_listening>

000d93cc <_ZN5spark12NetworkClass7resolveEPKc>:
}

IPAddress NetworkClass::resolve(const char* name) {
   d93cc:	e92d 43f0 	stmdb	sp!, {r4, r5, r6, r7, r8, r9, lr}
    IPAddress addr;
#if HAL_USE_INET_HAL_POSIX
    struct addrinfo *ai = nullptr;
   d93d0:	2400      	movs	r4, #0
IPAddress NetworkClass::resolve(const char* name) {
   d93d2:	b095      	sub	sp, #84	; 0x54
   d93d4:	4616      	mov	r6, r2
   d93d6:	460d      	mov	r5, r1
   d93d8:	4607      	mov	r7, r0
    IPAddress addr;
   d93da:	f7ff ff83 	bl	d92e4 <_ZN9IPAddressC1Ev>
    struct addrinfo hints = {};
   d93de:	4621      	mov	r1, r4
   d93e0:	2218      	movs	r2, #24
   d93e2:	a80e      	add	r0, sp, #56	; 0x38
    struct addrinfo *ai = nullptr;
   d93e4:	9400      	str	r4, [sp, #0]
    struct addrinfo hints = {};
   d93e6:	f001 fd0d 	bl	dae04 <memset>
    hints.ai_flags = AI_ADDRCONFIG;
   d93ea:	2340      	movs	r3, #64	; 0x40
    hints.ai_family = AF_UNSPEC;
   d93ec:	e9cd 340c 	strd	r3, r4, [sp, #48]	; 0x30
    const int r = getaddrinfo(name, nullptr, &hints, &ai);
   d93f0:	4621      	mov	r1, r4
   d93f2:	466b      	mov	r3, sp
   d93f4:	aa0c      	add	r2, sp, #48	; 0x30
   d93f6:	4630      	mov	r0, r6
   d93f8:	f7fe ffa0 	bl	d833c <netdb_getaddrinfo>
    if (!r) {
   d93fc:	4604      	mov	r4, r0
   d93fe:	2800      	cmp	r0, #0
   d9400:	d146      	bne.n	d9490 <_ZN5spark12NetworkClass7resolveEPKc+0xc4>
        bool ok = false;
        // This is not really needed if AI_ADDRCONFIG is properly supported
        bool ipv4 = network_ready(*this, NETWORK_READY_TYPE_IPV4, nullptr);
   d9402:	4602      	mov	r2, r0
   d9404:	2101      	movs	r1, #1
   d9406:	6868      	ldr	r0, [r5, #4]
   d9408:	f7ff f97c 	bl	d8704 <network_ready>
        bool ipv6 = network_ready(*this, NETWORK_READY_TYPE_IPV6, nullptr);
   d940c:	2102      	movs	r1, #2
        bool ipv4 = network_ready(*this, NETWORK_READY_TYPE_IPV4, nullptr);
   d940e:	4680      	mov	r8, r0
        bool ipv6 = network_ready(*this, NETWORK_READY_TYPE_IPV6, nullptr);
   d9410:	4622      	mov	r2, r4
   d9412:	6868      	ldr	r0, [r5, #4]
   d9414:	f7ff f976 	bl	d8704 <network_ready>
        for (auto cur = ai; cur != nullptr && !ok; cur = cur->ai_next) {
   d9418:	9e00      	ldr	r6, [sp, #0]
        bool ipv6 = network_ready(*this, NETWORK_READY_TYPE_IPV6, nullptr);
   d941a:	4681      	mov	r9, r0
        bool ok = false;
   d941c:	4621      	mov	r1, r4
        for (auto cur = ai; cur != nullptr && !ok; cur = cur->ai_next) {
   d941e:	2e00      	cmp	r6, #0
   d9420:	d036      	beq.n	d9490 <_ZN5spark12NetworkClass7resolveEPKc+0xc4>
   d9422:	2900      	cmp	r1, #0
   d9424:	d134      	bne.n	d9490 <_ZN5spark12NetworkClass7resolveEPKc+0xc4>
            // NOTE: using only the first entry that matches the current state of IPv4/IPv6 connectivity
            switch (cur->ai_family) {
   d9426:	6873      	ldr	r3, [r6, #4]
   d9428:	2b02      	cmp	r3, #2
   d942a:	d003      	beq.n	d9434 <_ZN5spark12NetworkClass7resolveEPKc+0x68>
   d942c:	2b0a      	cmp	r3, #10
   d942e:	d00b      	beq.n	d9448 <_ZN5spark12NetworkClass7resolveEPKc+0x7c>
        for (auto cur = ai; cur != nullptr && !ok; cur = cur->ai_next) {
   d9430:	69f6      	ldr	r6, [r6, #28]
   d9432:	e7f4      	b.n	d941e <_ZN5spark12NetworkClass7resolveEPKc+0x52>
                case AF_INET: {
                    if (!ipv4) {
   d9434:	f1b8 0f00 	cmp.w	r8, #0
   d9438:	d004      	beq.n	d9444 <_ZN5spark12NetworkClass7resolveEPKc+0x78>
                        continue;
                    }
                    // NOTE: HAL_IPAddress is little-endian
                    auto in = (struct sockaddr_in*)cur->ai_addr;
                    addr = (const uint8_t*)(&in->sin_addr.s_addr);
   d943a:	6971      	ldr	r1, [r6, #20]
   d943c:	4638      	mov	r0, r7
   d943e:	3104      	adds	r1, #4
   d9440:	f7ff ff7d 	bl	d933e <_ZN9IPAddressaSEPKh>
                    ok = true;
                    break;
   d9444:	4641      	mov	r1, r8
   d9446:	e7f3      	b.n	d9430 <_ZN5spark12NetworkClass7resolveEPKc+0x64>
                }
                case AF_INET6: {
                    if (!ipv6) {
   d9448:	f1b9 0f00 	cmp.w	r9, #0
   d944c:	d101      	bne.n	d9452 <_ZN5spark12NetworkClass7resolveEPKc+0x86>
                    auto in6 = (struct sockaddr_in6*)cur->ai_addr;
                    HAL_IPAddress a = {};
                    a.v = 6;
                    memcpy(a.ipv6, in6->sin6_addr.s6_addr, sizeof(a.ipv6));
                    addr = IPAddress(a);
                    ok = true;
   d944e:	4649      	mov	r1, r9
   d9450:	e7ee      	b.n	d9430 <_ZN5spark12NetworkClass7resolveEPKc+0x64>
                    auto in6 = (struct sockaddr_in6*)cur->ai_addr;
   d9452:	6974      	ldr	r4, [r6, #20]
                    HAL_IPAddress a = {};
   d9454:	2210      	movs	r2, #16
   d9456:	a801      	add	r0, sp, #4
   d9458:	f001 fcd4 	bl	dae04 <memset>
                    a.v = 6;
   d945c:	2306      	movs	r3, #6
   d945e:	f88d 3014 	strb.w	r3, [sp, #20]
                    memcpy(a.ipv6, in6->sin6_addr.s6_addr, sizeof(a.ipv6));
   d9462:	ad01      	add	r5, sp, #4
   d9464:	f104 0308 	add.w	r3, r4, #8
   d9468:	3418      	adds	r4, #24
   d946a:	6818      	ldr	r0, [r3, #0]
   d946c:	6859      	ldr	r1, [r3, #4]
   d946e:	462a      	mov	r2, r5
   d9470:	c203      	stmia	r2!, {r0, r1}
   d9472:	3308      	adds	r3, #8
   d9474:	42a3      	cmp	r3, r4
   d9476:	4615      	mov	r5, r2
   d9478:	d1f7      	bne.n	d946a <_ZN5spark12NetworkClass7resolveEPKc+0x9e>
                    addr = IPAddress(a);
   d947a:	a901      	add	r1, sp, #4
   d947c:	a806      	add	r0, sp, #24
class IPAddress : public Printable {
   d947e:	ad07      	add	r5, sp, #28
   d9480:	f7ff ff3e 	bl	d9300 <_ZN9IPAddressC1ERK16_HAL_IPAddress_t>
   d9484:	cd0f      	ldmia	r5!, {r0, r1, r2, r3}
   d9486:	1d3c      	adds	r4, r7, #4
   d9488:	c40f      	stmia	r4!, {r0, r1, r2, r3}
   d948a:	682b      	ldr	r3, [r5, #0]
   d948c:	7023      	strb	r3, [r4, #0]
   d948e:	e7de      	b.n	d944e <_ZN5spark12NetworkClass7resolveEPKc+0x82>
                    break;
                }
            }
        }
    }
    freeaddrinfo(ai);
   d9490:	9800      	ldr	r0, [sp, #0]
   d9492:	f7fe ff4b 	bl	d832c <netdb_freeaddrinfo>
    return Cellular.resolve(name);
#endif // Wiring_Cellular

#endif // HAL_USE_INET_HAL_POSIX
    return addr;
}
   d9496:	4638      	mov	r0, r7
   d9498:	b015      	add	sp, #84	; 0x54
   d949a:	e8bd 83f0 	ldmia.w	sp!, {r4, r5, r6, r7, r8, r9, pc}
	...

000d94a0 <_GLOBAL__sub_I__ZN5spark7NetworkE>:
   d94a0:	4b02      	ldr	r3, [pc, #8]	; (d94ac <_GLOBAL__sub_I__ZN5spark7NetworkE+0xc>)
   d94a2:	4a03      	ldr	r2, [pc, #12]	; (d94b0 <_GLOBAL__sub_I__ZN5spark7NetworkE+0x10>)
   d94a4:	601a      	str	r2, [r3, #0]
   d94a6:	2200      	movs	r2, #0
   d94a8:	605a      	str	r2, [r3, #4]

} // spark
   d94aa:	4770      	bx	lr
   d94ac:	2003e628 	.word	0x2003e628
   d94b0:	000dba54 	.word	0x000dba54

000d94b4 <_ZN5Print5writeEPKhj>:

// Public Methods //////////////////////////////////////////////////////////////

/* default implementation: may be overridden */
size_t Print::write(const uint8_t *buffer, size_t size)
{
   d94b4:	b5f8      	push	{r3, r4, r5, r6, r7, lr}
   d94b6:	4606      	mov	r6, r0
   d94b8:	460d      	mov	r5, r1
  size_t n = 0;
   d94ba:	188f      	adds	r7, r1, r2
   d94bc:	2400      	movs	r4, #0
  while (size--) {
   d94be:	42bd      	cmp	r5, r7
   d94c0:	d00c      	beq.n	d94dc <_ZN5Print5writeEPKhj+0x28>
     int chunk = write(*buffer++);
   d94c2:	6833      	ldr	r3, [r6, #0]
   d94c4:	f815 1b01 	ldrb.w	r1, [r5], #1
   d94c8:	689b      	ldr	r3, [r3, #8]
   d94ca:	4630      	mov	r0, r6
   d94cc:	4798      	blx	r3
     if (chunk>=0)
   d94ce:	1e03      	subs	r3, r0, #0
   d94d0:	db01      	blt.n	d94d6 <_ZN5Print5writeEPKhj+0x22>
         n += chunk;
   d94d2:	441c      	add	r4, r3
  while (size--) {
   d94d4:	e7f3      	b.n	d94be <_ZN5Print5writeEPKhj+0xa>
     int chunk = write(*buffer++);
   d94d6:	2c00      	cmp	r4, #0
   d94d8:	bf08      	it	eq
   d94da:	461c      	moveq	r4, r3
             n = chunk;
         break;
     }
  }
  return n;
}
   d94dc:	4620      	mov	r0, r4
   d94de:	bdf8      	pop	{r3, r4, r5, r6, r7, pc}

000d94e0 <_ZN5Print5writeEPKc>:
    size_t write(const char *str) {
   d94e0:	b513      	push	{r0, r1, r4, lr}
   d94e2:	4604      	mov	r4, r0
    }
   d94e4:	4608      	mov	r0, r1
      if (str == NULL) return 0;
   d94e6:	b159      	cbz	r1, d9500 <_ZN5Print5writeEPKc+0x20>
      return write((const uint8_t *)str, strlen(str));
   d94e8:	9101      	str	r1, [sp, #4]
   d94ea:	f001 fce6 	bl	daeba <strlen>
   d94ee:	6823      	ldr	r3, [r4, #0]
   d94f0:	9901      	ldr	r1, [sp, #4]
   d94f2:	68db      	ldr	r3, [r3, #12]
   d94f4:	4602      	mov	r2, r0
   d94f6:	4620      	mov	r0, r4
    }
   d94f8:	b002      	add	sp, #8
   d94fa:	e8bd 4010 	ldmia.w	sp!, {r4, lr}
      return write((const uint8_t *)str, strlen(str));
   d94fe:	4718      	bx	r3
    }
   d9500:	b002      	add	sp, #8
   d9502:	bd10      	pop	{r4, pc}

000d9504 <_ZN5Print5printEPKc>:

size_t Print::print(const char str[])
{
   d9504:	b508      	push	{r3, lr}
  return write(str);
   d9506:	f7ff ffeb 	bl	d94e0 <_ZN5Print5writeEPKc>
}
   d950a:	bd08      	pop	{r3, pc}

000d950c <_ZN5Print5printEc>:

size_t Print::print(char c)
{
  return write(c);
   d950c:	6803      	ldr	r3, [r0, #0]
   d950e:	689b      	ldr	r3, [r3, #8]
   d9510:	4718      	bx	r3

000d9512 <_ZN5Print7printlnEv>:
{
  return print(reinterpret_cast<const char*>(str));
}

size_t Print::println(void)
{
   d9512:	b538      	push	{r3, r4, r5, lr}
  size_t n = print('\r');
   d9514:	210d      	movs	r1, #13
{
   d9516:	4605      	mov	r5, r0
  size_t n = print('\r');
   d9518:	f7ff fff8 	bl	d950c <_ZN5Print5printEc>
  n += print('\n');
   d951c:	210a      	movs	r1, #10
  size_t n = print('\r');
   d951e:	4604      	mov	r4, r0
  n += print('\n');
   d9520:	4628      	mov	r0, r5
   d9522:	f7ff fff3 	bl	d950c <_ZN5Print5printEc>
  return n;
}
   d9526:	4420      	add	r0, r4
   d9528:	bd38      	pop	{r3, r4, r5, pc}

000d952a <_ZN5Print11printNumberEmh>:
  return println(reinterpret_cast<const char*>(str));
}

// Private Methods /////////////////////////////////////////////////////////////

size_t Print::printNumber(unsigned long n, uint8_t base) {
   d952a:	b530      	push	{r4, r5, lr}
   d952c:	b08b      	sub	sp, #44	; 0x2c
  char buf[8 * sizeof(n) + 1]; // Assumes 8-bit chars plus zero byte.
  char *str = &buf[sizeof(buf) - 1];

  *str = '\0';
   d952e:	2300      	movs	r3, #0
   d9530:	f88d 3024 	strb.w	r3, [sp, #36]	; 0x24

  // prevent crash if called with base == 1
  if (base < 2) base = 10;
   d9534:	2a01      	cmp	r2, #1
   d9536:	bf98      	it	ls
   d9538:	220a      	movls	r2, #10
   d953a:	ac09      	add	r4, sp, #36	; 0x24

  do {
   decltype(n) m = n;
   n /= base;
   d953c:	460d      	mov	r5, r1
   d953e:	fbb1 f1f2 	udiv	r1, r1, r2
   char c = m - base * n;
   d9542:	fb01 5312 	mls	r3, r1, r2, r5
   d9546:	f003 03ff 	and.w	r3, r3, #255	; 0xff
   *--str = c < 10 ? c + '0' : c + 'A' - 10;
   d954a:	2b09      	cmp	r3, #9
   d954c:	bf94      	ite	ls
   d954e:	3330      	addls	r3, #48	; 0x30
   d9550:	3337      	addhi	r3, #55	; 0x37
   d9552:	b2db      	uxtb	r3, r3
  } while(n);
   d9554:	42aa      	cmp	r2, r5
   *--str = c < 10 ? c + '0' : c + 'A' - 10;
   d9556:	f804 3d01 	strb.w	r3, [r4, #-1]!
  } while(n);
   d955a:	d9ef      	bls.n	d953c <_ZN5Print11printNumberEmh+0x12>

  return write(str);
   d955c:	4621      	mov	r1, r4
   d955e:	f7ff ffbf 	bl	d94e0 <_ZN5Print5writeEPKc>
}
   d9562:	b00b      	add	sp, #44	; 0x2c
   d9564:	bd30      	pop	{r4, r5, pc}

000d9566 <_ZN5Print7vprintfEbPKcSt9__va_list>:

  return n;
}

size_t Print::vprintf(bool newline, const char* format, va_list args)
{
   d9566:	e92d 41f0 	stmdb	sp!, {r4, r5, r6, r7, r8, lr}
   d956a:	b086      	sub	sp, #24
   d956c:	af00      	add	r7, sp, #0
   d956e:	4605      	mov	r5, r0
   d9570:	460e      	mov	r6, r1
    const int bufsize = 20;
    char test[bufsize];
    va_list args2;
    va_copy(args2, args);
    size_t n = vsnprintf(test, bufsize, format, args);
   d9572:	1d38      	adds	r0, r7, #4
   d9574:	2114      	movs	r1, #20
{
   d9576:	4614      	mov	r4, r2
    va_copy(args2, args);
   d9578:	603b      	str	r3, [r7, #0]
    size_t n = vsnprintf(test, bufsize, format, args);
   d957a:	f7ff f923 	bl	d87c4 <vsnprintf>

    if (n<bufsize)
   d957e:	2813      	cmp	r0, #19
   d9580:	d80e      	bhi.n	d95a0 <_ZN5Print7vprintfEbPKcSt9__va_list+0x3a>
  return write(str);
   d9582:	1d39      	adds	r1, r7, #4
   d9584:	4628      	mov	r0, r5
   d9586:	f7ff ffab 	bl	d94e0 <_ZN5Print5writeEPKc>
   d958a:	4604      	mov	r4, r0
    {
        char bigger[n+1];
        n = vsnprintf(bigger, n+1, format, args2);
        n = print(bigger);
    }
    if (newline)
   d958c:	b11e      	cbz	r6, d9596 <_ZN5Print7vprintfEbPKcSt9__va_list+0x30>
        n += println();
   d958e:	4628      	mov	r0, r5
   d9590:	f7ff ffbf 	bl	d9512 <_ZN5Print7printlnEv>
   d9594:	4404      	add	r4, r0

    va_end(args2);
    return n;
}
   d9596:	4620      	mov	r0, r4
   d9598:	3718      	adds	r7, #24
   d959a:	46bd      	mov	sp, r7
   d959c:	e8bd 81f0 	ldmia.w	sp!, {r4, r5, r6, r7, r8, pc}
        char bigger[n+1];
   d95a0:	f100 0308 	add.w	r3, r0, #8
   d95a4:	f023 0307 	bic.w	r3, r3, #7
        n = print(bigger);
   d95a8:	46e8      	mov	r8, sp
        char bigger[n+1];
   d95aa:	ebad 0d03 	sub.w	sp, sp, r3
        n = vsnprintf(bigger, n+1, format, args2);
   d95ae:	4622      	mov	r2, r4
   d95b0:	1c41      	adds	r1, r0, #1
   d95b2:	683b      	ldr	r3, [r7, #0]
   d95b4:	4668      	mov	r0, sp
   d95b6:	f7ff f905 	bl	d87c4 <vsnprintf>
  return write(str);
   d95ba:	4669      	mov	r1, sp
   d95bc:	4628      	mov	r0, r5
   d95be:	f7ff ff8f 	bl	d94e0 <_ZN5Print5writeEPKc>
   d95c2:	4604      	mov	r4, r0
   d95c4:	46c5      	mov	sp, r8
   d95c6:	e7e1      	b.n	d958c <_ZN5Print7vprintfEbPKcSt9__va_list+0x26>

000d95c8 <_ZN8RGBClassD1Ev>:
#include "rgbled.h"

typedef void (raw_rgb_change_handler_t)(uint8_t, uint8_t, uint8_t);
typedef std::function<raw_rgb_change_handler_t> wiring_rgb_change_handler_t;

class RGBClass {
   d95c8:	b510      	push	{r4, lr}
   d95ca:	4604      	mov	r4, r0
   d95cc:	f7fc ff6e 	bl	d64ac <_ZNSt14_Function_baseD1Ev>
   d95d0:	4620      	mov	r0, r4
   d95d2:	bd10      	pop	{r4, pc}

000d95d4 <_GLOBAL__sub_I_RGB>:
    _Function_base() : _M_manager(nullptr) { }
   d95d4:	4803      	ldr	r0, [pc, #12]	; (d95e4 <_GLOBAL__sub_I_RGB+0x10>)
#include "spark_wiring_rgb.h"
#include "spark_wiring_interrupts.h"

#include "core_hal.h"

RGBClass RGB;
   d95d6:	4a04      	ldr	r2, [pc, #16]	; (d95e8 <_GLOBAL__sub_I_RGB+0x14>)
   d95d8:	4904      	ldr	r1, [pc, #16]	; (d95ec <_GLOBAL__sub_I_RGB+0x18>)
   d95da:	2300      	movs	r3, #0
   d95dc:	6083      	str	r3, [r0, #8]
   d95de:	f000 bf1b 	b.w	da418 <__aeabi_atexit>
   d95e2:	bf00      	nop
   d95e4:	2003e630 	.word	0x2003e630
   d95e8:	2003e1f8 	.word	0x2003e1f8
   d95ec:	000d95c9 	.word	0x000d95c9

000d95f0 <_ZN8SPIClass4lockEv.isra.0>:
  }

  int lock()
  {
#if HAL_PLATFORM_SPI_HAL_THREAD_SAFETY
    return hal_spi_acquire(_spi, nullptr);
   d95f0:	2100      	movs	r1, #0
   d95f2:	f7fe bedb 	b.w	d83ac <hal_spi_acquire>

000d95f6 <_ZN8SPIClass6unlockEv.isra.0>:
  }

  void unlock()
  {
#if HAL_PLATFORM_SPI_HAL_THREAD_SAFETY
    hal_spi_release(_spi, nullptr);
   d95f6:	2100      	movs	r1, #0
   d95f8:	f7fe bee0 	b.w	d83bc <hal_spi_release>

000d95fc <_ZN8SPIClassC1E19hal_spi_interface_t>:
    }
    return particle::SPISettings(info->clock, info->bit_order, info->data_mode);
}
} // namespace

SPIClass::SPIClass(hal_spi_interface_t spi)
   d95fc:	b510      	push	{r4, lr}
   d95fe:	4604      	mov	r4, r0
   d9600:	4608      	mov	r0, r1
{
    _spi = spi;
   d9602:	7021      	strb	r1, [r4, #0]
    hal_spi_init(_spi);
   d9604:	f7fe feb2 	bl	d836c <hal_spi_init>
    _dividerReference = SPI_CLK_SYSTEM; // 0 indicates the system clock
   d9608:	2300      	movs	r3, #0
   d960a:	6063      	str	r3, [r4, #4]
}
   d960c:	4620      	mov	r0, r4
   d960e:	bd10      	pop	{r4, pc}

000d9610 <_ZN8SPIClass5beginEt>:
        unlock();
    }
}

void SPIClass::begin(uint16_t ss_pin)
{
   d9610:	b513      	push	{r0, r1, r4, lr}
   d9612:	4604      	mov	r4, r0
    if (!lock())
   d9614:	7800      	ldrb	r0, [r0, #0]
{
   d9616:	9101      	str	r1, [sp, #4]
    if (!lock())
   d9618:	f7ff ffea 	bl	d95f0 <_ZN8SPIClass4lockEv.isra.0>
   d961c:	9901      	ldr	r1, [sp, #4]
   d961e:	b940      	cbnz	r0, d9632 <_ZN8SPIClass5beginEt+0x22>
    {
        hal_spi_begin(_spi, ss_pin);
   d9620:	7820      	ldrb	r0, [r4, #0]
   d9622:	f7fe fe93 	bl	d834c <hal_spi_begin>
        unlock();
   d9626:	7820      	ldrb	r0, [r4, #0]
    }
}
   d9628:	b002      	add	sp, #8
   d962a:	e8bd 4010 	ldmia.w	sp!, {r4, lr}
        unlock();
   d962e:	f7ff bfe2 	b.w	d95f6 <_ZN8SPIClass6unlockEv.isra.0>
}
   d9632:	b002      	add	sp, #8
   d9634:	bd10      	pop	{r4, pc}

000d9636 <_ZN8SPIClass14endTransactionEv>:
}

void SPIClass::endTransaction()
{
    // Release peripheral
    unlock();
   d9636:	7800      	ldrb	r0, [r0, #0]
   d9638:	f7ff bfdd 	b.w	d95f6 <_ZN8SPIClass6unlockEv.isra.0>

000d963c <_ZN8SPIClass19computeClockDividerEjjRhRj>:
void SPIClass::computeClockDivider(unsigned reference, unsigned targetSpeed, uint8_t& divider,
                                   unsigned& clock)
{
    clock = reference;
    uint8_t scale = 0;
    clock >>= 1; // div2 is the first
   d963c:	0840      	lsrs	r0, r0, #1
{
   d963e:	b530      	push	{r4, r5, lr}
    clock >>= 1; // div2 is the first
   d9640:	6018      	str	r0, [r3, #0]
   d9642:	2400      	movs	r4, #0
    while (clock > targetSpeed && scale < 7)
   d9644:	6818      	ldr	r0, [r3, #0]
   d9646:	4288      	cmp	r0, r1
   d9648:	b2e5      	uxtb	r5, r4
   d964a:	d906      	bls.n	d965a <_ZN8SPIClass19computeClockDividerEjjRhRj+0x1e>
   d964c:	3401      	adds	r4, #1
   d964e:	2c08      	cmp	r4, #8
   d9650:	d002      	beq.n	d9658 <_ZN8SPIClass19computeClockDividerEjjRhRj+0x1c>
    {
        clock >>= 1;
   d9652:	0840      	lsrs	r0, r0, #1
   d9654:	6018      	str	r0, [r3, #0]
    while (clock > targetSpeed && scale < 7)
   d9656:	e7f5      	b.n	d9644 <_ZN8SPIClass19computeClockDividerEjjRhRj+0x8>
   d9658:	2507      	movs	r5, #7
        scale++;
    }
    divider = clock_divisors[scale];
   d965a:	4b02      	ldr	r3, [pc, #8]	; (d9664 <_ZN8SPIClass19computeClockDividerEjjRhRj+0x28>)
   d965c:	5d5b      	ldrb	r3, [r3, r5]
   d965e:	7013      	strb	r3, [r2, #0]
}
   d9660:	bd30      	pop	{r4, r5, pc}
   d9662:	bf00      	nop
   d9664:	000dba80 	.word	0x000dba80

000d9668 <_ZN8SPIClass16beginTransactionERKN8particle11SPISettingsE>:
{
   d9668:	e92d 43f0 	stmdb	sp!, {r4, r5, r6, r7, r8, r9, lr}
   d966c:	4606      	mov	r6, r0
   d966e:	b08f      	sub	sp, #60	; 0x3c
    CHECK(lock());
   d9670:	7800      	ldrb	r0, [r0, #0]
{
   d9672:	460d      	mov	r5, r1
    CHECK(lock());
   d9674:	f7ff ffbc 	bl	d95f0 <_ZN8SPIClass4lockEv.isra.0>
   d9678:	2800      	cmp	r0, #0
   d967a:	db1b      	blt.n	d96b4 <_ZN8SPIClass16beginTransactionERKN8particle11SPISettingsE+0x4c>
    querySpiInfo(_spi, &spi_info);
   d967c:	7834      	ldrb	r4, [r6, #0]
    memset(info, 0, sizeof(hal_spi_info_t));
   d967e:	2214      	movs	r2, #20
   d9680:	2100      	movs	r1, #0
   d9682:	a809      	add	r0, sp, #36	; 0x24
   d9684:	f001 fbbe 	bl	dae04 <memset>
    info->version = HAL_SPI_INFO_VERSION_1;
   d9688:	230b      	movs	r3, #11
    hal_spi_info(spi, info, nullptr);
   d968a:	2200      	movs	r2, #0
   d968c:	a909      	add	r1, sp, #36	; 0x24
   d968e:	4620      	mov	r0, r4
    info->version = HAL_SPI_INFO_VERSION_1;
   d9690:	f8ad 3024 	strh.w	r3, [sp, #36]	; 0x24
    hal_spi_info(spi, info, nullptr);
   d9694:	f7fe fe7a 	bl	d838c <hal_spi_info>
    if (!info || !info->enabled || info->default_settings)
   d9698:	f89d 302d 	ldrb.w	r3, [sp, #45]	; 0x2d
   d969c:	b113      	cbz	r3, d96a4 <_ZN8SPIClass16beginTransactionERKN8particle11SPISettingsE+0x3c>
   d969e:	f89d 402c 	ldrb.w	r4, [sp, #44]	; 0x2c
   d96a2:	b154      	cbz	r4, d96ba <_ZN8SPIClass16beginTransactionERKN8particle11SPISettingsE+0x52>
  {
   d96a4:	2700      	movs	r7, #0
   d96a6:	46b9      	mov	r9, r7
   d96a8:	46b8      	mov	r8, r7
   d96aa:	2401      	movs	r4, #1
    if (default_ && other.default_)
   d96ac:	792b      	ldrb	r3, [r5, #4]
   d96ae:	b15c      	cbz	r4, d96c8 <_ZN8SPIClass16beginTransactionERKN8particle11SPISettingsE+0x60>
   d96b0:	b1c3      	cbz	r3, d96e4 <_ZN8SPIClass16beginTransactionERKN8particle11SPISettingsE+0x7c>
    return 0;
   d96b2:	2000      	movs	r0, #0
}
   d96b4:	b00f      	add	sp, #60	; 0x3c
   d96b6:	e8bd 83f0 	ldmia.w	sp!, {r4, r5, r6, r7, r8, r9, pc}
    return particle::SPISettings(info->clock, info->bit_order, info->data_mode);
   d96ba:	f8dd 8030 	ldr.w	r8, [sp, #48]	; 0x30
   d96be:	f89d 9034 	ldrb.w	r9, [sp, #52]	; 0x34
   d96c2:	f89d 7035 	ldrb.w	r7, [sp, #53]	; 0x35
  }
   d96c6:	e7f1      	b.n	d96ac <_ZN8SPIClass16beginTransactionERKN8particle11SPISettingsE+0x44>
    if (default_ == other.default_ &&
   d96c8:	2b00      	cmp	r3, #0
   d96ca:	d135      	bne.n	d9738 <_ZN8SPIClass16beginTransactionERKN8particle11SPISettingsE+0xd0>
   d96cc:	68ab      	ldr	r3, [r5, #8]
   d96ce:	4543      	cmp	r3, r8
   d96d0:	d108      	bne.n	d96e4 <_ZN8SPIClass16beginTransactionERKN8particle11SPISettingsE+0x7c>
        bitOrder_ == other.bitOrder_ &&
   d96d2:	f88d 9020 	strb.w	r9, [sp, #32]
   d96d6:	f88d 7021 	strb.w	r7, [sp, #33]	; 0x21
   d96da:	f8bd 2020 	ldrh.w	r2, [sp, #32]
   d96de:	89ab      	ldrh	r3, [r5, #12]
   d96e0:	429a      	cmp	r2, r3
   d96e2:	d0e6      	beq.n	d96b2 <_ZN8SPIClass16beginTransactionERKN8particle11SPISettingsE+0x4a>
            uint8_t divisor = 0;
   d96e4:	2300      	movs	r3, #0
            computeClockDivider((unsigned int)spi_info.system_clock, settings.clock_, divisor,
   d96e6:	68a9      	ldr	r1, [r5, #8]
            uint8_t divisor = 0;
   d96e8:	f88d 300f 	strb.w	r3, [sp, #15]
            computeClockDivider((unsigned int)spi_info.system_clock, settings.clock_, divisor,
   d96ec:	980a      	ldr	r0, [sp, #40]	; 0x28
   d96ee:	ab04      	add	r3, sp, #16
   d96f0:	f10d 020f 	add.w	r2, sp, #15
   d96f4:	f7ff ffa2 	bl	d963c <_ZN8SPIClass19computeClockDividerEjjRhRj>
    if (default_ && other.default_)
   d96f8:	7929      	ldrb	r1, [r5, #4]
   d96fa:	b984      	cbnz	r4, d971e <_ZN8SPIClass16beginTransactionERKN8particle11SPISettingsE+0xb6>
    if (default_ == other.default_ &&
   d96fc:	b989      	cbnz	r1, d9722 <_ZN8SPIClass16beginTransactionERKN8particle11SPISettingsE+0xba>
   d96fe:	68ab      	ldr	r3, [r5, #8]
   d9700:	4543      	cmp	r3, r8
   d9702:	d30e      	bcc.n	d9722 <_ZN8SPIClass16beginTransactionERKN8particle11SPISettingsE+0xba>
        bitOrder_ == other.bitOrder_ &&
   d9704:	f88d 9020 	strb.w	r9, [sp, #32]
   d9708:	f88d 7021 	strb.w	r7, [sp, #33]	; 0x21
   d970c:	f8bd 2020 	ldrh.w	r2, [sp, #32]
   d9710:	89ab      	ldrh	r3, [r5, #12]
   d9712:	429a      	cmp	r2, r3
   d9714:	d105      	bne.n	d9722 <_ZN8SPIClass16beginTransactionERKN8particle11SPISettingsE+0xba>
            if (!(spi_settings <= settings && clock == spi_settings.clock_))
   d9716:	9b04      	ldr	r3, [sp, #16]
   d9718:	4543      	cmp	r3, r8
   d971a:	d102      	bne.n	d9722 <_ZN8SPIClass16beginTransactionERKN8particle11SPISettingsE+0xba>
   d971c:	e7c9      	b.n	d96b2 <_ZN8SPIClass16beginTransactionERKN8particle11SPISettingsE+0x4a>
    if (default_ && other.default_)
   d971e:	2900      	cmp	r1, #0
   d9720:	d1f9      	bne.n	d9716 <_ZN8SPIClass16beginTransactionERKN8particle11SPISettingsE+0xae>
                hal_spi_set_settings(_spi, settings.default_, divisor, settings.bitOrder_,
   d9722:	2300      	movs	r3, #0
   d9724:	9301      	str	r3, [sp, #4]
   d9726:	7b6b      	ldrb	r3, [r5, #13]
   d9728:	9300      	str	r3, [sp, #0]
   d972a:	f89d 200f 	ldrb.w	r2, [sp, #15]
   d972e:	7b2b      	ldrb	r3, [r5, #12]
            hal_spi_set_settings(_spi, settings.default_, 0, 0, 0, nullptr);
   d9730:	7830      	ldrb	r0, [r6, #0]
   d9732:	f7fe fe33 	bl	d839c <hal_spi_set_settings>
   d9736:	e7bc      	b.n	d96b2 <_ZN8SPIClass16beginTransactionERKN8particle11SPISettingsE+0x4a>
   d9738:	e9cd 4400 	strd	r4, r4, [sp]
   d973c:	4623      	mov	r3, r4
   d973e:	4622      	mov	r2, r4
   d9740:	2101      	movs	r1, #1
   d9742:	e7f5      	b.n	d9730 <_ZN8SPIClass16beginTransactionERKN8particle11SPISettingsE+0xc8>

000d9744 <_ZN8SPIClass8transferEh>:

    return clock;
}

byte SPIClass::transfer(byte _data)
{
   d9744:	b508      	push	{r3, lr}
    return static_cast<byte>(hal_spi_transfer(_spi, _data));
   d9746:	7800      	ldrb	r0, [r0, #0]
   d9748:	f7fe fe08 	bl	d835c <hal_spi_transfer>
}
   d974c:	b2c0      	uxtb	r0, r0
   d974e:	bd08      	pop	{r3, pc}

000d9750 <_ZN6StringD1Ev>:
	init();
	char buf[33];
	dtoa(value, decimalPlaces, buf);
        *this = buf;
}
String::~String()
   d9750:	b510      	push	{r4, lr}
   d9752:	4604      	mov	r4, r0
{
	free(buffer);
   d9754:	6800      	ldr	r0, [r0, #0]
   d9756:	f7ff f815 	bl	d8784 <free>
}
   d975a:	4620      	mov	r0, r4
   d975c:	bd10      	pop	{r4, pc}

000d975e <_ZN6String10invalidateEv>:
	len = 0;
	flags = 0;
}

void String::invalidate(void)
{
   d975e:	b510      	push	{r4, lr}
   d9760:	4604      	mov	r4, r0
	if (buffer) free(buffer);
   d9762:	6800      	ldr	r0, [r0, #0]
   d9764:	b108      	cbz	r0, d976a <_ZN6String10invalidateEv+0xc>
   d9766:	f7ff f80d 	bl	d8784 <free>
	buffer = NULL;
   d976a:	2300      	movs	r3, #0
	capacity = len = 0;
   d976c:	e9c4 3301 	strd	r3, r3, [r4, #4]
	buffer = NULL;
   d9770:	6023      	str	r3, [r4, #0]
}
   d9772:	bd10      	pop	{r4, pc}

000d9774 <_ZN6String12changeBufferEj>:
	}
	return 0;
}

unsigned char String::changeBuffer(unsigned int maxStrLen)
{
   d9774:	b538      	push	{r3, r4, r5, lr}
   d9776:	4604      	mov	r4, r0
   d9778:	460d      	mov	r5, r1
	char *newbuffer = (char *)realloc(buffer, maxStrLen + 1);
   d977a:	6800      	ldr	r0, [r0, #0]
   d977c:	3101      	adds	r1, #1
   d977e:	f7ff f809 	bl	d8794 <realloc>
	if (newbuffer) {
   d9782:	b110      	cbz	r0, d978a <_ZN6String12changeBufferEj+0x16>
		buffer = newbuffer;
		capacity = maxStrLen;
   d9784:	e9c4 0500 	strd	r0, r5, [r4]
		return 1;
   d9788:	2001      	movs	r0, #1
	}
	return 0;
}
   d978a:	bd38      	pop	{r3, r4, r5, pc}

000d978c <_ZN6String7reserveEj>:
{
   d978c:	b510      	push	{r4, lr}
	if (buffer && capacity >= size) return 1;
   d978e:	6803      	ldr	r3, [r0, #0]
{
   d9790:	4604      	mov	r4, r0
	if (buffer && capacity >= size) return 1;
   d9792:	b123      	cbz	r3, d979e <_ZN6String7reserveEj+0x12>
   d9794:	6843      	ldr	r3, [r0, #4]
   d9796:	428b      	cmp	r3, r1
   d9798:	d301      	bcc.n	d979e <_ZN6String7reserveEj+0x12>
   d979a:	2001      	movs	r0, #1
}
   d979c:	bd10      	pop	{r4, pc}
	if (changeBuffer(size)) {
   d979e:	4620      	mov	r0, r4
   d97a0:	f7ff ffe8 	bl	d9774 <_ZN6String12changeBufferEj>
   d97a4:	2800      	cmp	r0, #0
   d97a6:	d0f9      	beq.n	d979c <_ZN6String7reserveEj+0x10>
		if (len == 0) buffer[0] = 0;
   d97a8:	68a3      	ldr	r3, [r4, #8]
   d97aa:	2b00      	cmp	r3, #0
   d97ac:	d1f5      	bne.n	d979a <_ZN6String7reserveEj+0xe>
   d97ae:	6822      	ldr	r2, [r4, #0]
   d97b0:	7013      	strb	r3, [r2, #0]
   d97b2:	e7f2      	b.n	d979a <_ZN6String7reserveEj+0xe>

000d97b4 <_ZN6String4copyEPKcj>:
/*********************************************/
/*  Copy and Move                            */
/*********************************************/

String & String::copy(const char *cstr, unsigned int length)
{
   d97b4:	b537      	push	{r0, r1, r2, r4, r5, lr}
   d97b6:	460d      	mov	r5, r1
	if (!reserve(length)) {
   d97b8:	4611      	mov	r1, r2
   d97ba:	9201      	str	r2, [sp, #4]
{
   d97bc:	4604      	mov	r4, r0
	if (!reserve(length)) {
   d97be:	f7ff ffe5 	bl	d978c <_ZN6String7reserveEj>
   d97c2:	9a01      	ldr	r2, [sp, #4]
   d97c4:	b928      	cbnz	r0, d97d2 <_ZN6String4copyEPKcj+0x1e>
		invalidate();
   d97c6:	4620      	mov	r0, r4
   d97c8:	f7ff ffc9 	bl	d975e <_ZN6String10invalidateEv>
	}
	len = length;
	memcpy(buffer, cstr, length);
	buffer[len] = 0;
	return *this;
}
   d97cc:	4620      	mov	r0, r4
   d97ce:	b003      	add	sp, #12
   d97d0:	bd30      	pop	{r4, r5, pc}
	len = length;
   d97d2:	60a2      	str	r2, [r4, #8]
	memcpy(buffer, cstr, length);
   d97d4:	4629      	mov	r1, r5
   d97d6:	6820      	ldr	r0, [r4, #0]
   d97d8:	f001 faec 	bl	dadb4 <memcpy>
	buffer[len] = 0;
   d97dc:	6822      	ldr	r2, [r4, #0]
   d97de:	68a3      	ldr	r3, [r4, #8]
   d97e0:	2100      	movs	r1, #0
   d97e2:	54d1      	strb	r1, [r2, r3]
	return *this;
   d97e4:	e7f2      	b.n	d97cc <_ZN6String4copyEPKcj+0x18>

000d97e6 <_ZN6StringC1EPKc>:
	buffer = NULL;
   d97e6:	2300      	movs	r3, #0
String::String(const char *cstr)
   d97e8:	b513      	push	{r0, r1, r4, lr}
	capacity = 0;
   d97ea:	e9c0 3300 	strd	r3, r3, [r0]
String::String(const char *cstr)
   d97ee:	4604      	mov	r4, r0
	len = 0;
   d97f0:	6083      	str	r3, [r0, #8]
	flags = 0;
   d97f2:	7303      	strb	r3, [r0, #12]
	if (cstr) copy(cstr, strlen(cstr));
   d97f4:	b141      	cbz	r1, d9808 <_ZN6StringC1EPKc+0x22>
   d97f6:	4608      	mov	r0, r1
   d97f8:	9101      	str	r1, [sp, #4]
   d97fa:	f001 fb5e 	bl	daeba <strlen>
   d97fe:	9901      	ldr	r1, [sp, #4]
   d9800:	4602      	mov	r2, r0
   d9802:	4620      	mov	r0, r4
   d9804:	f7ff ffd6 	bl	d97b4 <_ZN6String4copyEPKcj>
}
   d9808:	4620      	mov	r0, r4
   d980a:	b002      	add	sp, #8
   d980c:	bd10      	pop	{r4, pc}

000d980e <_ZN6StringaSERKS_>:
}
#endif

String & String::operator = (const String &rhs)
{
	if (this == &rhs) return *this;
   d980e:	4288      	cmp	r0, r1
{
   d9810:	b510      	push	{r4, lr}
   d9812:	4604      	mov	r4, r0
	if (this == &rhs) return *this;
   d9814:	d005      	beq.n	d9822 <_ZN6StringaSERKS_+0x14>

	if (rhs.buffer) copy(rhs.buffer, rhs.len);
   d9816:	680b      	ldr	r3, [r1, #0]
   d9818:	b12b      	cbz	r3, d9826 <_ZN6StringaSERKS_+0x18>
   d981a:	688a      	ldr	r2, [r1, #8]
   d981c:	4619      	mov	r1, r3
   d981e:	f7ff ffc9 	bl	d97b4 <_ZN6String4copyEPKcj>
	else invalidate();

	return *this;
}
   d9822:	4620      	mov	r0, r4
   d9824:	bd10      	pop	{r4, pc}
	else invalidate();
   d9826:	f7ff ff9a 	bl	d975e <_ZN6String10invalidateEv>
   d982a:	e7fa      	b.n	d9822 <_ZN6StringaSERKS_+0x14>

000d982c <_ZN6StringC1ERKS_>:
String::String(const String &value)
   d982c:	b510      	push	{r4, lr}
	buffer = NULL;
   d982e:	2300      	movs	r3, #0
String::String(const String &value)
   d9830:	4604      	mov	r4, r0
	capacity = 0;
   d9832:	e9c0 3300 	strd	r3, r3, [r0]
	len = 0;
   d9836:	6083      	str	r3, [r0, #8]
	flags = 0;
   d9838:	7303      	strb	r3, [r0, #12]
	*this = value;
   d983a:	f7ff ffe8 	bl	d980e <_ZN6StringaSERKS_>
}
   d983e:	4620      	mov	r0, r4
   d9840:	bd10      	pop	{r4, pc}

000d9842 <_ZNK6String6equalsEPKc>:
{
	return (len == s2.len && compareTo(s2) == 0);
}

unsigned char String::equals(const char *cstr) const
{
   d9842:	b508      	push	{r3, lr}
	if (len == 0) return (cstr == NULL || *cstr == 0);
   d9844:	6882      	ldr	r2, [r0, #8]
   d9846:	b93a      	cbnz	r2, d9858 <_ZNK6String6equalsEPKc+0x16>
   d9848:	b121      	cbz	r1, d9854 <_ZNK6String6equalsEPKc+0x12>
   d984a:	7808      	ldrb	r0, [r1, #0]
	if (cstr == NULL) return buffer[0] == 0;
	return strcmp(buffer, cstr) == 0;
   d984c:	fab0 f080 	clz	r0, r0
   d9850:	0940      	lsrs	r0, r0, #5
   d9852:	e000      	b.n	d9856 <_ZNK6String6equalsEPKc+0x14>
	if (len == 0) return (cstr == NULL || *cstr == 0);
   d9854:	2001      	movs	r0, #1
}
   d9856:	bd08      	pop	{r3, pc}
	if (cstr == NULL) return buffer[0] == 0;
   d9858:	6800      	ldr	r0, [r0, #0]
   d985a:	b909      	cbnz	r1, d9860 <_ZNK6String6equalsEPKc+0x1e>
   d985c:	7800      	ldrb	r0, [r0, #0]
   d985e:	e7f5      	b.n	d984c <_ZNK6String6equalsEPKc+0xa>
	return strcmp(buffer, cstr) == 0;
   d9860:	f001 fafc 	bl	dae5c <strcmp>
   d9864:	e7f2      	b.n	d984c <_ZNK6String6equalsEPKc+0xa>

000d9866 <_ZNK6String8getBytesEPhjj>:
	if (index >= len || !buffer) return 0;
	return buffer[index];
}

void String::getBytes(unsigned char *buf, unsigned int bufsize, unsigned int index) const
{
   d9866:	b558      	push	{r3, r4, r6, lr}
   d9868:	460e      	mov	r6, r1
	if (!bufsize || !buf) return;
   d986a:	b12a      	cbz	r2, d9878 <_ZNK6String8getBytesEPhjj+0x12>
   d986c:	b121      	cbz	r1, d9878 <_ZNK6String8getBytesEPhjj+0x12>
	if (index >= len) {
   d986e:	6884      	ldr	r4, [r0, #8]
   d9870:	429c      	cmp	r4, r3
   d9872:	d802      	bhi.n	d987a <_ZNK6String8getBytesEPhjj+0x14>
		buf[0] = 0;
   d9874:	2300      	movs	r3, #0
   d9876:	700b      	strb	r3, [r1, #0]
	}
	unsigned int n = bufsize - 1;
	if (n > len - index) n = len - index;
	strncpy((char *)buf, buffer + index, n);
	buf[n] = 0;
}
   d9878:	bd58      	pop	{r3, r4, r6, pc}
	if (n > len - index) n = len - index;
   d987a:	1ae4      	subs	r4, r4, r3
	unsigned int n = bufsize - 1;
   d987c:	3a01      	subs	r2, #1
	strncpy((char *)buf, buffer + index, n);
   d987e:	6801      	ldr	r1, [r0, #0]
   d9880:	4294      	cmp	r4, r2
   d9882:	bf28      	it	cs
   d9884:	4614      	movcs	r4, r2
   d9886:	4419      	add	r1, r3
   d9888:	4622      	mov	r2, r4
   d988a:	4630      	mov	r0, r6
   d988c:	f001 fb1d 	bl	daeca <strncpy>
	buf[n] = 0;
   d9890:	2300      	movs	r3, #0
   d9892:	5533      	strb	r3, [r6, r4]
   d9894:	e7f0      	b.n	d9878 <_ZNK6String8getBytesEPhjj+0x12>
	...

000d9898 <_ZN6String6formatEPKcz>:
    StringPrintableHelper help(*this);
    printable.printTo(help);
}

String String::format(const char* fmt, ...)
{
   d9898:	b40e      	push	{r1, r2, r3}
   d989a:	b570      	push	{r4, r5, r6, lr}
   d989c:	b087      	sub	sp, #28
   d989e:	ad0b      	add	r5, sp, #44	; 0x2c
   d98a0:	4604      	mov	r4, r0
   d98a2:	f855 2b04 	ldr.w	r2, [r5], #4
    va_list marker;
    va_start(marker, fmt);
    const int bufsize = 5;
    char test[bufsize];
    size_t n = vsnprintf(test, bufsize, fmt, marker);
   d98a6:	9201      	str	r2, [sp, #4]
   d98a8:	462b      	mov	r3, r5
   d98aa:	2105      	movs	r1, #5
   d98ac:	a804      	add	r0, sp, #16
    va_start(marker, fmt);
   d98ae:	9503      	str	r5, [sp, #12]
    size_t n = vsnprintf(test, bufsize, fmt, marker);
   d98b0:	f7fe ff88 	bl	d87c4 <vsnprintf>
    va_end(marker);

    String result;
   d98b4:	490b      	ldr	r1, [pc, #44]	; (d98e4 <_ZN6String6formatEPKcz+0x4c>)
    size_t n = vsnprintf(test, bufsize, fmt, marker);
   d98b6:	4606      	mov	r6, r0
    String result;
   d98b8:	4620      	mov	r0, r4
   d98ba:	f7ff ff94 	bl	d97e6 <_ZN6StringC1EPKc>
    result.reserve(n);  // internally adds +1 for null terminator
   d98be:	4631      	mov	r1, r6
   d98c0:	4620      	mov	r0, r4
   d98c2:	f7ff ff63 	bl	d978c <_ZN6String7reserveEj>
    if (result.buffer) {
   d98c6:	6820      	ldr	r0, [r4, #0]
   d98c8:	b130      	cbz	r0, d98d8 <_ZN6String6formatEPKcz+0x40>
        va_start(marker, fmt);
        n = vsnprintf(result.buffer, n+1, fmt, marker);
   d98ca:	9a01      	ldr	r2, [sp, #4]
        va_start(marker, fmt);
   d98cc:	9503      	str	r5, [sp, #12]
        n = vsnprintf(result.buffer, n+1, fmt, marker);
   d98ce:	462b      	mov	r3, r5
   d98d0:	1c71      	adds	r1, r6, #1
   d98d2:	f7fe ff77 	bl	d87c4 <vsnprintf>
        va_end(marker);
        result.len = n;
   d98d6:	60a0      	str	r0, [r4, #8]
    }
    return result;
}
   d98d8:	4620      	mov	r0, r4
   d98da:	b007      	add	sp, #28
   d98dc:	e8bd 4070 	ldmia.w	sp!, {r4, r5, r6, lr}
   d98e0:	b003      	add	sp, #12
   d98e2:	4770      	bx	lr
   d98e4:	000db230 	.word	0x000db230

000d98e8 <_ZN17SystemSleepResult22freeWakeupSourceMemoryEv.isra.0>:
    operator SleepResult() {
        return toSleepResult();
    }

private:
    void freeWakeupSourceMemory() {
   d98e8:	b510      	push	{r4, lr}
   d98ea:	4604      	mov	r4, r0
        if (wakeupSource_) {
   d98ec:	6800      	ldr	r0, [r0, #0]
   d98ee:	b118      	cbz	r0, d98f8 <_ZN17SystemSleepResult22freeWakeupSourceMemoryEv.isra.0+0x10>
            free(wakeupSource_);
   d98f0:	f7fe ff48 	bl	d8784 <free>
            wakeupSource_ = nullptr;
   d98f4:	2300      	movs	r3, #0
   d98f6:	6023      	str	r3, [r4, #0]
        }
    }
   d98f8:	bd10      	pop	{r4, pc}

000d98fa <_ZN17SystemSleepResultaSEOS_>:
    SystemSleepResult& operator=(SystemSleepResult&& result) {
   d98fa:	b538      	push	{r3, r4, r5, lr}
        error_ = result.error_;
   d98fc:	f9b1 3004 	ldrsh.w	r3, [r1, #4]
   d9900:	8083      	strh	r3, [r0, #4]
        compatResult_ = result.compatResult_;
   d9902:	460b      	mov	r3, r1
    SystemSleepResult& operator=(SystemSleepResult&& result) {
   d9904:	460d      	mov	r5, r1
        compatResult_ = result.compatResult_;
   d9906:	f853 2f06 	ldr.w	r2, [r3, #6]!
   d990a:	f8c0 2006 	str.w	r2, [r0, #6]
   d990e:	889b      	ldrh	r3, [r3, #4]
   d9910:	8143      	strh	r3, [r0, #10]
    SystemSleepResult& operator=(SystemSleepResult&& result) {
   d9912:	4604      	mov	r4, r0
        freeWakeupSourceMemory();
   d9914:	f7ff ffe8 	bl	d98e8 <_ZN17SystemSleepResult22freeWakeupSourceMemoryEv.isra.0>
        if (result.wakeupSource_) {
   d9918:	682b      	ldr	r3, [r5, #0]
   d991a:	b113      	cbz	r3, d9922 <_ZN17SystemSleepResultaSEOS_+0x28>
            wakeupSource_ = result.wakeupSource_;
   d991c:	6023      	str	r3, [r4, #0]
            result.wakeupSource_ = nullptr;
   d991e:	2300      	movs	r3, #0
   d9920:	602b      	str	r3, [r5, #0]
    }
   d9922:	4620      	mov	r0, r4
   d9924:	bd38      	pop	{r3, r4, r5, pc}

000d9926 <_ZN17SystemSleepResult13toSleepResultEv>:
        if (error_ || wakeupSource_) {
   d9926:	f9b1 3004 	ldrsh.w	r3, [r1, #4]
   d992a:	680a      	ldr	r2, [r1, #0]
    SleepResult toSleepResult() {
   d992c:	b510      	push	{r4, lr}
        if (error_ || wakeupSource_) {
   d992e:	b933      	cbnz	r3, d993e <_ZN17SystemSleepResult13toSleepResultEv+0x18>
   d9930:	b932      	cbnz	r2, d9940 <_ZN17SystemSleepResult13toSleepResultEv+0x1a>
        return compatResult_;
   d9932:	f851 3f06 	ldr.w	r3, [r1, #6]!
   d9936:	6003      	str	r3, [r0, #0]
   d9938:	888b      	ldrh	r3, [r1, #4]
   d993a:	8083      	strh	r3, [r0, #4]
    }
   d993c:	bd10      	pop	{r4, pc}
        if (wakeupSource_) {
   d993e:	b122      	cbz	r2, d994a <_ZN17SystemSleepResult13toSleepResultEv+0x24>
            return static_cast<SystemSleepWakeupReason>(wakeupSource_->type);
   d9940:	8894      	ldrh	r4, [r2, #4]
            switch (wakeupReason()) {
   d9942:	2c01      	cmp	r4, #1
   d9944:	d003      	beq.n	d994e <_ZN17SystemSleepResult13toSleepResultEv+0x28>
   d9946:	2c04      	cmp	r4, #4
   d9948:	d006      	beq.n	d9958 <_ZN17SystemSleepResult13toSleepResultEv+0x32>
                    compatResult_ = SleepResult(WAKEUP_REASON_UNKNOWN, error());
   d994a:	2204      	movs	r2, #4
   d994c:	e005      	b.n	d995a <_ZN17SystemSleepResult13toSleepResultEv+0x34>
            return reinterpret_cast<hal_wakeup_source_gpio_t*>(wakeupSource_)->pin;
   d994e:	8992      	ldrh	r2, [r2, #12]
                    compatResult_ = SleepResult(WAKEUP_REASON_PIN, error(), wakeupPin());
   d9950:	814a      	strh	r2, [r1, #10]
   d9952:	718c      	strb	r4, [r1, #6]
   d9954:	810b      	strh	r3, [r1, #8]
                    break;
   d9956:	e7ec      	b.n	d9932 <_ZN17SystemSleepResult13toSleepResultEv+0xc>
                    compatResult_ = SleepResult(WAKEUP_REASON_RTC, error());
   d9958:	2202      	movs	r2, #2
                    compatResult_ = SleepResult(WAKEUP_REASON_UNKNOWN, error());
   d995a:	810b      	strh	r3, [r1, #8]
   d995c:	f64f 73ff 	movw	r3, #65535	; 0xffff
   d9960:	718a      	strb	r2, [r1, #6]
   d9962:	814b      	strh	r3, [r1, #10]
                    break;
   d9964:	e7e5      	b.n	d9932 <_ZN17SystemSleepResult13toSleepResultEv+0xc>
	...

000d9968 <_ZN17SystemSleepResult16copyWakeupSourceEP24hal_wakeup_source_base_t>:

    int copyWakeupSource(hal_wakeup_source_base_t* source) {
   d9968:	b538      	push	{r3, r4, r5, lr}
   d996a:	460c      	mov	r4, r1
   d996c:	4605      	mov	r5, r0
        freeWakeupSourceMemory();
   d996e:	f7ff ffbb 	bl	d98e8 <_ZN17SystemSleepResult22freeWakeupSourceMemoryEv.isra.0>
        if (source) {
   d9972:	b144      	cbz	r4, d9986 <_ZN17SystemSleepResult16copyWakeupSourceEP24hal_wakeup_source_base_t+0x1e>
            wakeupSource_ = (hal_wakeup_source_base_t*)malloc(source->size);
   d9974:	8820      	ldrh	r0, [r4, #0]
   d9976:	f7fe fefd 	bl	d8774 <malloc>
   d997a:	6028      	str	r0, [r5, #0]
            if (wakeupSource_) {
   d997c:	b128      	cbz	r0, d998a <_ZN17SystemSleepResult16copyWakeupSourceEP24hal_wakeup_source_base_t+0x22>
                memcpy(wakeupSource_, source, source->size);
   d997e:	8822      	ldrh	r2, [r4, #0]
   d9980:	4621      	mov	r1, r4
   d9982:	f001 fa17 	bl	dadb4 <memcpy>
            } else {
                return SYSTEM_ERROR_NO_MEMORY;
            }
        }
        return SYSTEM_ERROR_NONE;
   d9986:	2000      	movs	r0, #0
    }
   d9988:	bd38      	pop	{r3, r4, r5, pc}
                return SYSTEM_ERROR_NO_MEMORY;
   d998a:	4801      	ldr	r0, [pc, #4]	; (d9990 <_ZN17SystemSleepResult16copyWakeupSourceEP24hal_wakeup_source_base_t+0x28>)
   d998c:	e7fc      	b.n	d9988 <_ZN17SystemSleepResult16copyWakeupSourceEP24hal_wakeup_source_base_t+0x20>
   d998e:	bf00      	nop
   d9990:	fffffefc 	.word	0xfffffefc

000d9994 <_ZN11SystemClass5resetEmN8particle5FlagsI19SystemResetFlagTypemEE>:
{
    reset(0, flags);
}

void SystemClass::reset(uint32_t data, SystemResetFlags flags)
{
   d9994:	b507      	push	{r0, r1, r2, lr}
   d9996:	460b      	mov	r3, r1
    system_reset(SYSTEM_RESET_MODE_NORMAL, RESET_REASON_USER, data, flags.value(), nullptr);
   d9998:	2100      	movs	r1, #0
{
   d999a:	4602      	mov	r2, r0
    system_reset(SYSTEM_RESET_MODE_NORMAL, RESET_REASON_USER, data, flags.value(), nullptr);
   d999c:	9100      	str	r1, [sp, #0]
   d999e:	2001      	movs	r0, #1
   d99a0:	218c      	movs	r1, #140	; 0x8c
   d99a2:	f7fe fe1d 	bl	d85e0 <system_reset>
}
   d99a6:	b003      	add	sp, #12
   d99a8:	f85d fb04 	ldr.w	pc, [sp], #4

000d99ac <_ZN11SystemClass5resetEN8particle5FlagsI19SystemResetFlagTypemEE>:
{
   d99ac:	4601      	mov	r1, r0
    reset(0, flags);
   d99ae:	2000      	movs	r0, #0
   d99b0:	f7ff bff0 	b.w	d9994 <_ZN11SystemClass5resetEmN8particle5FlagsI19SystemResetFlagTypemEE>

000d99b4 <_ZN11SystemClass5resetEv>:
    reset(SystemResetFlags());
   d99b4:	2000      	movs	r0, #0
   d99b6:	f7ff bff9 	b.w	d99ac <_ZN11SystemClass5resetEN8particle5FlagsI19SystemResetFlagTypemEE>
	...

000d99bc <_ZN11SystemClass5sleepERKN8particle24SystemSleepConfigurationE>:
void SystemClass::enterSafeMode(SystemResetFlags flags)
{
    system_reset(SYSTEM_RESET_MODE_SAFE, 0, 0, flags.value(), nullptr);
}

SystemSleepResult SystemClass::sleep(const particle::SystemSleepConfiguration& config) {
   d99bc:	b5f0      	push	{r4, r5, r6, r7, lr}
   d99be:	4d2d      	ldr	r5, [pc, #180]	; (d9a74 <_ZN11SystemClass5sleepERKN8particle24SystemSleepConfigurationE+0xb8>)
    }

    // It doesn't guarantee the combination of sleep mode and
    // wakeup sources that the platform supports.
    bool valid() const {
        if (!valid_) {
   d99c0:	7d0b      	ldrb	r3, [r1, #20]
   d99c2:	4604      	mov	r4, r0
   d99c4:	b08b      	sub	sp, #44	; 0x2c
   d99c6:	4608      	mov	r0, r1
   d99c8:	1daf      	adds	r7, r5, #6
   d99ca:	2b00      	cmp	r3, #0
   d99cc:	d038      	beq.n	d9a40 <_ZN11SystemClass5sleepERKN8particle24SystemSleepConfigurationE+0x84>
        return static_cast<SystemSleepMode>(config_->mode);
   d99ce:	680b      	ldr	r3, [r1, #0]
            return valid_;
        }
        if (sleepMode() == SystemSleepMode::NONE) {
   d99d0:	791b      	ldrb	r3, [r3, #4]
   d99d2:	2b00      	cmp	r3, #0
   d99d4:	d034      	beq.n	d9a40 <_ZN11SystemClass5sleepERKN8particle24SystemSleepConfigurationE+0x84>
              error_(SYSTEM_ERROR_NONE) {
   d99d6:	2200      	movs	r2, #0
    SleepResult() {}
   d99d8:	4b27      	ldr	r3, [pc, #156]	; (d9a78 <_ZN11SystemClass5sleepERKN8particle24SystemSleepConfigurationE+0xbc>)
   d99da:	9304      	str	r3, [sp, #16]
    if (!config.valid()) {
        LOG(ERROR, "System sleep configuration is invalid.");
        System.systemSleepResult_ = SystemSleepResult(SYSTEM_ERROR_INVALID_ARGUMENT);
    } else {
        SystemSleepResult result;
        int ret = system_sleep_ext(config.halConfig(), result.halWakeupSource(), nullptr);
   d99dc:	a902      	add	r1, sp, #8
   d99de:	3004      	adds	r0, #4
              error_(SYSTEM_ERROR_NONE) {
   d99e0:	9202      	str	r2, [sp, #8]
   d99e2:	f8ad 200c 	strh.w	r2, [sp, #12]
    SleepResult() {}
   d99e6:	f88d 200e 	strb.w	r2, [sp, #14]
   d99ea:	f7fe fdef 	bl	d85cc <system_sleep_ext>
        compatResult_ = result.compatResult_;
   d99ee:	f8dd 300e 	ldr.w	r3, [sp, #14]
   d99f2:	f8c5 3006 	str.w	r3, [r5, #6]
        result.setError(static_cast<system_error_t>(ret));
   d99f6:	b200      	sxth	r0, r0
   d99f8:	f8bd 3012 	ldrh.w	r3, [sp, #18]
        error_ = error;
   d99fc:	f8ad 000c 	strh.w	r0, [sp, #12]
        error_ = result.error_;
   d9a00:	80a8      	strh	r0, [r5, #4]
        copyWakeupSource(result.wakeupSource_);
   d9a02:	9902      	ldr	r1, [sp, #8]
        compatResult_ = result.compatResult_;
   d9a04:	80bb      	strh	r3, [r7, #4]
        copyWakeupSource(result.wakeupSource_);
   d9a06:	4628      	mov	r0, r5
   d9a08:	f7ff ffae 	bl	d9968 <_ZN17SystemSleepResult16copyWakeupSourceEP24hal_wakeup_source_base_t>
        freeWakeupSourceMemory();
   d9a0c:	a802      	add	r0, sp, #8
   d9a0e:	f7ff ff6b 	bl	d98e8 <_ZN17SystemSleepResult22freeWakeupSourceMemoryEv.isra.0>
              error_(SYSTEM_ERROR_NONE) {
   d9a12:	2300      	movs	r3, #0
   d9a14:	6023      	str	r3, [r4, #0]
   d9a16:	80a3      	strh	r3, [r4, #4]
    SleepResult() {}
   d9a18:	71a3      	strb	r3, [r4, #6]
   d9a1a:	8123      	strh	r3, [r4, #8]
   d9a1c:	f64f 73ff 	movw	r3, #65535	; 0xffff
   d9a20:	8163      	strh	r3, [r4, #10]
        error_ = result.error_;
   d9a22:	f9b5 3004 	ldrsh.w	r3, [r5, #4]
   d9a26:	80a3      	strh	r3, [r4, #4]
        compatResult_ = result.compatResult_;
   d9a28:	683b      	ldr	r3, [r7, #0]
   d9a2a:	f8c4 3006 	str.w	r3, [r4, #6]
   d9a2e:	88bb      	ldrh	r3, [r7, #4]
        copyWakeupSource(result.wakeupSource_);
   d9a30:	6829      	ldr	r1, [r5, #0]
        compatResult_ = result.compatResult_;
   d9a32:	8163      	strh	r3, [r4, #10]
        copyWakeupSource(result.wakeupSource_);
   d9a34:	4620      	mov	r0, r4
   d9a36:	f7ff ff97 	bl	d9968 <_ZN17SystemSleepResult16copyWakeupSourceEP24hal_wakeup_source_base_t>
        System.systemSleepResult_ = result;
    }
    return System.systemSleepResult_;
}
   d9a3a:	4620      	mov	r0, r4
   d9a3c:	b00b      	add	sp, #44	; 0x2c
   d9a3e:	bdf0      	pop	{r4, r5, r6, r7, pc}
        LOG(ERROR, "System sleep configuration is invalid.");
   d9a40:	2600      	movs	r6, #0
   d9a42:	2320      	movs	r3, #32
   d9a44:	e9cd 3602 	strd	r3, r6, [sp, #8]
   d9a48:	4b0c      	ldr	r3, [pc, #48]	; (d9a7c <_ZN11SystemClass5sleepERKN8particle24SystemSleepConfigurationE+0xc0>)
   d9a4a:	9300      	str	r3, [sp, #0]
   d9a4c:	490c      	ldr	r1, [pc, #48]	; (d9a80 <_ZN11SystemClass5sleepERKN8particle24SystemSleepConfigurationE+0xc4>)
   d9a4e:	4633      	mov	r3, r6
   d9a50:	aa02      	add	r2, sp, #8
   d9a52:	2032      	movs	r0, #50	; 0x32
   d9a54:	f7fe fd32 	bl	d84bc <log_message>
    SleepResult() {}
   d9a58:	4b07      	ldr	r3, [pc, #28]	; (d9a78 <_ZN11SystemClass5sleepERKN8particle24SystemSleepConfigurationE+0xbc>)
   d9a5a:	9304      	str	r3, [sp, #16]
        System.systemSleepResult_ = SystemSleepResult(SYSTEM_ERROR_INVALID_ARGUMENT);
   d9a5c:	a902      	add	r1, sp, #8
        error_ = error;
   d9a5e:	f64f 63f2 	movw	r3, #65266	; 0xfef2
   d9a62:	4804      	ldr	r0, [pc, #16]	; (d9a74 <_ZN11SystemClass5sleepERKN8particle24SystemSleepConfigurationE+0xb8>)
              error_(SYSTEM_ERROR_NONE) {
   d9a64:	9602      	str	r6, [sp, #8]
    SleepResult() {}
   d9a66:	f88d 600e 	strb.w	r6, [sp, #14]
        error_ = error;
   d9a6a:	f8ad 300c 	strh.w	r3, [sp, #12]
   d9a6e:	f7ff ff44 	bl	d98fa <_ZN17SystemSleepResultaSEOS_>
   d9a72:	e7cb      	b.n	d9a0c <_ZN11SystemClass5sleepERKN8particle24SystemSleepConfigurationE+0x50>
   d9a74:	2003e640 	.word	0x2003e640
   d9a78:	ffff0000 	.word	0xffff0000
   d9a7c:	000dba8f 	.word	0x000dba8f
   d9a80:	000dba88 	.word	0x000dba88

000d9a84 <_ZN11SystemClass5sleepE19Spark_Sleep_TypeDeflN8particle5FlagsI19SleepOptionFlagTypemEE>:

SleepResult SystemClass::sleep(Spark_Sleep_TypeDef sleepMode, long seconds, SleepOptionFlags flags)
{
   d9a84:	b530      	push	{r4, r5, lr}
   d9a86:	4604      	mov	r4, r0
   d9a88:	b085      	sub	sp, #20
   d9a8a:	4608      	mov	r0, r1
   d9a8c:	4611      	mov	r1, r2
   d9a8e:	461a      	mov	r2, r3
    int ret = system_sleep(sleepMode, seconds, flags.value(), NULL);
   d9a90:	2300      	movs	r3, #0
   d9a92:	f7fe fd45 	bl	d8520 <system_sleep>
    System.systemSleepResult_ = SystemSleepResult(SleepResult(WAKEUP_REASON_NONE, static_cast<system_error_t>(ret)));
   d9a96:	4d0d      	ldr	r5, [pc, #52]	; (d9acc <_ZN11SystemClass5sleepE19Spark_Sleep_TypeDeflN8particle5FlagsI19SleepOptionFlagTypemEE+0x48>)
   d9a98:	f8ad 000c 	strh.w	r0, [sp, #12]
              compatResult_(r) {
   d9a9c:	2300      	movs	r3, #0
   d9a9e:	a901      	add	r1, sp, #4
   d9aa0:	9301      	str	r3, [sp, #4]
   d9aa2:	f8ad 3008 	strh.w	r3, [sp, #8]
   d9aa6:	f88d 300a 	strb.w	r3, [sp, #10]
   d9aaa:	4628      	mov	r0, r5
   d9aac:	f64f 73ff 	movw	r3, #65535	; 0xffff
   d9ab0:	f8ad 300e 	strh.w	r3, [sp, #14]
   d9ab4:	f7ff ff21 	bl	d98fa <_ZN17SystemSleepResultaSEOS_>
        freeWakeupSourceMemory();
   d9ab8:	a801      	add	r0, sp, #4
   d9aba:	f7ff ff15 	bl	d98e8 <_ZN17SystemSleepResult22freeWakeupSourceMemoryEv.isra.0>
        return toSleepResult();
   d9abe:	4620      	mov	r0, r4
   d9ac0:	4629      	mov	r1, r5
   d9ac2:	f7ff ff30 	bl	d9926 <_ZN17SystemSleepResult13toSleepResultEv>
    return System.systemSleepResult_;
}
   d9ac6:	4620      	mov	r0, r4
   d9ac8:	b005      	add	sp, #20
   d9aca:	bd30      	pop	{r4, r5, pc}
   d9acc:	2003e640 	.word	0x2003e640

000d9ad0 <_GLOBAL__sub_I_System>:
    return wokenUpByRtc();
}

system_error_t SleepResult::error() const {
    return err_;
   d9ad0:	b510      	push	{r4, lr}
} // namespace particle

// particle::Flag<TagT, ValueT>
template<typename TagT, typename ValueT>
inline particle::Flag<TagT, ValueT>::Flag(ValueT val) :
        val_(val) {
   d9ad2:	4b09      	ldr	r3, [pc, #36]	; (d9af8 <_GLOBAL__sub_I_System+0x28>)
              error_(SYSTEM_ERROR_NONE) {
   d9ad4:	4c09      	ldr	r4, [pc, #36]	; (d9afc <_GLOBAL__sub_I_System+0x2c>)
   d9ad6:	2202      	movs	r2, #2
   d9ad8:	2000      	movs	r0, #0
   d9ada:	601a      	str	r2, [r3, #0]
    SleepResult() {}
   d9adc:	4b08      	ldr	r3, [pc, #32]	; (d9b00 <_GLOBAL__sub_I_System+0x30>)
              error_(SYSTEM_ERROR_NONE) {
   d9ade:	6020      	str	r0, [r4, #0]
   d9ae0:	80a0      	strh	r0, [r4, #4]
    SleepResult() {}
   d9ae2:	71a0      	strb	r0, [r4, #6]
   d9ae4:	60a3      	str	r3, [r4, #8]

class SystemClass {
public:

    SystemClass(System_Mode_TypeDef mode = DEFAULT) {
        set_system_mode(mode);
   d9ae6:	f7fe fd0b 	bl	d8500 <set_system_mode>
SystemClass System;
   d9aea:	4620      	mov	r0, r4
   d9aec:	4a05      	ldr	r2, [pc, #20]	; (d9b04 <_GLOBAL__sub_I_System+0x34>)
   d9aee:	4906      	ldr	r1, [pc, #24]	; (d9b08 <_GLOBAL__sub_I_System+0x38>)
   d9af0:	e8bd 4010 	ldmia.w	sp!, {r4, lr}
SystemClass System;
   d9af4:	f000 bc90 	b.w	da418 <__aeabi_atexit>
   d9af8:	2003e64c 	.word	0x2003e64c
   d9afc:	2003e640 	.word	0x2003e640
   d9b00:	ffff0000 	.word	0xffff0000
   d9b04:	2003e1f8 	.word	0x2003e1f8
   d9b08:	000d41c7 	.word	0x000d41c7

000d9b0c <_ZL22Refresh_UnixTime_Cachex>:
	return calendar_time;
}

/* Refresh Unix/RTC time cache */
static void Refresh_UnixTime_Cache(time_t unix_time)
{
   d9b0c:	e92d 41f0 	stmdb	sp!, {r4, r5, r6, r7, r8, lr}
    unix_time += time_zone_cache;
   d9b10:	4a15      	ldr	r2, [pc, #84]	; (d9b68 <_ZL22Refresh_UnixTime_Cachex+0x5c>)
    unix_time += dst_current_cache;
    if(unix_time != unix_time_cache)
   d9b12:	f8df 8060 	ldr.w	r8, [pc, #96]	; d9b74 <_ZL22Refresh_UnixTime_Cachex+0x68>
    unix_time += time_zone_cache;
   d9b16:	e9d2 3200 	ldrd	r3, r2, [r2]
   d9b1a:	18c0      	adds	r0, r0, r3
   d9b1c:	eb42 0101 	adc.w	r1, r2, r1
    unix_time += dst_current_cache;
   d9b20:	4a12      	ldr	r2, [pc, #72]	; (d9b6c <_ZL22Refresh_UnixTime_Cachex+0x60>)
   d9b22:	e9d2 3200 	ldrd	r3, r2, [r2]
   d9b26:	18c6      	adds	r6, r0, r3
   d9b28:	eb41 0702 	adc.w	r7, r1, r2
    if(unix_time != unix_time_cache)
   d9b2c:	e9d8 2300 	ldrd	r2, r3, [r8]
   d9b30:	42bb      	cmp	r3, r7
   d9b32:	bf08      	it	eq
   d9b34:	42b2      	cmpeq	r2, r6
{
   d9b36:	b08c      	sub	sp, #48	; 0x30
    if(unix_time != unix_time_cache)
   d9b38:	d013      	beq.n	d9b62 <_ZL22Refresh_UnixTime_Cachex+0x56>
	localtime_r(&unix_time, &calendar_time);
   d9b3a:	a903      	add	r1, sp, #12
   d9b3c:	4668      	mov	r0, sp
   d9b3e:	e9cd 6700 	strd	r6, r7, [sp]
   d9b42:	f7fe fe67 	bl	d8814 <localtime_r>
	calendar_time.tm_year += 1900;
   d9b46:	9b08      	ldr	r3, [sp, #32]
    {
            calendar_time_cache = Convert_UnixTime_To_CalendarTime(unix_time);
   d9b48:	4d09      	ldr	r5, [pc, #36]	; (d9b70 <_ZL22Refresh_UnixTime_Cachex+0x64>)
	calendar_time.tm_year += 1900;
   d9b4a:	f203 736c 	addw	r3, r3, #1900	; 0x76c
            calendar_time_cache = Convert_UnixTime_To_CalendarTime(unix_time);
   d9b4e:	ac03      	add	r4, sp, #12
	calendar_time.tm_year += 1900;
   d9b50:	9308      	str	r3, [sp, #32]
            calendar_time_cache = Convert_UnixTime_To_CalendarTime(unix_time);
   d9b52:	cc0f      	ldmia	r4!, {r0, r1, r2, r3}
   d9b54:	c50f      	stmia	r5!, {r0, r1, r2, r3}
   d9b56:	cc0f      	ldmia	r4!, {r0, r1, r2, r3}
   d9b58:	c50f      	stmia	r5!, {r0, r1, r2, r3}
            unix_time_cache = unix_time;
   d9b5a:	e9c8 6700 	strd	r6, r7, [r8]
            calendar_time_cache = Convert_UnixTime_To_CalendarTime(unix_time);
   d9b5e:	6823      	ldr	r3, [r4, #0]
   d9b60:	602b      	str	r3, [r5, #0]
    }
}
   d9b62:	b00c      	add	sp, #48	; 0x30
   d9b64:	e8bd 81f0 	ldmia.w	sp!, {r4, r5, r6, r7, r8, pc}
   d9b68:	2003e688 	.word	0x2003e688
   d9b6c:	2003e680 	.word	0x2003e680
   d9b70:	2003e658 	.word	0x2003e658
   d9b74:	2003e690 	.word	0x2003e690

000d9b78 <_ZN10CloudClass12syncTimeDoneEv.isra.0>:
    bool syncTimeDone(void)
   d9b78:	b508      	push	{r3, lr}
        return !spark_sync_time_pending(nullptr) || disconnected();
   d9b7a:	2000      	movs	r0, #0
   d9b7c:	f7fe fd82 	bl	d8684 <spark_sync_time_pending>
   d9b80:	b128      	cbz	r0, d9b8e <_ZN10CloudClass12syncTimeDoneEv.isra.0+0x16>
    static bool connected(void) { return spark_cloud_flag_connected(); }
   d9b82:	f7fe fd57 	bl	d8634 <spark_cloud_flag_connected>
        return !spark_sync_time_pending(nullptr) || disconnected();
   d9b86:	f080 0001 	eor.w	r0, r0, #1
   d9b8a:	b2c0      	uxtb	r0, r0
    }
   d9b8c:	bd08      	pop	{r3, pc}
        return !spark_sync_time_pending(nullptr) || disconnected();
   d9b8e:	2001      	movs	r0, #1
   d9b90:	e7fc      	b.n	d9b8c <_ZN10CloudClass12syncTimeDoneEv.isra.0+0x14>
	...

000d9b94 <_ZN9TimeClass7weekdayEx>:
	return weekday(now());
}

/* the weekday for the given time */
int TimeClass::weekday(time_t t)
{
   d9b94:	b508      	push	{r3, lr}
	Refresh_UnixTime_Cache(t);
   d9b96:	f7ff ffb9 	bl	d9b0c <_ZL22Refresh_UnixTime_Cachex>
	return (calendar_time_cache.tm_wday + 1);//Arduino's weekday representation
   d9b9a:	4b02      	ldr	r3, [pc, #8]	; (d9ba4 <_ZN9TimeClass7weekdayEx+0x10>)
   d9b9c:	6998      	ldr	r0, [r3, #24]
}
   d9b9e:	3001      	adds	r0, #1
   d9ba0:	bd08      	pop	{r3, pc}
   d9ba2:	bf00      	nop
   d9ba4:	2003e658 	.word	0x2003e658

000d9ba8 <_ZN9TimeClass5monthEx>:
	return month(now());
}

/* the month for the given time */
int TimeClass::month(time_t t)
{
   d9ba8:	b508      	push	{r3, lr}
	Refresh_UnixTime_Cache(t);
   d9baa:	f7ff ffaf 	bl	d9b0c <_ZL22Refresh_UnixTime_Cachex>
	return (calendar_time_cache.tm_mon + 1);//Arduino's month representation
   d9bae:	4b02      	ldr	r3, [pc, #8]	; (d9bb8 <_ZN9TimeClass5monthEx+0x10>)
   d9bb0:	6918      	ldr	r0, [r3, #16]
}
   d9bb2:	3001      	adds	r0, #1
   d9bb4:	bd08      	pop	{r3, pc}
   d9bb6:	bf00      	nop
   d9bb8:	2003e658 	.word	0x2003e658

000d9bbc <_ZN9TimeClass4zoneEf>:
}

/* set the time zone (+/-) offset from GMT */
void TimeClass::zone(float GMT_Offset)
{
	if(GMT_Offset < -12 || GMT_Offset > 14)
   d9bbc:	eefa 7a08 	vmov.f32	s15, #168	; 0xc1400000 -12.0
   d9bc0:	eeb4 0ae7 	vcmpe.f32	s0, s15
   d9bc4:	eef1 fa10 	vmrs	APSR_nzcv, fpscr
{
   d9bc8:	b508      	push	{r3, lr}
	if(GMT_Offset < -12 || GMT_Offset > 14)
   d9bca:	d411      	bmi.n	d9bf0 <_ZN9TimeClass4zoneEf+0x34>
   d9bcc:	eef2 7a0c 	vmov.f32	s15, #44	; 0x41600000  14.0
   d9bd0:	eeb4 0ae7 	vcmpe.f32	s0, s15
   d9bd4:	eef1 fa10 	vmrs	APSR_nzcv, fpscr
   d9bd8:	dc0a      	bgt.n	d9bf0 <_ZN9TimeClass4zoneEf+0x34>
	{
		return;
	}
	time_zone_cache = GMT_Offset * 3600;
   d9bda:	eddf 7a06 	vldr	s15, [pc, #24]	; d9bf4 <_ZN9TimeClass4zoneEf+0x38>
   d9bde:	ee60 7a27 	vmul.f32	s15, s0, s15
   d9be2:	ee17 0a90 	vmov	r0, s15
   d9be6:	f001 f863 	bl	dacb0 <__aeabi_f2lz>
   d9bea:	4b03      	ldr	r3, [pc, #12]	; (d9bf8 <_ZN9TimeClass4zoneEf+0x3c>)
   d9bec:	e9c3 0100 	strd	r0, r1, [r3]
}
   d9bf0:	bd08      	pop	{r3, pc}
   d9bf2:	bf00      	nop
   d9bf4:	45610000 	.word	0x45610000
   d9bf8:	2003e688 	.word	0x2003e688

000d9bfc <_ZN9TimeClass12setDSTOffsetEf>:
    return dst_cache / 3600.0;
}

void TimeClass::setDSTOffset(float offset)
{
    if (offset < 0 || offset > 2)
   d9bfc:	eeb5 0ac0 	vcmpe.f32	s0, #0.0
   d9c00:	eef1 fa10 	vmrs	APSR_nzcv, fpscr
{
   d9c04:	b508      	push	{r3, lr}
    if (offset < 0 || offset > 2)
   d9c06:	d411      	bmi.n	d9c2c <_ZN9TimeClass12setDSTOffsetEf+0x30>
   d9c08:	eef0 7a00 	vmov.f32	s15, #0	; 0x40000000  2.0
   d9c0c:	eeb4 0ae7 	vcmpe.f32	s0, s15
   d9c10:	eef1 fa10 	vmrs	APSR_nzcv, fpscr
   d9c14:	dc0a      	bgt.n	d9c2c <_ZN9TimeClass12setDSTOffsetEf+0x30>
    {
        return;
    }
    dst_cache = offset * 3600;
   d9c16:	eddf 7a06 	vldr	s15, [pc, #24]	; d9c30 <_ZN9TimeClass12setDSTOffsetEf+0x34>
   d9c1a:	ee60 7a27 	vmul.f32	s15, s0, s15
   d9c1e:	ee17 0a90 	vmov	r0, s15
   d9c22:	f001 f845 	bl	dacb0 <__aeabi_f2lz>
   d9c26:	4b03      	ldr	r3, [pc, #12]	; (d9c34 <_ZN9TimeClass12setDSTOffsetEf+0x38>)
   d9c28:	e9c3 0100 	strd	r0, r1, [r3]
}
   d9c2c:	bd08      	pop	{r3, pc}
   d9c2e:	bf00      	nop
   d9c30:	45610000 	.word	0x45610000
   d9c34:	2003e188 	.word	0x2003e188

000d9c38 <_ZN9TimeClass8beginDSTEv>:

void TimeClass::beginDST()
{
    dst_current_cache = dst_cache;
   d9c38:	4b03      	ldr	r3, [pc, #12]	; (d9c48 <_ZN9TimeClass8beginDSTEv+0x10>)
   d9c3a:	e9d3 0100 	ldrd	r0, r1, [r3]
   d9c3e:	4b03      	ldr	r3, [pc, #12]	; (d9c4c <_ZN9TimeClass8beginDSTEv+0x14>)
   d9c40:	e9c3 0100 	strd	r0, r1, [r3]
}
   d9c44:	4770      	bx	lr
   d9c46:	bf00      	nop
   d9c48:	2003e188 	.word	0x2003e188
   d9c4c:	2003e680 	.word	0x2003e680

000d9c50 <_ZN9TimeClass6endDSTEv>:

void TimeClass::endDST()
{
    dst_current_cache = 0;
   d9c50:	4b02      	ldr	r3, [pc, #8]	; (d9c5c <_ZN9TimeClass6endDSTEv+0xc>)
   d9c52:	2000      	movs	r0, #0
   d9c54:	2100      	movs	r1, #0
   d9c56:	e9c3 0100 	strd	r0, r1, [r3]
}
   d9c5a:	4770      	bx	lr
   d9c5c:	2003e680 	.word	0x2003e680

000d9c60 <_ZN9TimeClass7setTimeEx>:
    return !(dst_current_cache == 0);
}

/* set the given time as unix/rtc time */
void TimeClass::setTime(time_t t)
{
   d9c60:	b51f      	push	{r0, r1, r2, r3, r4, lr}
   d9c62:	4602      	mov	r2, r0
   d9c64:	460b      	mov	r3, r1
    struct timeval tv = {
        .tv_sec = t,
        .tv_usec = 0
    };
    if (!hal_rtc_set_time(&tv, nullptr)) {
   d9c66:	4668      	mov	r0, sp
    struct timeval tv = {
   d9c68:	2100      	movs	r1, #0
    };
   d9c6a:	e9cd 2300 	strd	r2, r3, [sp]
    struct timeval tv = {
   d9c6e:	e9cd 1102 	strd	r1, r1, [sp, #8]
    if (!hal_rtc_set_time(&tv, nullptr)) {
   d9c72:	f7fe faab 	bl	d81cc <hal_rtc_set_time>
   d9c76:	4602      	mov	r2, r0
   d9c78:	b910      	cbnz	r0, d9c80 <_ZN9TimeClass7setTimeEx+0x20>
        system_notify_time_changed((uint32_t)time_changed_manually, nullptr, nullptr);
   d9c7a:	4601      	mov	r1, r0
   d9c7c:	f7fe fc80 	bl	d8580 <system_notify_time_changed>
    }
}
   d9c80:	b005      	add	sp, #20
   d9c82:	f85d fb04 	ldr.w	pc, [sp], #4
	...

000d9c88 <_ZN9TimeClass7timeStrEx>:

/* return string representation for the given time */
String TimeClass::timeStr(time_t t)
{
   d9c88:	b530      	push	{r4, r5, lr}
   d9c8a:	4604      	mov	r4, r0
    t += time_zone_cache;
   d9c8c:	4818      	ldr	r0, [pc, #96]	; (d9cf0 <_ZN9TimeClass7timeStrEx+0x68>)
   d9c8e:	e9d0 1000 	ldrd	r1, r0, [r0]
   d9c92:	1852      	adds	r2, r2, r1
   d9c94:	eb40 0303 	adc.w	r3, r0, r3
    t += dst_current_cache;
   d9c98:	4816      	ldr	r0, [pc, #88]	; (d9cf4 <_ZN9TimeClass7timeStrEx+0x6c>)
   d9c9a:	e9d0 1000 	ldrd	r1, r0, [r0]
   d9c9e:	1852      	adds	r2, r2, r1
{
   d9ca0:	b093      	sub	sp, #76	; 0x4c
    t += dst_current_cache;
   d9ca2:	eb40 0303 	adc.w	r3, r0, r3
   d9ca6:	e9cd 2300 	strd	r2, r3, [sp]
    struct tm calendar_time = {};
   d9caa:	2224      	movs	r2, #36	; 0x24
   d9cac:	eb0d 0002 	add.w	r0, sp, r2
   d9cb0:	2100      	movs	r1, #0
   d9cb2:	f001 f8a7 	bl	dae04 <memset>
    localtime_r(&t, &calendar_time);
    char ascstr[26] = {};
   d9cb6:	2500      	movs	r5, #0
    localtime_r(&t, &calendar_time);
   d9cb8:	a909      	add	r1, sp, #36	; 0x24
   d9cba:	4668      	mov	r0, sp
   d9cbc:	f7fe fdaa 	bl	d8814 <localtime_r>
    char ascstr[26] = {};
   d9cc0:	2216      	movs	r2, #22
   d9cc2:	4629      	mov	r1, r5
   d9cc4:	a803      	add	r0, sp, #12
   d9cc6:	9502      	str	r5, [sp, #8]
   d9cc8:	f001 f89c 	bl	dae04 <memset>
    asctime_r(&calendar_time, ascstr);
   d9ccc:	a902      	add	r1, sp, #8
   d9cce:	a809      	add	r0, sp, #36	; 0x24
   d9cd0:	f001 f822 	bl	dad18 <asctime_r>
    int len = strlen(ascstr);
   d9cd4:	a802      	add	r0, sp, #8
   d9cd6:	f001 f8f0 	bl	daeba <strlen>
    ascstr[len-1] = 0; // remove final newline
   d9cda:	ab12      	add	r3, sp, #72	; 0x48
   d9cdc:	4418      	add	r0, r3
    return String(ascstr);
   d9cde:	a902      	add	r1, sp, #8
    ascstr[len-1] = 0; // remove final newline
   d9ce0:	f800 5c41 	strb.w	r5, [r0, #-65]
    return String(ascstr);
   d9ce4:	4620      	mov	r0, r4
   d9ce6:	f7ff fd7e 	bl	d97e6 <_ZN6StringC1EPKc>
}
   d9cea:	4620      	mov	r0, r4
   d9cec:	b013      	add	sp, #76	; 0x4c
   d9cee:	bd30      	pop	{r4, r5, pc}
   d9cf0:	2003e688 	.word	0x2003e688
   d9cf4:	2003e680 	.word	0x2003e680

000d9cf8 <_ZN9TimeClass14timeFormatImplEP2tmPKci>:
    localtime_r(&t, &calendar_time);
    return timeFormatImpl(&calendar_time, format_spec, time_zone_cache + dst_current_cache);
}

String TimeClass::timeFormatImpl(tm* calendar_time, const char* format, int time_zone)
{
   d9cf8:	e92d 4ff0 	stmdb	sp!, {r4, r5, r6, r7, r8, r9, sl, fp, lr}
   d9cfc:	b0a5      	sub	sp, #148	; 0x94
   d9cfe:	4607      	mov	r7, r0
   d9d00:	4688      	mov	r8, r1
    char format_str[64];
    // only copy up to n-1 to dest if no null terminator found
    strncpy(format_str, format, sizeof(format_str) - 1); // Flawfinder: ignore (ch42318)
   d9d02:	a814      	add	r0, sp, #80	; 0x50
{
   d9d04:	4611      	mov	r1, r2
    strncpy(format_str, format, sizeof(format_str) - 1); // Flawfinder: ignore (ch42318)
   d9d06:	223f      	movs	r2, #63	; 0x3f
{
   d9d08:	461d      	mov	r5, r3
    strncpy(format_str, format, sizeof(format_str) - 1); // Flawfinder: ignore (ch42318)
   d9d0a:	f001 f8de 	bl	daeca <strncpy>
    format_str[sizeof(format_str) - 1] = '\0'; // ensure null termination
   d9d0e:	2300      	movs	r3, #0
    size_t len = strlen(format_str); // Flawfinder: ignore (ch42318)
   d9d10:	a814      	add	r0, sp, #80	; 0x50
    format_str[sizeof(format_str) - 1] = '\0'; // ensure null termination
   d9d12:	f88d 308f 	strb.w	r3, [sp, #143]	; 0x8f
    size_t len = strlen(format_str); // Flawfinder: ignore (ch42318)
   d9d16:	f001 f8d0 	bl	daeba <strlen>
   d9d1a:	4604      	mov	r4, r0

    char time_zone_str[16];
    // while we are not using stdlib for managing the timezone, we have to do this manually
    if (!time_zone) {
   d9d1c:	bb5d      	cbnz	r5, d9d76 <_ZN9TimeClass14timeFormatImplEP2tmPKci+0x7e>
        strcpy(time_zone_str, "Z");
   d9d1e:	492a      	ldr	r1, [pc, #168]	; (d9dc8 <_ZN9TimeClass14timeFormatImplEP2tmPKci+0xd0>)
   d9d20:	a803      	add	r0, sp, #12
   d9d22:	f001 f8a5 	bl	dae70 <strcpy>
   d9d26:	ae14      	add	r6, sp, #80	; 0x50
{
   d9d28:	2500      	movs	r5, #0
    else {
        snprintf(time_zone_str, sizeof(time_zone_str), "%+03d:%02u", time_zone/3600, abs(time_zone/60)%60);
    }

    // replace %z with the timezone
    for (size_t i=0; i<len-1; i++)
   d9d2a:	f104 3bff 	add.w	fp, r4, #4294967295	; 0xffffffff
   d9d2e:	45ab      	cmp	fp, r5
   d9d30:	d936      	bls.n	d9da0 <_ZN9TimeClass14timeFormatImplEP2tmPKci+0xa8>
    {
        if (format_str[i]=='%' && format_str[i+1]=='z')
   d9d32:	46b1      	mov	r9, r6
   d9d34:	f105 0a01 	add.w	sl, r5, #1
   d9d38:	f819 3b01 	ldrb.w	r3, [r9], #1
   d9d3c:	2b25      	cmp	r3, #37	; 0x25
   d9d3e:	d117      	bne.n	d9d70 <_ZN9TimeClass14timeFormatImplEP2tmPKci+0x78>
   d9d40:	7873      	ldrb	r3, [r6, #1]
   d9d42:	2b7a      	cmp	r3, #122	; 0x7a
   d9d44:	d114      	bne.n	d9d70 <_ZN9TimeClass14timeFormatImplEP2tmPKci+0x78>
        {
            size_t tzlen = strlen(time_zone_str);
   d9d46:	a803      	add	r0, sp, #12
   d9d48:	f001 f8b7 	bl	daeba <strlen>
            memcpy(format_str+i+tzlen, format_str+i+2, len-i-1);    // +1 include the 0 char
   d9d4c:	ab14      	add	r3, sp, #80	; 0x50
            size_t tzlen = strlen(time_zone_str);
   d9d4e:	4604      	mov	r4, r0
            memcpy(format_str+i+tzlen, format_str+i+2, len-i-1);    // +1 include the 0 char
   d9d50:	1828      	adds	r0, r5, r0
   d9d52:	4418      	add	r0, r3
   d9d54:	ebab 0205 	sub.w	r2, fp, r5
   d9d58:	1cb1      	adds	r1, r6, #2
   d9d5a:	f001 f82b 	bl	dadb4 <memcpy>
            memcpy(format_str+i, time_zone_str, tzlen);
   d9d5e:	4622      	mov	r2, r4
   d9d60:	a903      	add	r1, sp, #12
   d9d62:	4630      	mov	r0, r6
   d9d64:	f001 f826 	bl	dadb4 <memcpy>
            len = strlen(format_str);
   d9d68:	a814      	add	r0, sp, #80	; 0x50
   d9d6a:	f001 f8a6 	bl	daeba <strlen>
   d9d6e:	4604      	mov	r4, r0
    for (size_t i=0; i<len-1; i++)
   d9d70:	464e      	mov	r6, r9
   d9d72:	4655      	mov	r5, sl
   d9d74:	e7d9      	b.n	d9d2a <_ZN9TimeClass14timeFormatImplEP2tmPKci+0x32>
        snprintf(time_zone_str, sizeof(time_zone_str), "%+03d:%02u", time_zone/3600, abs(time_zone/60)%60);
   d9d76:	213c      	movs	r1, #60	; 0x3c
   d9d78:	fb95 f3f1 	sdiv	r3, r5, r1
   d9d7c:	2b00      	cmp	r3, #0
   d9d7e:	bfb8      	it	lt
   d9d80:	425b      	neglt	r3, r3
   d9d82:	fbb3 f2f1 	udiv	r2, r3, r1
   d9d86:	fb01 3312 	mls	r3, r1, r2, r3
   d9d8a:	9300      	str	r3, [sp, #0]
   d9d8c:	4a0f      	ldr	r2, [pc, #60]	; (d9dcc <_ZN9TimeClass14timeFormatImplEP2tmPKci+0xd4>)
   d9d8e:	f44f 6361 	mov.w	r3, #3600	; 0xe10
   d9d92:	2110      	movs	r1, #16
   d9d94:	a803      	add	r0, sp, #12
   d9d96:	fb95 f3f3 	sdiv	r3, r5, r3
   d9d9a:	f7fe fd0b 	bl	d87b4 <snprintf>
   d9d9e:	e7c2      	b.n	d9d26 <_ZN9TimeClass14timeFormatImplEP2tmPKci+0x2e>
        }
    }

    char buf[50] = {};
   d9da0:	2100      	movs	r1, #0
   d9da2:	222e      	movs	r2, #46	; 0x2e
   d9da4:	a808      	add	r0, sp, #32
   d9da6:	9107      	str	r1, [sp, #28]
   d9da8:	f001 f82c 	bl	dae04 <memset>
    strftime(buf, sizeof(buf), format_str, calendar_time);
   d9dac:	4643      	mov	r3, r8
   d9dae:	aa14      	add	r2, sp, #80	; 0x50
   d9db0:	2132      	movs	r1, #50	; 0x32
   d9db2:	a807      	add	r0, sp, #28
   d9db4:	f7fe fd26 	bl	d8804 <strftime>
    return String(buf);
   d9db8:	a907      	add	r1, sp, #28
   d9dba:	4638      	mov	r0, r7
   d9dbc:	f7ff fd13 	bl	d97e6 <_ZN6StringC1EPKc>
}
   d9dc0:	4638      	mov	r0, r7
   d9dc2:	b025      	add	sp, #148	; 0x94
   d9dc4:	e8bd 8ff0 	ldmia.w	sp!, {r4, r5, r6, r7, r8, r9, sl, fp, pc}
   d9dc8:	000dbab6 	.word	0x000dbab6
   d9dcc:	000dbab8 	.word	0x000dbab8

000d9dd0 <_ZN9TimeClass6formatExPKc>:
{
   d9dd0:	b5f0      	push	{r4, r5, r6, r7, lr}
   d9dd2:	b08d      	sub	sp, #52	; 0x34
   d9dd4:	e9cd 2300 	strd	r2, r3, [sp]
   d9dd8:	9d12      	ldr	r5, [sp, #72]	; 0x48
   d9dda:	4604      	mov	r4, r0
    if (format_spec == nullptr)
   d9ddc:	b915      	cbnz	r5, d9de4 <_ZN9TimeClass6formatExPKc+0x14>
        format_spec = this->format_spec;
   d9dde:	4b19      	ldr	r3, [pc, #100]	; (d9e44 <_ZN9TimeClass6formatExPKc+0x74>)
   d9de0:	681d      	ldr	r5, [r3, #0]
    if (!format_spec || !strcmp(format_spec, TIME_FORMAT_DEFAULT)) {
   d9de2:	b12d      	cbz	r5, d9df0 <_ZN9TimeClass6formatExPKc+0x20>
   d9de4:	4b18      	ldr	r3, [pc, #96]	; (d9e48 <_ZN9TimeClass6formatExPKc+0x78>)
   d9de6:	4628      	mov	r0, r5
   d9de8:	6819      	ldr	r1, [r3, #0]
   d9dea:	f001 f837 	bl	dae5c <strcmp>
   d9dee:	b938      	cbnz	r0, d9e00 <_ZN9TimeClass6formatExPKc+0x30>
        return timeStr(t);
   d9df0:	e9dd 2300 	ldrd	r2, r3, [sp]
   d9df4:	4620      	mov	r0, r4
   d9df6:	f7ff ff47 	bl	d9c88 <_ZN9TimeClass7timeStrEx>
}
   d9dfa:	4620      	mov	r0, r4
   d9dfc:	b00d      	add	sp, #52	; 0x34
   d9dfe:	bdf0      	pop	{r4, r5, r6, r7, pc}
    t += time_zone_cache;
   d9e00:	4e12      	ldr	r6, [pc, #72]	; (d9e4c <_ZN9TimeClass6formatExPKc+0x7c>)
   d9e02:	9900      	ldr	r1, [sp, #0]
    t += dst_current_cache;
   d9e04:	4f12      	ldr	r7, [pc, #72]	; (d9e50 <_ZN9TimeClass6formatExPKc+0x80>)
    t += time_zone_cache;
   d9e06:	e9d6 3200 	ldrd	r3, r2, [r6]
   d9e0a:	185b      	adds	r3, r3, r1
   d9e0c:	9901      	ldr	r1, [sp, #4]
   d9e0e:	eb41 0202 	adc.w	r2, r1, r2
    t += dst_current_cache;
   d9e12:	e9d7 0100 	ldrd	r0, r1, [r7]
   d9e16:	181b      	adds	r3, r3, r0
   d9e18:	eb41 0202 	adc.w	r2, r1, r2
   d9e1c:	e9cd 3200 	strd	r3, r2, [sp]
    struct tm calendar_time = {};
   d9e20:	2100      	movs	r1, #0
   d9e22:	2224      	movs	r2, #36	; 0x24
   d9e24:	a803      	add	r0, sp, #12
   d9e26:	f000 ffed 	bl	dae04 <memset>
    localtime_r(&t, &calendar_time);
   d9e2a:	a903      	add	r1, sp, #12
   d9e2c:	4668      	mov	r0, sp
   d9e2e:	f7fe fcf1 	bl	d8814 <localtime_r>
    return timeFormatImpl(&calendar_time, format_spec, time_zone_cache + dst_current_cache);
   d9e32:	6832      	ldr	r2, [r6, #0]
   d9e34:	683b      	ldr	r3, [r7, #0]
   d9e36:	a903      	add	r1, sp, #12
   d9e38:	4413      	add	r3, r2
   d9e3a:	4620      	mov	r0, r4
   d9e3c:	462a      	mov	r2, r5
   d9e3e:	f7ff ff5b 	bl	d9cf8 <_ZN9TimeClass14timeFormatImplEP2tmPKci>
   d9e42:	e7da      	b.n	d9dfa <_ZN9TimeClass6formatExPKc+0x2a>
   d9e44:	2003e654 	.word	0x2003e654
   d9e48:	2003e184 	.word	0x2003e184
   d9e4c:	2003e688 	.word	0x2003e688
   d9e50:	2003e680 	.word	0x2003e680

000d9e54 <_ZN9TimeClass7isValidEv>:

bool TimeClass::isValid()
{
   d9e54:	b510      	push	{r4, lr}
    bool rtcstate = hal_rtc_time_is_valid(nullptr);
   d9e56:	2000      	movs	r0, #0
   d9e58:	f7fe f9a0 	bl	d819c <hal_rtc_time_is_valid>
    if (rtcstate)
   d9e5c:	4604      	mov	r4, r0
   d9e5e:	b9a0      	cbnz	r0, d9e8a <_ZN9TimeClass7isValidEv+0x36>
    }

    static System_Mode_TypeDef mode(void) {
        return system_mode();
   d9e60:	f7fe fb46 	bl	d84f0 <system_mode>
        return rtcstate;
    if (System.mode() == AUTOMATIC && system_thread_get_state(nullptr) == spark::feature::DISABLED)
   d9e64:	2801      	cmp	r0, #1
   d9e66:	d110      	bne.n	d9e8a <_ZN9TimeClass7isValidEv+0x36>
   d9e68:	4620      	mov	r0, r4
   d9e6a:	f7fe fb81 	bl	d8570 <system_thread_get_state>
   d9e6e:	b960      	cbnz	r0, d9e8a <_ZN9TimeClass7isValidEv+0x36>
    {
        waitUntil(Particle.syncTimeDone);
   d9e70:	f7ff fe82 	bl	d9b78 <_ZN10CloudClass12syncTimeDoneEv.isra.0>


    static uint32_t freeMemory();

    template<typename Condition, typename While> static bool waitConditionWhile(Condition _condition, While _while) {
        while (_while() && !_condition()) {
   d9e74:	b910      	cbnz	r0, d9e7c <_ZN9TimeClass7isValidEv+0x28>
            spark_process();
   d9e76:	f7fe fbcd 	bl	d8614 <spark_process>
        while (_while() && !_condition()) {
   d9e7a:	e7f9      	b.n	d9e70 <_ZN9TimeClass7isValidEv+0x1c>
   d9e7c:	f7ff fe7c 	bl	d9b78 <_ZN10CloudClass12syncTimeDoneEv.isra.0>
        return hal_rtc_time_is_valid(nullptr);
    }
    return rtcstate;
}
   d9e80:	e8bd 4010 	ldmia.w	sp!, {r4, lr}
        return hal_rtc_time_is_valid(nullptr);
   d9e84:	2000      	movs	r0, #0
   d9e86:	f7fe b989 	b.w	d819c <hal_rtc_time_is_valid>
}
   d9e8a:	4620      	mov	r0, r4
   d9e8c:	bd10      	pop	{r4, pc}

000d9e8e <_ZN9TimeClass3nowEv>:
{
   d9e8e:	b51f      	push	{r0, r1, r2, r3, r4, lr}
    (void)isValid();
   d9e90:	f7ff ffe0 	bl	d9e54 <_ZN9TimeClass7isValidEv>
    struct timeval tv = {};
   d9e94:	2210      	movs	r2, #16
   d9e96:	2100      	movs	r1, #0
   d9e98:	4668      	mov	r0, sp
   d9e9a:	f000 ffb3 	bl	dae04 <memset>
    hal_rtc_get_time(&tv, nullptr);
   d9e9e:	2100      	movs	r1, #0
   d9ea0:	4668      	mov	r0, sp
   d9ea2:	f7fe f98b 	bl	d81bc <hal_rtc_get_time>
}
   d9ea6:	9800      	ldr	r0, [sp, #0]
   d9ea8:	b005      	add	sp, #20
   d9eaa:	f85d fb04 	ldr.w	pc, [sp], #4
	...

000d9eb0 <_ZN9TimeClass4hourEv>:
{
   d9eb0:	b508      	push	{r3, lr}
	return hour(now());
   d9eb2:	f7ff ffec 	bl	d9e8e <_ZN9TimeClass3nowEv>
	Refresh_UnixTime_Cache(t);
   d9eb6:	17c1      	asrs	r1, r0, #31
   d9eb8:	f7ff fe28 	bl	d9b0c <_ZL22Refresh_UnixTime_Cachex>
}
   d9ebc:	4b01      	ldr	r3, [pc, #4]	; (d9ec4 <_ZN9TimeClass4hourEv+0x14>)
   d9ebe:	6898      	ldr	r0, [r3, #8]
   d9ec0:	bd08      	pop	{r3, pc}
   d9ec2:	bf00      	nop
   d9ec4:	2003e658 	.word	0x2003e658

000d9ec8 <_ZN9TimeClass6minuteEv>:
{
   d9ec8:	b508      	push	{r3, lr}
	return minute(now());
   d9eca:	f7ff ffe0 	bl	d9e8e <_ZN9TimeClass3nowEv>
	Refresh_UnixTime_Cache(t);
   d9ece:	17c1      	asrs	r1, r0, #31
   d9ed0:	f7ff fe1c 	bl	d9b0c <_ZL22Refresh_UnixTime_Cachex>
}
   d9ed4:	4b01      	ldr	r3, [pc, #4]	; (d9edc <_ZN9TimeClass6minuteEv+0x14>)
   d9ed6:	6858      	ldr	r0, [r3, #4]
   d9ed8:	bd08      	pop	{r3, pc}
   d9eda:	bf00      	nop
   d9edc:	2003e658 	.word	0x2003e658

000d9ee0 <_ZN9TimeClass3dayEv>:
{
   d9ee0:	b508      	push	{r3, lr}
	return day(now());
   d9ee2:	f7ff ffd4 	bl	d9e8e <_ZN9TimeClass3nowEv>
	Refresh_UnixTime_Cache(t);
   d9ee6:	17c1      	asrs	r1, r0, #31
   d9ee8:	f7ff fe10 	bl	d9b0c <_ZL22Refresh_UnixTime_Cachex>
}
   d9eec:	4b01      	ldr	r3, [pc, #4]	; (d9ef4 <_ZN9TimeClass3dayEv+0x14>)
   d9eee:	68d8      	ldr	r0, [r3, #12]
   d9ef0:	bd08      	pop	{r3, pc}
   d9ef2:	bf00      	nop
   d9ef4:	2003e658 	.word	0x2003e658

000d9ef8 <_ZN9TimeClass7weekdayEv>:
{
   d9ef8:	b508      	push	{r3, lr}
	return weekday(now());
   d9efa:	f7ff ffc8 	bl	d9e8e <_ZN9TimeClass3nowEv>
}
   d9efe:	e8bd 4008 	ldmia.w	sp!, {r3, lr}
	return weekday(now());
   d9f02:	17c1      	asrs	r1, r0, #31
   d9f04:	f7ff be46 	b.w	d9b94 <_ZN9TimeClass7weekdayEx>

000d9f08 <_ZN9TimeClass5monthEv>:
{
   d9f08:	b508      	push	{r3, lr}
	return month(now());
   d9f0a:	f7ff ffc0 	bl	d9e8e <_ZN9TimeClass3nowEv>
}
   d9f0e:	e8bd 4008 	ldmia.w	sp!, {r3, lr}
	return month(now());
   d9f12:	17c1      	asrs	r1, r0, #31
   d9f14:	f7ff be48 	b.w	d9ba8 <_ZN9TimeClass5monthEx>

000d9f18 <_ZN9TimeClass5localEv>:
{
   d9f18:	b508      	push	{r3, lr}
	return now() + time_zone_cache + dst_current_cache;
   d9f1a:	f7ff ffb8 	bl	d9e8e <_ZN9TimeClass3nowEv>
   d9f1e:	4b03      	ldr	r3, [pc, #12]	; (d9f2c <_ZN9TimeClass5localEv+0x14>)
   d9f20:	4a03      	ldr	r2, [pc, #12]	; (d9f30 <_ZN9TimeClass5localEv+0x18>)
   d9f22:	681b      	ldr	r3, [r3, #0]
   d9f24:	6812      	ldr	r2, [r2, #0]
   d9f26:	4413      	add	r3, r2
}
   d9f28:	4418      	add	r0, r3
   d9f2a:	bd08      	pop	{r3, pc}
   d9f2c:	2003e688 	.word	0x2003e688
   d9f30:	2003e680 	.word	0x2003e680

000d9f34 <_GLOBAL__sub_I_TIME_FORMAT_DEFAULT>:
const char* TimeClass::format_spec = TIME_FORMAT_DEFAULT;
   d9f34:	4b02      	ldr	r3, [pc, #8]	; (d9f40 <_GLOBAL__sub_I_TIME_FORMAT_DEFAULT+0xc>)
   d9f36:	681a      	ldr	r2, [r3, #0]
   d9f38:	4b02      	ldr	r3, [pc, #8]	; (d9f44 <_GLOBAL__sub_I_TIME_FORMAT_DEFAULT+0x10>)
   d9f3a:	601a      	str	r2, [r3, #0]
{
  return isValid();
}


TimeClass Time;
   d9f3c:	4770      	bx	lr
   d9f3e:	bf00      	nop
   d9f40:	2003e184 	.word	0x2003e184
   d9f44:	2003e654 	.word	0x2003e654

000d9f48 <_ZN11USARTSerialD1Ev>:
private:
  hal_usart_interface_t _serial;
  bool _blocking;
public:
  USARTSerial(hal_usart_interface_t serial, hal_usart_ring_buffer_t *rx_buffer, hal_usart_ring_buffer_t *tx_buffer);
  virtual ~USARTSerial() {};
   d9f48:	4770      	bx	lr

000d9f4a <_ZN11USARTSerial14blockOnOverrunEb>:
    hal_usart_half_duplex(_serial, Enable);
}

void USARTSerial::blockOnOverrun(bool block)
{
  _blocking = block;
   d9f4a:	7441      	strb	r1, [r0, #17]
}
   d9f4c:	4770      	bx	lr

000d9f4e <_ZN11USARTSerial17availableForWriteEv>:


int USARTSerial::availableForWrite(void)
{
   d9f4e:	b508      	push	{r3, lr}
  return std::max(0, (int)hal_usart_available_data_for_write(_serial));
   d9f50:	7c00      	ldrb	r0, [r0, #16]
   d9f52:	f7fe fa73 	bl	d843c <hal_usart_available_data_for_write>
}
   d9f56:	ea20 70e0 	bic.w	r0, r0, r0, asr #31
   d9f5a:	bd08      	pop	{r3, pc}

000d9f5c <_ZN11USARTSerial9availableEv>:

int USARTSerial::available(void)
{
   d9f5c:	b508      	push	{r3, lr}
  return std::max(0, (int)hal_usart_available(_serial));
   d9f5e:	7c00      	ldrb	r0, [r0, #16]
   d9f60:	f7fe fa44 	bl	d83ec <hal_usart_available>
}
   d9f64:	ea20 70e0 	bic.w	r0, r0, r0, asr #31
   d9f68:	bd08      	pop	{r3, pc}

000d9f6a <_ZN11USARTSerial4peekEv>:

int USARTSerial::peek(void)
{
   d9f6a:	b508      	push	{r3, lr}
  return std::max(-1, (int)hal_usart_peek(_serial));
   d9f6c:	7c00      	ldrb	r0, [r0, #16]
   d9f6e:	f7fe fa4d 	bl	d840c <hal_usart_peek>
}
   d9f72:	ea40 70e0 	orr.w	r0, r0, r0, asr #31
   d9f76:	bd08      	pop	{r3, pc}

000d9f78 <_ZN11USARTSerial4readEv>:

int USARTSerial::read(void)
{
   d9f78:	b508      	push	{r3, lr}
  return std::max(-1, (int)hal_usart_read(_serial));
   d9f7a:	7c00      	ldrb	r0, [r0, #16]
   d9f7c:	f7fe fa3e 	bl	d83fc <hal_usart_read>
}
   d9f80:	ea40 70e0 	orr.w	r0, r0, r0, asr #31
   d9f84:	bd08      	pop	{r3, pc}

000d9f86 <_ZN11USARTSerial5flushEv>:

void USARTSerial::flush()
{
  hal_usart_flush(_serial);
   d9f86:	7c00      	ldrb	r0, [r0, #16]
   d9f88:	f7fe ba48 	b.w	d841c <hal_usart_flush>

000d9f8c <_ZN11USARTSerial5writeEh>:
}

size_t USARTSerial::write(uint8_t c)
{
   d9f8c:	b537      	push	{r0, r1, r2, r4, r5, lr}
  // attempt a write if blocking, or for non-blocking if there is room.
  if (_blocking || hal_usart_available_data_for_write(_serial) > 0) {
   d9f8e:	7c45      	ldrb	r5, [r0, #17]
{
   d9f90:	4604      	mov	r4, r0
  if (_blocking || hal_usart_available_data_for_write(_serial) > 0) {
   d9f92:	b12d      	cbz	r5, d9fa0 <_ZN11USARTSerial5writeEh+0x14>
    // the HAL always blocks.
	  return hal_usart_write(_serial, c);
   d9f94:	7c20      	ldrb	r0, [r4, #16]
  }
  return 0;
}
   d9f96:	b003      	add	sp, #12
   d9f98:	e8bd 4030 	ldmia.w	sp!, {r4, r5, lr}
	  return hal_usart_write(_serial, c);
   d9f9c:	f7fe ba1e 	b.w	d83dc <hal_usart_write>
  if (_blocking || hal_usart_available_data_for_write(_serial) > 0) {
   d9fa0:	7c00      	ldrb	r0, [r0, #16]
   d9fa2:	9101      	str	r1, [sp, #4]
   d9fa4:	f7fe fa4a 	bl	d843c <hal_usart_available_data_for_write>
   d9fa8:	2800      	cmp	r0, #0
   d9faa:	9901      	ldr	r1, [sp, #4]
   d9fac:	dcf2      	bgt.n	d9f94 <_ZN11USARTSerial5writeEh+0x8>
}
   d9fae:	4628      	mov	r0, r5
   d9fb0:	b003      	add	sp, #12
   d9fb2:	bd30      	pop	{r4, r5, pc}

000d9fb4 <_ZN11USARTSerialD0Ev>:
   d9fb4:	b510      	push	{r4, lr}
   d9fb6:	2114      	movs	r1, #20
   d9fb8:	4604      	mov	r4, r0
   d9fba:	f000 fa32 	bl	da422 <_ZdlPvj>
   d9fbe:	4620      	mov	r0, r4
   d9fc0:	bd10      	pop	{r4, pc}
	...

000d9fc4 <_ZN11USARTSerialC1E21hal_usart_interface_tP23hal_usart_ring_buffer_tS2_>:
USARTSerial::USARTSerial(hal_usart_interface_t serial, hal_usart_ring_buffer_t *rx_buffer, hal_usart_ring_buffer_t *tx_buffer)
   d9fc4:	b510      	push	{r4, lr}
   d9fc6:	f04f 0c00 	mov.w	ip, #0
   d9fca:	4604      	mov	r4, r0
   d9fcc:	4608      	mov	r0, r1
   d9fce:	4611      	mov	r1, r2
   d9fd0:	f44f 727a 	mov.w	r2, #1000	; 0x3e8
   d9fd4:	e9c4 c201 	strd	ip, r2, [r4, #4]
   d9fd8:	4a04      	ldr	r2, [pc, #16]	; (d9fec <_ZN11USARTSerialC1E21hal_usart_interface_tP23hal_usart_ring_buffer_tS2_+0x28>)
   d9fda:	6022      	str	r2, [r4, #0]
  _blocking = true;
   d9fdc:	2201      	movs	r2, #1
  _serial = serial;
   d9fde:	7420      	strb	r0, [r4, #16]
  _blocking = true;
   d9fe0:	7462      	strb	r2, [r4, #17]
  hal_usart_init(serial, rx_buffer, tx_buffer);
   d9fe2:	461a      	mov	r2, r3
   d9fe4:	f7fe f9f2 	bl	d83cc <hal_usart_init>
}
   d9fe8:	4620      	mov	r0, r4
   d9fea:	bd10      	pop	{r4, pc}
   d9fec:	000dbae8 	.word	0x000dbae8

000d9ff0 <_Z22__fetch_global_Serial1v>:
static hal_usart_ring_buffer_t* serial1_rx_buffer = nullptr;
static hal_usart_ring_buffer_t* serial1_tx_buffer = nullptr;
#endif

USARTSerial& __fetch_global_Serial1()
{
   d9ff0:	b513      	push	{r0, r1, r4, lr}
#if ((MODULE_FUNCTION == MOD_FUNC_USER_PART) || (MODULE_FUNCTION == MOD_FUNC_MONO_FIRMWARE))
	static USARTSerial serial1(HAL_USART_SERIAL1, &serial1_rx_buffer, &serial1_tx_buffer);
   d9ff2:	4c0e      	ldr	r4, [pc, #56]	; (da02c <_Z22__fetch_global_Serial1v+0x3c>)
   d9ff4:	7821      	ldrb	r1, [r4, #0]
   d9ff6:	f3bf 8f5b 	dmb	ish
   d9ffa:	f011 0101 	ands.w	r1, r1, #1
   d9ffe:	d112      	bne.n	da026 <_Z22__fetch_global_Serial1v+0x36>
   da000:	4620      	mov	r0, r4
   da002:	9101      	str	r1, [sp, #4]
   da004:	f7fa f858 	bl	d40b8 <__cxa_guard_acquire>
   da008:	9901      	ldr	r1, [sp, #4]
   da00a:	b160      	cbz	r0, da026 <_Z22__fetch_global_Serial1v+0x36>
   da00c:	4a08      	ldr	r2, [pc, #32]	; (da030 <_Z22__fetch_global_Serial1v+0x40>)
   da00e:	4b09      	ldr	r3, [pc, #36]	; (da034 <_Z22__fetch_global_Serial1v+0x44>)
   da010:	4809      	ldr	r0, [pc, #36]	; (da038 <_Z22__fetch_global_Serial1v+0x48>)
   da012:	f7ff ffd7 	bl	d9fc4 <_ZN11USARTSerialC1E21hal_usart_interface_tP23hal_usart_ring_buffer_tS2_>
   da016:	4620      	mov	r0, r4
   da018:	f7fa f853 	bl	d40c2 <__cxa_guard_release>
   da01c:	4a07      	ldr	r2, [pc, #28]	; (da03c <_Z22__fetch_global_Serial1v+0x4c>)
   da01e:	4908      	ldr	r1, [pc, #32]	; (da040 <_Z22__fetch_global_Serial1v+0x50>)
   da020:	4805      	ldr	r0, [pc, #20]	; (da038 <_Z22__fetch_global_Serial1v+0x48>)
   da022:	f000 f9f9 	bl	da418 <__aeabi_atexit>
    serial1_tx_buffer = new hal_usart_ring_buffer_t();
  }
  static USARTSerial serial1(HAL_USART_SERIAL1, serial1_rx_buffer, serial1_tx_buffer);
#endif
	return serial1;
}
   da026:	4804      	ldr	r0, [pc, #16]	; (da038 <_Z22__fetch_global_Serial1v+0x48>)
   da028:	b002      	add	sp, #8
   da02a:	bd10      	pop	{r4, pc}
   da02c:	2003e698 	.word	0x2003e698
   da030:	2003e69c 	.word	0x2003e69c
   da034:	2003e720 	.word	0x2003e720
   da038:	2003e7a4 	.word	0x2003e7a4
   da03c:	2003e1f8 	.word	0x2003e1f8
   da040:	000d9f49 	.word	0x000d9f49

000da044 <_ZN9USBSerial14blockOnOverrunEb>:
  HAL_USB_USART_Flush_Data(_serial);
}

void USBSerial::blockOnOverrun(bool block)
{
  _blocking = block;
   da044:	7441      	strb	r1, [r0, #17]
}
   da046:	4770      	bx	lr

000da048 <_ZN9USBSerialD1Ev>:
#include "usb_hal.h"
#include "system_task.h"
#include "spark_wiring_startup.h"
#include "concurrent_hal.h"

class USBSerial : public Stream
   da048:	4770      	bx	lr

000da04a <_ZN9USBSerial4readEv>:
{
   da04a:	b508      	push	{r3, lr}
	return std::max(-1, (int)HAL_USB_USART_Receive_Data(_serial, false));
   da04c:	2100      	movs	r1, #0
   da04e:	7c00      	ldrb	r0, [r0, #16]
   da050:	f7fe fa14 	bl	d847c <HAL_USB_USART_Receive_Data>
}
   da054:	ea40 70e0 	orr.w	r0, r0, r0, asr #31
   da058:	bd08      	pop	{r3, pc}

000da05a <_ZN9USBSerial4peekEv>:

int USBSerial::peek()
{
   da05a:	b508      	push	{r3, lr}
	return std::max(-1, (int)HAL_USB_USART_Receive_Data(_serial, true));
   da05c:	2101      	movs	r1, #1
   da05e:	7c00      	ldrb	r0, [r0, #16]
   da060:	f7fe fa0c 	bl	d847c <HAL_USB_USART_Receive_Data>
}
   da064:	ea40 70e0 	orr.w	r0, r0, r0, asr #31
   da068:	bd08      	pop	{r3, pc}

000da06a <_ZN9USBSerial17availableForWriteEv>:
{
   da06a:	b508      	push	{r3, lr}
  return std::max(0, (int)HAL_USB_USART_Available_Data_For_Write(_serial));
   da06c:	7c00      	ldrb	r0, [r0, #16]
   da06e:	f7fe f9fd 	bl	d846c <HAL_USB_USART_Available_Data_For_Write>
}
   da072:	ea20 70e0 	bic.w	r0, r0, r0, asr #31
   da076:	bd08      	pop	{r3, pc}

000da078 <_ZN9USBSerial9availableEv>:
{
   da078:	b508      	push	{r3, lr}
	return std::max(0, (int)HAL_USB_USART_Available_Data(_serial));
   da07a:	7c00      	ldrb	r0, [r0, #16]
   da07c:	f7fe f9ee 	bl	d845c <HAL_USB_USART_Available_Data>
}
   da080:	ea20 70e0 	bic.w	r0, r0, r0, asr #31
   da084:	bd08      	pop	{r3, pc}

000da086 <_ZN9USBSerial5writeEh>:
{
   da086:	b513      	push	{r0, r1, r4, lr}
   da088:	4604      	mov	r4, r0
  if (HAL_USB_USART_Available_Data_For_Write(_serial) > 0 || _blocking) {
   da08a:	7c00      	ldrb	r0, [r0, #16]
{
   da08c:	9101      	str	r1, [sp, #4]
  if (HAL_USB_USART_Available_Data_For_Write(_serial) > 0 || _blocking) {
   da08e:	f7fe f9ed 	bl	d846c <HAL_USB_USART_Available_Data_For_Write>
   da092:	2800      	cmp	r0, #0
   da094:	9901      	ldr	r1, [sp, #4]
   da096:	dc01      	bgt.n	da09c <_ZN9USBSerial5writeEh+0x16>
   da098:	7c60      	ldrb	r0, [r4, #17]
   da09a:	b120      	cbz	r0, da0a6 <_ZN9USBSerial5writeEh+0x20>
    return std::max(0, (int)HAL_USB_USART_Send_Data(_serial, byte));
   da09c:	7c20      	ldrb	r0, [r4, #16]
   da09e:	f7fe f9f5 	bl	d848c <HAL_USB_USART_Send_Data>
   da0a2:	ea20 70e0 	bic.w	r0, r0, r0, asr #31
}
   da0a6:	b002      	add	sp, #8
   da0a8:	bd10      	pop	{r4, pc}

000da0aa <_ZN9USBSerial5flushEv>:
  HAL_USB_USART_Flush_Data(_serial);
   da0aa:	7c00      	ldrb	r0, [r0, #16]
   da0ac:	f7fe b9f6 	b.w	d849c <HAL_USB_USART_Flush_Data>

000da0b0 <_ZN9USBSerialD0Ev>:
   da0b0:	b510      	push	{r4, lr}
   da0b2:	2114      	movs	r1, #20
   da0b4:	4604      	mov	r4, r0
   da0b6:	f000 f9b4 	bl	da422 <_ZdlPvj>
   da0ba:	4620      	mov	r0, r4
   da0bc:	bd10      	pop	{r4, pc}
	...

000da0c0 <_ZN9USBSerialC1E20HAL_USB_USART_SerialRK20HAL_USB_USART_Config>:
USBSerial::USBSerial(HAL_USB_USART_Serial serial, const HAL_USB_USART_Config& conf)
   da0c0:	b510      	push	{r4, lr}
   da0c2:	f44f 737a 	mov.w	r3, #1000	; 0x3e8
   da0c6:	4604      	mov	r4, r0
   da0c8:	4608      	mov	r0, r1
   da0ca:	2100      	movs	r1, #0
   da0cc:	e9c4 1301 	strd	r1, r3, [r4, #4]
   da0d0:	4b04      	ldr	r3, [pc, #16]	; (da0e4 <_ZN9USBSerialC1E20HAL_USB_USART_SerialRK20HAL_USB_USART_Config+0x24>)
   da0d2:	6023      	str	r3, [r4, #0]
  _blocking = true;
   da0d4:	2301      	movs	r3, #1
  _serial = serial;
   da0d6:	7420      	strb	r0, [r4, #16]
  _blocking = true;
   da0d8:	7463      	strb	r3, [r4, #17]
  HAL_USB_USART_Init(_serial, &conf);
   da0da:	4611      	mov	r1, r2
   da0dc:	f7fe f9b6 	bl	d844c <HAL_USB_USART_Init>
}
   da0e0:	4620      	mov	r0, r4
   da0e2:	bd10      	pop	{r4, pc}
   da0e4:	000dbb18 	.word	0x000dbb18

000da0e8 <_Z19acquireSerialBufferv>:

// Preinstantiate Objects //////////////////////////////////////////////////////
#ifdef SPARK_USB_SERIAL

HAL_USB_USART_Config __attribute__((weak)) acquireSerialBuffer()
{
   da0e8:	b510      	push	{r4, lr}
  HAL_USB_USART_Config conf = {0};
   da0ea:	2214      	movs	r2, #20
{
   da0ec:	4604      	mov	r4, r0
  HAL_USB_USART_Config conf = {0};
   da0ee:	2100      	movs	r1, #0
   da0f0:	f000 fe88 	bl	dae04 <memset>
  conf.rx_buffer_size = USB_RX_BUFFER_SIZE;
  conf.tx_buffer_size = USB_TX_BUFFER_SIZE;
#endif

  return conf;
}
   da0f4:	4620      	mov	r0, r4
   da0f6:	bd10      	pop	{r4, pc}

000da0f8 <_Z16_fetch_usbserialv>:

USBSerial& _fetch_usbserial()
{
   da0f8:	b510      	push	{r4, lr}
  HAL_USB_USART_Config conf = acquireSerialBuffer();
	static USBSerial _usbserial(HAL_USB_USART_SERIAL, conf);
   da0fa:	4c10      	ldr	r4, [pc, #64]	; (da13c <_Z16_fetch_usbserialv+0x44>)
{
   da0fc:	b088      	sub	sp, #32
  HAL_USB_USART_Config conf = acquireSerialBuffer();
   da0fe:	a803      	add	r0, sp, #12
   da100:	f7ff fff2 	bl	da0e8 <_Z19acquireSerialBufferv>
	static USBSerial _usbserial(HAL_USB_USART_SERIAL, conf);
   da104:	7821      	ldrb	r1, [r4, #0]
   da106:	f3bf 8f5b 	dmb	ish
   da10a:	f011 0101 	ands.w	r1, r1, #1
   da10e:	d111      	bne.n	da134 <_Z16_fetch_usbserialv+0x3c>
   da110:	4620      	mov	r0, r4
   da112:	9101      	str	r1, [sp, #4]
   da114:	f7f9 ffd0 	bl	d40b8 <__cxa_guard_acquire>
   da118:	9901      	ldr	r1, [sp, #4]
   da11a:	b158      	cbz	r0, da134 <_Z16_fetch_usbserialv+0x3c>
   da11c:	aa03      	add	r2, sp, #12
   da11e:	4808      	ldr	r0, [pc, #32]	; (da140 <_Z16_fetch_usbserialv+0x48>)
   da120:	f7ff ffce 	bl	da0c0 <_ZN9USBSerialC1E20HAL_USB_USART_SerialRK20HAL_USB_USART_Config>
   da124:	4620      	mov	r0, r4
   da126:	f7f9 ffcc 	bl	d40c2 <__cxa_guard_release>
   da12a:	4a06      	ldr	r2, [pc, #24]	; (da144 <_Z16_fetch_usbserialv+0x4c>)
   da12c:	4906      	ldr	r1, [pc, #24]	; (da148 <_Z16_fetch_usbserialv+0x50>)
   da12e:	4804      	ldr	r0, [pc, #16]	; (da140 <_Z16_fetch_usbserialv+0x48>)
   da130:	f000 f972 	bl	da418 <__aeabi_atexit>
	return _usbserial;
}
   da134:	4802      	ldr	r0, [pc, #8]	; (da140 <_Z16_fetch_usbserialv+0x48>)
   da136:	b008      	add	sp, #32
   da138:	bd10      	pop	{r4, pc}
   da13a:	bf00      	nop
   da13c:	2003e7b8 	.word	0x2003e7b8
   da140:	2003e7bc 	.word	0x2003e7bc
   da144:	2003e1f8 	.word	0x2003e1f8
   da148:	000da049 	.word	0x000da049

000da14c <_ZZ21module_user_init_hookENUlP6_reentjmPvE_4_FUNES0_jmS1_>:

void module_user_init_hook()
{
#if HAL_PLATFORM_NEWLIB
    newlib_impure_ptr_callback([](struct _reent* r, size_t size, uint32_t version, void* ctx) -> void {
        _impure_ptr = r;
   da14c:	4b01      	ldr	r3, [pc, #4]	; (da154 <_ZZ21module_user_init_hookENUlP6_reentjmPvE_4_FUNES0_jmS1_+0x8>)
   da14e:	6018      	str	r0, [r3, #0]
    }, nullptr);
   da150:	4770      	bx	lr
   da152:	bf00      	nop
   da154:	2003e190 	.word	0x2003e190

000da158 <serialEventRun>:
{
   da158:	b508      	push	{r3, lr}
    if (serialEvent && Serial.available()>0)
   da15a:	4b0b      	ldr	r3, [pc, #44]	; (da188 <serialEventRun+0x30>)
   da15c:	b143      	cbz	r3, da170 <serialEventRun+0x18>
   da15e:	f7ff ffcb 	bl	da0f8 <_Z16_fetch_usbserialv>
   da162:	6803      	ldr	r3, [r0, #0]
   da164:	691b      	ldr	r3, [r3, #16]
   da166:	4798      	blx	r3
   da168:	2800      	cmp	r0, #0
   da16a:	dd01      	ble.n	da170 <serialEventRun+0x18>
        serialEvent();
   da16c:	f3af 8000 	nop.w
    if (serialEvent1 && Serial1.available()>0)
   da170:	4b06      	ldr	r3, [pc, #24]	; (da18c <serialEventRun+0x34>)
   da172:	b143      	cbz	r3, da186 <serialEventRun+0x2e>
   da174:	f7ff ff3c 	bl	d9ff0 <_Z22__fetch_global_Serial1v>
   da178:	6803      	ldr	r3, [r0, #0]
   da17a:	691b      	ldr	r3, [r3, #16]
   da17c:	4798      	blx	r3
   da17e:	2800      	cmp	r0, #0
   da180:	dd01      	ble.n	da186 <serialEventRun+0x2e>
        serialEvent1();
   da182:	f3af 8000 	nop.w
}
   da186:	bd08      	pop	{r3, pc}
	...

000da190 <_post_loop>:
{
   da190:	b508      	push	{r3, lr}
	serialEventRun();
   da192:	f7ff ffe1 	bl	da158 <serialEventRun>
		return !timeout_fn;
	}

	static inline system_tick_t current_time()
	{
		return HAL_Timer_Get_Milli_Seconds();
   da196:	f7fd ffe9 	bl	d816c <HAL_Timer_Get_Milli_Seconds>
	/**
	 * Lifesign that the application is still working normally.
	 */
	static void checkin()
	{
		last_checkin = current_time();
   da19a:	4b01      	ldr	r3, [pc, #4]	; (da1a0 <_post_loop+0x10>)
   da19c:	6018      	str	r0, [r3, #0]
}
   da19e:	bd08      	pop	{r3, pc}
   da1a0:	2003e7d8 	.word	0x2003e7d8

000da1a4 <_Z33system_initialize_user_backup_ramv>:
    memcpy(&link_global_retained_start, &link_global_retained_initial_values, len);
   da1a4:	4802      	ldr	r0, [pc, #8]	; (da1b0 <_Z33system_initialize_user_backup_ramv+0xc>)
   da1a6:	4a03      	ldr	r2, [pc, #12]	; (da1b4 <_Z33system_initialize_user_backup_ramv+0x10>)
   da1a8:	4903      	ldr	r1, [pc, #12]	; (da1b8 <_Z33system_initialize_user_backup_ramv+0x14>)
   da1aa:	1a12      	subs	r2, r2, r0
   da1ac:	f000 be02 	b.w	dadb4 <memcpy>
   da1b0:	2003f400 	.word	0x2003f400
   da1b4:	2003fc1c 	.word	0x2003fc1c
   da1b8:	000dbcd0 	.word	0x000dbcd0

000da1bc <_Z27ctrl_request_custom_handlerP12ctrl_request>:
void __attribute((weak)) ctrl_request_custom_handler(ctrl_request* req) {
   da1bc:	b507      	push	{r0, r1, r2, lr}
    system_ctrl_set_result(req, SYSTEM_ERROR_NOT_SUPPORTED, nullptr, nullptr, nullptr);
   da1be:	2300      	movs	r3, #0
   da1c0:	9300      	str	r3, [sp, #0]
   da1c2:	461a      	mov	r2, r3
   da1c4:	f06f 0177 	mvn.w	r1, #119	; 0x77
   da1c8:	f7fe f9ec 	bl	d85a4 <system_ctrl_set_result>
}
   da1cc:	b003      	add	sp, #12
   da1ce:	f85d fb04 	ldr.w	pc, [sp], #4
	...

000da1d4 <_ZL20ctrl_request_handlerP12ctrl_request>:
static void ctrl_request_handler(ctrl_request* req) {
   da1d4:	b507      	push	{r0, r1, r2, lr}
    switch (req->type) {
   da1d6:	8843      	ldrh	r3, [r0, #2]
   da1d8:	2b0a      	cmp	r3, #10
   da1da:	d008      	beq.n	da1ee <_ZL20ctrl_request_handlerP12ctrl_request+0x1a>
   da1dc:	2b50      	cmp	r3, #80	; 0x50
   da1de:	d10b      	bne.n	da1f8 <_ZL20ctrl_request_handlerP12ctrl_request+0x24>
        if (log_process_ctrl_request_callback) {
   da1e0:	4b09      	ldr	r3, [pc, #36]	; (da208 <_ZL20ctrl_request_handlerP12ctrl_request+0x34>)
   da1e2:	681b      	ldr	r3, [r3, #0]
   da1e4:	b14b      	cbz	r3, da1fa <_ZL20ctrl_request_handlerP12ctrl_request+0x26>
}
   da1e6:	b003      	add	sp, #12
   da1e8:	f85d eb04 	ldr.w	lr, [sp], #4
            log_process_ctrl_request_callback(req);
   da1ec:	4718      	bx	r3
        ctrl_request_custom_handler(req);
   da1ee:	f7ff ffe5 	bl	da1bc <_Z27ctrl_request_custom_handlerP12ctrl_request>
}
   da1f2:	b003      	add	sp, #12
   da1f4:	f85d fb04 	ldr.w	pc, [sp], #4
        system_ctrl_set_result(req, SYSTEM_ERROR_NOT_SUPPORTED, nullptr, nullptr, nullptr);
   da1f8:	2300      	movs	r3, #0
   da1fa:	9300      	str	r3, [sp, #0]
   da1fc:	461a      	mov	r2, r3
   da1fe:	f06f 0177 	mvn.w	r1, #119	; 0x77
   da202:	f7fe f9cf 	bl	d85a4 <system_ctrl_set_result>
}
   da206:	e7f4      	b.n	da1f2 <_ZL20ctrl_request_handlerP12ctrl_request+0x1e>
   da208:	2003e7d4 	.word	0x2003e7d4

000da20c <module_user_init_hook>:
{
   da20c:	b538      	push	{r3, r4, r5, lr}
#endif // HAL_PLATFORM_NEWLIB

#if HAL_PLATFORM_BACKUP_RAM
    backup_ram_was_valid_ =  __backup_sram_signature==signature;
   da20e:	4c12      	ldr	r4, [pc, #72]	; (da258 <module_user_init_hook+0x4c>)
    newlib_impure_ptr_callback([](struct _reent* r, size_t size, uint32_t version, void* ctx) -> void {
   da210:	4812      	ldr	r0, [pc, #72]	; (da25c <module_user_init_hook+0x50>)
    backup_ram_was_valid_ =  __backup_sram_signature==signature;
   da212:	4d13      	ldr	r5, [pc, #76]	; (da260 <module_user_init_hook+0x54>)
    newlib_impure_ptr_callback([](struct _reent* r, size_t size, uint32_t version, void* ctx) -> void {
   da214:	2100      	movs	r1, #0
   da216:	f7fe faed 	bl	d87f4 <newlib_impure_ptr_callback>
    backup_ram_was_valid_ =  __backup_sram_signature==signature;
   da21a:	6823      	ldr	r3, [r4, #0]
   da21c:	42ab      	cmp	r3, r5
   da21e:	4b11      	ldr	r3, [pc, #68]	; (da264 <module_user_init_hook+0x58>)
   da220:	bf0c      	ite	eq
   da222:	2201      	moveq	r2, #1
   da224:	2200      	movne	r2, #0
   da226:	701a      	strb	r2, [r3, #0]
    if (!backup_ram_was_valid_) {
   da228:	d002      	beq.n	da230 <module_user_init_hook+0x24>
        system_initialize_user_backup_ram();
   da22a:	f7ff ffbb 	bl	da1a4 <_Z33system_initialize_user_backup_ramv>
        __backup_sram_signature = signature;
   da22e:	6025      	str	r5, [r4, #0]
    }
#endif

#if HAL_PLATFORM_RNG
    // Initialize the default stdlib PRNG using hardware RNG as a seed
    const uint32_t seed = HAL_RNG_GetRandomNumber();
   da230:	f7fd ff84 	bl	d813c <HAL_RNG_GetRandomNumber>
   da234:	4604      	mov	r4, r0
    srand(seed);
   da236:	f000 fded 	bl	dae14 <srand>

    // If the user defines random_seed_from_cloud, call it with a seed value
    // generated by a hardware RNG as well.
    if (random_seed_from_cloud) {
   da23a:	4b0b      	ldr	r3, [pc, #44]	; (da268 <module_user_init_hook+0x5c>)
   da23c:	b113      	cbz	r3, da244 <module_user_init_hook+0x38>
        random_seed_from_cloud(seed);
   da23e:	4620      	mov	r0, r4
   da240:	f3af 8000 	nop.w
    }
#endif
    // Register the random_seed_from_cloud handler
    spark_set_random_seed_from_cloud_handler(&random_seed_from_cloud, nullptr);
   da244:	2100      	movs	r1, #0
   da246:	4808      	ldr	r0, [pc, #32]	; (da268 <module_user_init_hook+0x5c>)
   da248:	f7fe fa34 	bl	d86b4 <spark_set_random_seed_from_cloud_handler>

    // Register application handler for the control requests
    system_ctrl_set_app_request_handler(ctrl_request_handler, nullptr);
}
   da24c:	e8bd 4038 	ldmia.w	sp!, {r3, r4, r5, lr}
    system_ctrl_set_app_request_handler(ctrl_request_handler, nullptr);
   da250:	4806      	ldr	r0, [pc, #24]	; (da26c <module_user_init_hook+0x60>)
   da252:	2100      	movs	r1, #0
   da254:	f7fe b99c 	b.w	d8590 <system_ctrl_set_app_request_handler>
   da258:	2003fc18 	.word	0x2003fc18
   da25c:	000da14d 	.word	0x000da14d
   da260:	9a271c1e 	.word	0x9a271c1e
   da264:	2003e7d0 	.word	0x2003e7d0
   da268:	00000000 	.word	0x00000000
   da26c:	000da1d5 	.word	0x000da1d5

000da270 <spark_protocol_instance>:
extern "C" {
#endif

DYNALIB_BEGIN(communication)

DYNALIB_FN(0, communication, spark_protocol_instance, ProtocolFacade*(void))
   da270:	b508      	push	{r3, lr}
   da272:	4b02      	ldr	r3, [pc, #8]	; (da27c <spark_protocol_instance+0xc>)
   da274:	681b      	ldr	r3, [r3, #0]
   da276:	681b      	ldr	r3, [r3, #0]
   da278:	9301      	str	r3, [sp, #4]
   da27a:	bd08      	pop	{r3, pc}
   da27c:	0003025c 	.word	0x0003025c

000da280 <spark_protocol_set_product_id>:
DYNALIB_FN(1, communication, spark_protocol_set_product_id, void(ProtocolFacade*, product_id_t, unsigned, void*))
   da280:	b508      	push	{r3, lr}
   da282:	4b02      	ldr	r3, [pc, #8]	; (da28c <spark_protocol_set_product_id+0xc>)
   da284:	681b      	ldr	r3, [r3, #0]
   da286:	685b      	ldr	r3, [r3, #4]
   da288:	9301      	str	r3, [sp, #4]
   da28a:	bd08      	pop	{r3, pc}
   da28c:	0003025c 	.word	0x0003025c

000da290 <spark_protocol_set_product_firmware_version>:
DYNALIB_FN(2, communication, spark_protocol_set_product_firmware_version, void(ProtocolFacade*, product_firmware_version_t, unsigned, void*))
   da290:	b508      	push	{r3, lr}
   da292:	4b02      	ldr	r3, [pc, #8]	; (da29c <spark_protocol_set_product_firmware_version+0xc>)
   da294:	681b      	ldr	r3, [r3, #0]
   da296:	689b      	ldr	r3, [r3, #8]
   da298:	9301      	str	r3, [sp, #4]
   da29a:	bd08      	pop	{r3, pc}
   da29c:	0003025c 	.word	0x0003025c

000da2a0 <pinAvailable>:
/*
 * @brief Perform safety check on desired pin to see if it's already
 * being used.  Return 0 if used, otherwise return 1 if available.
 */
bool pinAvailable(uint16_t pin) {
  if (pin >= TOTAL_PINS) {
   da2a0:	2823      	cmp	r0, #35	; 0x23
bool pinAvailable(uint16_t pin) {
   da2a2:	b513      	push	{r0, r1, r4, lr}
  if (pin >= TOTAL_PINS) {
   da2a4:	d902      	bls.n	da2ac <pinAvailable+0xc>
    return false;
   da2a6:	2000      	movs	r0, #0
    return false; // 'pin' is used
  }
#endif

  return true; // 'pin' is available
}
   da2a8:	b002      	add	sp, #8
   da2aa:	bd10      	pop	{r4, pc}
  if((pin == SCK || pin == MOSI || pin == MISO) && hal_spi_is_enabled(SPI.interface()) == true)
   da2ac:	f1a0 030b 	sub.w	r3, r0, #11
   da2b0:	2b02      	cmp	r3, #2
   da2b2:	d81a      	bhi.n	da2ea <pinAvailable+0x4a>

template <hal_spi_interface_t Interface>
class SpiProxy {
public:
    static SPIClass& instance() {
        static SPIClass instance(Interface);
   da2b4:	4c17      	ldr	r4, [pc, #92]	; (da314 <pinAvailable+0x74>)
   da2b6:	7821      	ldrb	r1, [r4, #0]
   da2b8:	f3bf 8f5b 	dmb	ish
   da2bc:	f011 0101 	ands.w	r1, r1, #1
   da2c0:	d10b      	bne.n	da2da <pinAvailable+0x3a>
   da2c2:	4620      	mov	r0, r4
   da2c4:	9101      	str	r1, [sp, #4]
   da2c6:	f7f9 fef7 	bl	d40b8 <__cxa_guard_acquire>
   da2ca:	9901      	ldr	r1, [sp, #4]
   da2cc:	b128      	cbz	r0, da2da <pinAvailable+0x3a>
   da2ce:	4812      	ldr	r0, [pc, #72]	; (da318 <pinAvailable+0x78>)
   da2d0:	f7ff f994 	bl	d95fc <_ZN8SPIClassC1E19hal_spi_interface_t>
   da2d4:	4620      	mov	r0, r4
   da2d6:	f7f9 fef4 	bl	d40c2 <__cxa_guard_release>
   da2da:	4b0f      	ldr	r3, [pc, #60]	; (da318 <pinAvailable+0x78>)
   da2dc:	7818      	ldrb	r0, [r3, #0]
   da2de:	f7fe f84d 	bl	d837c <hal_spi_is_enabled>
   da2e2:	2800      	cmp	r0, #0
   da2e4:	d1df      	bne.n	da2a6 <pinAvailable+0x6>
  return true; // 'pin' is available
   da2e6:	2001      	movs	r0, #1
   da2e8:	e7de      	b.n	da2a8 <pinAvailable+0x8>
  if((pin == SCL || pin == SDA) && hal_i2c_is_enabled(Wire.interface(), nullptr) == true)
   da2ea:	2801      	cmp	r0, #1
   da2ec:	d809      	bhi.n	da302 <pinAvailable+0x62>
   da2ee:	f000 f86b 	bl	da3c8 <_Z19__fetch_global_Wirev>
   da2f2:	2100      	movs	r1, #0
   da2f4:	7c00      	ldrb	r0, [r0, #16]
   da2f6:	f7fd ffe9 	bl	d82cc <hal_i2c_is_enabled>
  if((pin == RX || pin == TX) && hal_usart_is_enabled(Serial1.interface()) == true)
   da2fa:	f080 0001 	eor.w	r0, r0, #1
   da2fe:	b2c0      	uxtb	r0, r0
   da300:	e7d2      	b.n	da2a8 <pinAvailable+0x8>
   da302:	3809      	subs	r0, #9
   da304:	2801      	cmp	r0, #1
   da306:	d8ee      	bhi.n	da2e6 <pinAvailable+0x46>
   da308:	f7ff fe72 	bl	d9ff0 <_Z22__fetch_global_Serial1v>
   da30c:	7c00      	ldrb	r0, [r0, #16]
   da30e:	f7fe f88d 	bl	d842c <hal_usart_is_enabled>
   da312:	e7f2      	b.n	da2fa <pinAvailable+0x5a>
   da314:	2003e5c0 	.word	0x2003e5c0
   da318:	2003e5c4 	.word	0x2003e5c4

000da31c <pinMode>:
  if(pin >= TOTAL_PINS || setMode == PIN_MODE_NONE )
   da31c:	2823      	cmp	r0, #35	; 0x23
{
   da31e:	b538      	push	{r3, r4, r5, lr}
   da320:	4604      	mov	r4, r0
   da322:	460d      	mov	r5, r1
  if(pin >= TOTAL_PINS || setMode == PIN_MODE_NONE )
   da324:	d80a      	bhi.n	da33c <pinMode+0x20>
   da326:	29ff      	cmp	r1, #255	; 0xff
   da328:	d008      	beq.n	da33c <pinMode+0x20>
  if( !pinAvailable(pin) ) {
   da32a:	f7ff ffb9 	bl	da2a0 <pinAvailable>
   da32e:	b128      	cbz	r0, da33c <pinMode+0x20>
  HAL_Pin_Mode(pin, setMode);
   da330:	4629      	mov	r1, r5
   da332:	4620      	mov	r0, r4
}
   da334:	e8bd 4038 	ldmia.w	sp!, {r3, r4, r5, lr}
  HAL_Pin_Mode(pin, setMode);
   da338:	f7fd bf58 	b.w	d81ec <HAL_Pin_Mode>
}
   da33c:	bd38      	pop	{r3, r4, r5, pc}

000da33e <digitalWrite>:

/*
 * @brief Sets a GPIO pin to HIGH or LOW.
 */
void digitalWrite(pin_t pin, uint8_t value)
{
   da33e:	b538      	push	{r3, r4, r5, lr}
   da340:	4604      	mov	r4, r0
   da342:	460d      	mov	r5, r1
    PinMode mode = HAL_Get_Pin_Mode(pin);
   da344:	f7fd ff5a 	bl	d81fc <HAL_Get_Pin_Mode>
    if (mode==PIN_MODE_NONE || is_input_mode(mode))
   da348:	28ff      	cmp	r0, #255	; 0xff
   da34a:	d010      	beq.n	da36e <digitalWrite+0x30>
            mode == INPUT_PULLDOWN ||
   da34c:	2806      	cmp	r0, #6
   da34e:	d804      	bhi.n	da35a <digitalWrite+0x1c>
   da350:	234d      	movs	r3, #77	; 0x4d
   da352:	fa23 f000 	lsr.w	r0, r3, r0
   da356:	07c3      	lsls	r3, r0, #31
   da358:	d409      	bmi.n	da36e <digitalWrite+0x30>
        return;
  // Safety check
  if( !pinAvailable(pin) ) {
   da35a:	4620      	mov	r0, r4
   da35c:	f7ff ffa0 	bl	da2a0 <pinAvailable>
   da360:	b128      	cbz	r0, da36e <digitalWrite+0x30>
    return;
  }

  HAL_GPIO_Write(pin, value);
   da362:	4629      	mov	r1, r5
   da364:	4620      	mov	r0, r4
}
   da366:	e8bd 4038 	ldmia.w	sp!, {r3, r4, r5, lr}
  HAL_GPIO_Write(pin, value);
   da36a:	f7fd bf4f 	b.w	d820c <HAL_GPIO_Write>
}
   da36e:	bd38      	pop	{r3, r4, r5, pc}

000da370 <digitalRead>:

/*
 * @brief Reads the value of a GPIO pin. Should return either 1 (HIGH) or 0 (LOW).
 */
int32_t digitalRead(pin_t pin)
{
   da370:	b510      	push	{r4, lr}
   da372:	4604      	mov	r4, r0
    PinMode mode = HAL_Get_Pin_Mode(pin);
   da374:	f7fd ff42 	bl	d81fc <HAL_Get_Pin_Mode>
    return mode == AF_OUTPUT_PUSHPULL ||
   da378:	1f03      	subs	r3, r0, #4
    if (is_af_output_mode(mode))
   da37a:	b2db      	uxtb	r3, r3
   da37c:	2b01      	cmp	r3, #1
   da37e:	d908      	bls.n	da392 <digitalRead+0x22>
        return LOW;

    // Safety check
    if( !pinAvailable(pin) ) {
   da380:	4620      	mov	r0, r4
   da382:	f7ff ff8d 	bl	da2a0 <pinAvailable>
   da386:	b120      	cbz	r0, da392 <digitalRead+0x22>
      return LOW;
    }

    return HAL_GPIO_Read(pin);
   da388:	4620      	mov	r0, r4
}
   da38a:	e8bd 4010 	ldmia.w	sp!, {r4, lr}
    return HAL_GPIO_Read(pin);
   da38e:	f7fd bf45 	b.w	d821c <HAL_GPIO_Read>
}
   da392:	2000      	movs	r0, #0
   da394:	bd10      	pop	{r4, pc}
	...

000da398 <_Z17acquireWireBufferv>:
}

} // anonymous

hal_i2c_config_t __attribute__((weak)) acquireWireBuffer()
{
   da398:	b538      	push	{r3, r4, r5, lr}
	hal_i2c_config_t config = {
   da39a:	2300      	movs	r3, #0
   da39c:	2520      	movs	r5, #32
   da39e:	8043      	strh	r3, [r0, #2]
   da3a0:	2314      	movs	r3, #20
{
   da3a2:	4604      	mov	r4, r0
	hal_i2c_config_t config = {
   da3a4:	8003      	strh	r3, [r0, #0]
   da3a6:	6085      	str	r5, [r0, #8]
   da3a8:	6105      	str	r5, [r0, #16]
		.rx_buffer = new (std::nothrow) uint8_t[I2C_BUFFER_LENGTH],
   da3aa:	4906      	ldr	r1, [pc, #24]	; (da3c4 <_Z17acquireWireBufferv+0x2c>)
   da3ac:	4628      	mov	r0, r5
   da3ae:	f000 f83c 	bl	da42a <_ZnajRKSt9nothrow_t>
		.tx_buffer = new (std::nothrow) uint8_t[I2C_BUFFER_LENGTH],
   da3b2:	4904      	ldr	r1, [pc, #16]	; (da3c4 <_Z17acquireWireBufferv+0x2c>)
	};
   da3b4:	6060      	str	r0, [r4, #4]
		.tx_buffer = new (std::nothrow) uint8_t[I2C_BUFFER_LENGTH],
   da3b6:	4628      	mov	r0, r5
   da3b8:	f000 f837 	bl	da42a <_ZnajRKSt9nothrow_t>
	};
   da3bc:	60e0      	str	r0, [r4, #12]
	return defaultWireConfig();
}
   da3be:	4620      	mov	r0, r4
   da3c0:	bd38      	pop	{r3, r4, r5, pc}
   da3c2:	bf00      	nop
   da3c4:	000dbb40 	.word	0x000dbb40

000da3c8 <_Z19__fetch_global_Wirev>:
	return defaultWireConfig();
}
#endif

TwoWire& __fetch_global_Wire()
{
   da3c8:	b530      	push	{r4, r5, lr}
	static TwoWire wire(HAL_I2C_INTERFACE1, acquireWireBuffer());
   da3ca:	4d0f      	ldr	r5, [pc, #60]	; (da408 <_Z19__fetch_global_Wirev+0x40>)
   da3cc:	7829      	ldrb	r1, [r5, #0]
   da3ce:	f3bf 8f5b 	dmb	ish
   da3d2:	f011 0401 	ands.w	r4, r1, #1
{
   da3d6:	b087      	sub	sp, #28
	static TwoWire wire(HAL_I2C_INTERFACE1, acquireWireBuffer());
   da3d8:	d113      	bne.n	da402 <_Z19__fetch_global_Wirev+0x3a>
   da3da:	4628      	mov	r0, r5
   da3dc:	f7f9 fe6c 	bl	d40b8 <__cxa_guard_acquire>
   da3e0:	b178      	cbz	r0, da402 <_Z19__fetch_global_Wirev+0x3a>
   da3e2:	a801      	add	r0, sp, #4
   da3e4:	f7ff ffd8 	bl	da398 <_Z17acquireWireBufferv>
   da3e8:	aa01      	add	r2, sp, #4
   da3ea:	4621      	mov	r1, r4
   da3ec:	4807      	ldr	r0, [pc, #28]	; (da40c <_Z19__fetch_global_Wirev+0x44>)
   da3ee:	f7fe fedd 	bl	d91ac <_ZN7TwoWireC1E19hal_i2c_interface_tRK16hal_i2c_config_t>
   da3f2:	4628      	mov	r0, r5
   da3f4:	f7f9 fe65 	bl	d40c2 <__cxa_guard_release>
   da3f8:	4a05      	ldr	r2, [pc, #20]	; (da410 <_Z19__fetch_global_Wirev+0x48>)
   da3fa:	4906      	ldr	r1, [pc, #24]	; (da414 <_Z19__fetch_global_Wirev+0x4c>)
   da3fc:	4803      	ldr	r0, [pc, #12]	; (da40c <_Z19__fetch_global_Wirev+0x44>)
   da3fe:	f000 f80b 	bl	da418 <__aeabi_atexit>
	return wire;
}
   da402:	4802      	ldr	r0, [pc, #8]	; (da40c <_Z19__fetch_global_Wirev+0x44>)
   da404:	b007      	add	sp, #28
   da406:	bd30      	pop	{r4, r5, pc}
   da408:	2003e7dc 	.word	0x2003e7dc
   da40c:	2003e7e0 	.word	0x2003e7e0
   da410:	2003e1f8 	.word	0x2003e1f8
   da414:	000d9155 	.word	0x000d9155

000da418 <__aeabi_atexit>:
   da418:	460b      	mov	r3, r1
   da41a:	4601      	mov	r1, r0
   da41c:	4618      	mov	r0, r3
   da41e:	f000 bca9 	b.w	dad74 <__cxa_atexit>

000da422 <_ZdlPvj>:
   da422:	f7f9 be3c 	b.w	d409e <_ZdlPv>

000da426 <_ZnwjRKSt9nothrow_t>:
   da426:	f7f9 be36 	b.w	d4096 <_Znwj>

000da42a <_ZnajRKSt9nothrow_t>:
   da42a:	f7f9 be36 	b.w	d409a <_Znaj>

000da42e <_ZSt25__throw_bad_function_callv>:
   da42e:	b508      	push	{r3, lr}
   da430:	f7fe f9d0 	bl	d87d4 <abort>

000da434 <__aeabi_drsub>:
   da434:	f081 4100 	eor.w	r1, r1, #2147483648	; 0x80000000
   da438:	e002      	b.n	da440 <__adddf3>
   da43a:	bf00      	nop

000da43c <__aeabi_dsub>:
   da43c:	f083 4300 	eor.w	r3, r3, #2147483648	; 0x80000000

000da440 <__adddf3>:
   da440:	b530      	push	{r4, r5, lr}
   da442:	ea4f 0441 	mov.w	r4, r1, lsl #1
   da446:	ea4f 0543 	mov.w	r5, r3, lsl #1
   da44a:	ea94 0f05 	teq	r4, r5
   da44e:	bf08      	it	eq
   da450:	ea90 0f02 	teqeq	r0, r2
   da454:	bf1f      	itttt	ne
   da456:	ea54 0c00 	orrsne.w	ip, r4, r0
   da45a:	ea55 0c02 	orrsne.w	ip, r5, r2
   da45e:	ea7f 5c64 	mvnsne.w	ip, r4, asr #21
   da462:	ea7f 5c65 	mvnsne.w	ip, r5, asr #21
   da466:	f000 80e2 	beq.w	da62e <__adddf3+0x1ee>
   da46a:	ea4f 5454 	mov.w	r4, r4, lsr #21
   da46e:	ebd4 5555 	rsbs	r5, r4, r5, lsr #21
   da472:	bfb8      	it	lt
   da474:	426d      	neglt	r5, r5
   da476:	dd0c      	ble.n	da492 <__adddf3+0x52>
   da478:	442c      	add	r4, r5
   da47a:	ea80 0202 	eor.w	r2, r0, r2
   da47e:	ea81 0303 	eor.w	r3, r1, r3
   da482:	ea82 0000 	eor.w	r0, r2, r0
   da486:	ea83 0101 	eor.w	r1, r3, r1
   da48a:	ea80 0202 	eor.w	r2, r0, r2
   da48e:	ea81 0303 	eor.w	r3, r1, r3
   da492:	2d36      	cmp	r5, #54	; 0x36
   da494:	bf88      	it	hi
   da496:	bd30      	pophi	{r4, r5, pc}
   da498:	f011 4f00 	tst.w	r1, #2147483648	; 0x80000000
   da49c:	ea4f 3101 	mov.w	r1, r1, lsl #12
   da4a0:	f44f 1c80 	mov.w	ip, #1048576	; 0x100000
   da4a4:	ea4c 3111 	orr.w	r1, ip, r1, lsr #12
   da4a8:	d002      	beq.n	da4b0 <__adddf3+0x70>
   da4aa:	4240      	negs	r0, r0
   da4ac:	eb61 0141 	sbc.w	r1, r1, r1, lsl #1
   da4b0:	f013 4f00 	tst.w	r3, #2147483648	; 0x80000000
   da4b4:	ea4f 3303 	mov.w	r3, r3, lsl #12
   da4b8:	ea4c 3313 	orr.w	r3, ip, r3, lsr #12
   da4bc:	d002      	beq.n	da4c4 <__adddf3+0x84>
   da4be:	4252      	negs	r2, r2
   da4c0:	eb63 0343 	sbc.w	r3, r3, r3, lsl #1
   da4c4:	ea94 0f05 	teq	r4, r5
   da4c8:	f000 80a7 	beq.w	da61a <__adddf3+0x1da>
   da4cc:	f1a4 0401 	sub.w	r4, r4, #1
   da4d0:	f1d5 0e20 	rsbs	lr, r5, #32
   da4d4:	db0d      	blt.n	da4f2 <__adddf3+0xb2>
   da4d6:	fa02 fc0e 	lsl.w	ip, r2, lr
   da4da:	fa22 f205 	lsr.w	r2, r2, r5
   da4de:	1880      	adds	r0, r0, r2
   da4e0:	f141 0100 	adc.w	r1, r1, #0
   da4e4:	fa03 f20e 	lsl.w	r2, r3, lr
   da4e8:	1880      	adds	r0, r0, r2
   da4ea:	fa43 f305 	asr.w	r3, r3, r5
   da4ee:	4159      	adcs	r1, r3
   da4f0:	e00e      	b.n	da510 <__adddf3+0xd0>
   da4f2:	f1a5 0520 	sub.w	r5, r5, #32
   da4f6:	f10e 0e20 	add.w	lr, lr, #32
   da4fa:	2a01      	cmp	r2, #1
   da4fc:	fa03 fc0e 	lsl.w	ip, r3, lr
   da500:	bf28      	it	cs
   da502:	f04c 0c02 	orrcs.w	ip, ip, #2
   da506:	fa43 f305 	asr.w	r3, r3, r5
   da50a:	18c0      	adds	r0, r0, r3
   da50c:	eb51 71e3 	adcs.w	r1, r1, r3, asr #31
   da510:	f001 4500 	and.w	r5, r1, #2147483648	; 0x80000000
   da514:	d507      	bpl.n	da526 <__adddf3+0xe6>
   da516:	f04f 0e00 	mov.w	lr, #0
   da51a:	f1dc 0c00 	rsbs	ip, ip, #0
   da51e:	eb7e 0000 	sbcs.w	r0, lr, r0
   da522:	eb6e 0101 	sbc.w	r1, lr, r1
   da526:	f5b1 1f80 	cmp.w	r1, #1048576	; 0x100000
   da52a:	d31b      	bcc.n	da564 <__adddf3+0x124>
   da52c:	f5b1 1f00 	cmp.w	r1, #2097152	; 0x200000
   da530:	d30c      	bcc.n	da54c <__adddf3+0x10c>
   da532:	0849      	lsrs	r1, r1, #1
   da534:	ea5f 0030 	movs.w	r0, r0, rrx
   da538:	ea4f 0c3c 	mov.w	ip, ip, rrx
   da53c:	f104 0401 	add.w	r4, r4, #1
   da540:	ea4f 5244 	mov.w	r2, r4, lsl #21
   da544:	f512 0f80 	cmn.w	r2, #4194304	; 0x400000
   da548:	f080 809a 	bcs.w	da680 <__adddf3+0x240>
   da54c:	f1bc 4f00 	cmp.w	ip, #2147483648	; 0x80000000
   da550:	bf08      	it	eq
   da552:	ea5f 0c50 	movseq.w	ip, r0, lsr #1
   da556:	f150 0000 	adcs.w	r0, r0, #0
   da55a:	eb41 5104 	adc.w	r1, r1, r4, lsl #20
   da55e:	ea41 0105 	orr.w	r1, r1, r5
   da562:	bd30      	pop	{r4, r5, pc}
   da564:	ea5f 0c4c 	movs.w	ip, ip, lsl #1
   da568:	4140      	adcs	r0, r0
   da56a:	eb41 0101 	adc.w	r1, r1, r1
   da56e:	3c01      	subs	r4, #1
   da570:	bf28      	it	cs
   da572:	f5b1 1f80 	cmpcs.w	r1, #1048576	; 0x100000
   da576:	d2e9      	bcs.n	da54c <__adddf3+0x10c>
   da578:	f091 0f00 	teq	r1, #0
   da57c:	bf04      	itt	eq
   da57e:	4601      	moveq	r1, r0
   da580:	2000      	moveq	r0, #0
   da582:	fab1 f381 	clz	r3, r1
   da586:	bf08      	it	eq
   da588:	3320      	addeq	r3, #32
   da58a:	f1a3 030b 	sub.w	r3, r3, #11
   da58e:	f1b3 0220 	subs.w	r2, r3, #32
   da592:	da0c      	bge.n	da5ae <__adddf3+0x16e>
   da594:	320c      	adds	r2, #12
   da596:	dd08      	ble.n	da5aa <__adddf3+0x16a>
   da598:	f102 0c14 	add.w	ip, r2, #20
   da59c:	f1c2 020c 	rsb	r2, r2, #12
   da5a0:	fa01 f00c 	lsl.w	r0, r1, ip
   da5a4:	fa21 f102 	lsr.w	r1, r1, r2
   da5a8:	e00c      	b.n	da5c4 <__adddf3+0x184>
   da5aa:	f102 0214 	add.w	r2, r2, #20
   da5ae:	bfd8      	it	le
   da5b0:	f1c2 0c20 	rsble	ip, r2, #32
   da5b4:	fa01 f102 	lsl.w	r1, r1, r2
   da5b8:	fa20 fc0c 	lsr.w	ip, r0, ip
   da5bc:	bfdc      	itt	le
   da5be:	ea41 010c 	orrle.w	r1, r1, ip
   da5c2:	4090      	lslle	r0, r2
   da5c4:	1ae4      	subs	r4, r4, r3
   da5c6:	bfa2      	ittt	ge
   da5c8:	eb01 5104 	addge.w	r1, r1, r4, lsl #20
   da5cc:	4329      	orrge	r1, r5
   da5ce:	bd30      	popge	{r4, r5, pc}
   da5d0:	ea6f 0404 	mvn.w	r4, r4
   da5d4:	3c1f      	subs	r4, #31
   da5d6:	da1c      	bge.n	da612 <__adddf3+0x1d2>
   da5d8:	340c      	adds	r4, #12
   da5da:	dc0e      	bgt.n	da5fa <__adddf3+0x1ba>
   da5dc:	f104 0414 	add.w	r4, r4, #20
   da5e0:	f1c4 0220 	rsb	r2, r4, #32
   da5e4:	fa20 f004 	lsr.w	r0, r0, r4
   da5e8:	fa01 f302 	lsl.w	r3, r1, r2
   da5ec:	ea40 0003 	orr.w	r0, r0, r3
   da5f0:	fa21 f304 	lsr.w	r3, r1, r4
   da5f4:	ea45 0103 	orr.w	r1, r5, r3
   da5f8:	bd30      	pop	{r4, r5, pc}
   da5fa:	f1c4 040c 	rsb	r4, r4, #12
   da5fe:	f1c4 0220 	rsb	r2, r4, #32
   da602:	fa20 f002 	lsr.w	r0, r0, r2
   da606:	fa01 f304 	lsl.w	r3, r1, r4
   da60a:	ea40 0003 	orr.w	r0, r0, r3
   da60e:	4629      	mov	r1, r5
   da610:	bd30      	pop	{r4, r5, pc}
   da612:	fa21 f004 	lsr.w	r0, r1, r4
   da616:	4629      	mov	r1, r5
   da618:	bd30      	pop	{r4, r5, pc}
   da61a:	f094 0f00 	teq	r4, #0
   da61e:	f483 1380 	eor.w	r3, r3, #1048576	; 0x100000
   da622:	bf06      	itte	eq
   da624:	f481 1180 	eoreq.w	r1, r1, #1048576	; 0x100000
   da628:	3401      	addeq	r4, #1
   da62a:	3d01      	subne	r5, #1
   da62c:	e74e      	b.n	da4cc <__adddf3+0x8c>
   da62e:	ea7f 5c64 	mvns.w	ip, r4, asr #21
   da632:	bf18      	it	ne
   da634:	ea7f 5c65 	mvnsne.w	ip, r5, asr #21
   da638:	d029      	beq.n	da68e <__adddf3+0x24e>
   da63a:	ea94 0f05 	teq	r4, r5
   da63e:	bf08      	it	eq
   da640:	ea90 0f02 	teqeq	r0, r2
   da644:	d005      	beq.n	da652 <__adddf3+0x212>
   da646:	ea54 0c00 	orrs.w	ip, r4, r0
   da64a:	bf04      	itt	eq
   da64c:	4619      	moveq	r1, r3
   da64e:	4610      	moveq	r0, r2
   da650:	bd30      	pop	{r4, r5, pc}
   da652:	ea91 0f03 	teq	r1, r3
   da656:	bf1e      	ittt	ne
   da658:	2100      	movne	r1, #0
   da65a:	2000      	movne	r0, #0
   da65c:	bd30      	popne	{r4, r5, pc}
   da65e:	ea5f 5c54 	movs.w	ip, r4, lsr #21
   da662:	d105      	bne.n	da670 <__adddf3+0x230>
   da664:	0040      	lsls	r0, r0, #1
   da666:	4149      	adcs	r1, r1
   da668:	bf28      	it	cs
   da66a:	f041 4100 	orrcs.w	r1, r1, #2147483648	; 0x80000000
   da66e:	bd30      	pop	{r4, r5, pc}
   da670:	f514 0480 	adds.w	r4, r4, #4194304	; 0x400000
   da674:	bf3c      	itt	cc
   da676:	f501 1180 	addcc.w	r1, r1, #1048576	; 0x100000
   da67a:	bd30      	popcc	{r4, r5, pc}
   da67c:	f001 4500 	and.w	r5, r1, #2147483648	; 0x80000000
   da680:	f045 41fe 	orr.w	r1, r5, #2130706432	; 0x7f000000
   da684:	f441 0170 	orr.w	r1, r1, #15728640	; 0xf00000
   da688:	f04f 0000 	mov.w	r0, #0
   da68c:	bd30      	pop	{r4, r5, pc}
   da68e:	ea7f 5c64 	mvns.w	ip, r4, asr #21
   da692:	bf1a      	itte	ne
   da694:	4619      	movne	r1, r3
   da696:	4610      	movne	r0, r2
   da698:	ea7f 5c65 	mvnseq.w	ip, r5, asr #21
   da69c:	bf1c      	itt	ne
   da69e:	460b      	movne	r3, r1
   da6a0:	4602      	movne	r2, r0
   da6a2:	ea50 3401 	orrs.w	r4, r0, r1, lsl #12
   da6a6:	bf06      	itte	eq
   da6a8:	ea52 3503 	orrseq.w	r5, r2, r3, lsl #12
   da6ac:	ea91 0f03 	teqeq	r1, r3
   da6b0:	f441 2100 	orrne.w	r1, r1, #524288	; 0x80000
   da6b4:	bd30      	pop	{r4, r5, pc}
   da6b6:	bf00      	nop

000da6b8 <__aeabi_ui2d>:
   da6b8:	f090 0f00 	teq	r0, #0
   da6bc:	bf04      	itt	eq
   da6be:	2100      	moveq	r1, #0
   da6c0:	4770      	bxeq	lr
   da6c2:	b530      	push	{r4, r5, lr}
   da6c4:	f44f 6480 	mov.w	r4, #1024	; 0x400
   da6c8:	f104 0432 	add.w	r4, r4, #50	; 0x32
   da6cc:	f04f 0500 	mov.w	r5, #0
   da6d0:	f04f 0100 	mov.w	r1, #0
   da6d4:	e750      	b.n	da578 <__adddf3+0x138>
   da6d6:	bf00      	nop

000da6d8 <__aeabi_i2d>:
   da6d8:	f090 0f00 	teq	r0, #0
   da6dc:	bf04      	itt	eq
   da6de:	2100      	moveq	r1, #0
   da6e0:	4770      	bxeq	lr
   da6e2:	b530      	push	{r4, r5, lr}
   da6e4:	f44f 6480 	mov.w	r4, #1024	; 0x400
   da6e8:	f104 0432 	add.w	r4, r4, #50	; 0x32
   da6ec:	f010 4500 	ands.w	r5, r0, #2147483648	; 0x80000000
   da6f0:	bf48      	it	mi
   da6f2:	4240      	negmi	r0, r0
   da6f4:	f04f 0100 	mov.w	r1, #0
   da6f8:	e73e      	b.n	da578 <__adddf3+0x138>
   da6fa:	bf00      	nop

000da6fc <__aeabi_f2d>:
   da6fc:	0042      	lsls	r2, r0, #1
   da6fe:	ea4f 01e2 	mov.w	r1, r2, asr #3
   da702:	ea4f 0131 	mov.w	r1, r1, rrx
   da706:	ea4f 7002 	mov.w	r0, r2, lsl #28
   da70a:	bf1f      	itttt	ne
   da70c:	f012 437f 	andsne.w	r3, r2, #4278190080	; 0xff000000
   da710:	f093 4f7f 	teqne	r3, #4278190080	; 0xff000000
   da714:	f081 5160 	eorne.w	r1, r1, #939524096	; 0x38000000
   da718:	4770      	bxne	lr
   da71a:	f032 427f 	bics.w	r2, r2, #4278190080	; 0xff000000
   da71e:	bf08      	it	eq
   da720:	4770      	bxeq	lr
   da722:	f093 4f7f 	teq	r3, #4278190080	; 0xff000000
   da726:	bf04      	itt	eq
   da728:	f441 2100 	orreq.w	r1, r1, #524288	; 0x80000
   da72c:	4770      	bxeq	lr
   da72e:	b530      	push	{r4, r5, lr}
   da730:	f44f 7460 	mov.w	r4, #896	; 0x380
   da734:	f001 4500 	and.w	r5, r1, #2147483648	; 0x80000000
   da738:	f021 4100 	bic.w	r1, r1, #2147483648	; 0x80000000
   da73c:	e71c      	b.n	da578 <__adddf3+0x138>
   da73e:	bf00      	nop

000da740 <__aeabi_ul2d>:
   da740:	ea50 0201 	orrs.w	r2, r0, r1
   da744:	bf08      	it	eq
   da746:	4770      	bxeq	lr
   da748:	b530      	push	{r4, r5, lr}
   da74a:	f04f 0500 	mov.w	r5, #0
   da74e:	e00a      	b.n	da766 <__aeabi_l2d+0x16>

000da750 <__aeabi_l2d>:
   da750:	ea50 0201 	orrs.w	r2, r0, r1
   da754:	bf08      	it	eq
   da756:	4770      	bxeq	lr
   da758:	b530      	push	{r4, r5, lr}
   da75a:	f011 4500 	ands.w	r5, r1, #2147483648	; 0x80000000
   da75e:	d502      	bpl.n	da766 <__aeabi_l2d+0x16>
   da760:	4240      	negs	r0, r0
   da762:	eb61 0141 	sbc.w	r1, r1, r1, lsl #1
   da766:	f44f 6480 	mov.w	r4, #1024	; 0x400
   da76a:	f104 0432 	add.w	r4, r4, #50	; 0x32
   da76e:	ea5f 5c91 	movs.w	ip, r1, lsr #22
   da772:	f43f aed8 	beq.w	da526 <__adddf3+0xe6>
   da776:	f04f 0203 	mov.w	r2, #3
   da77a:	ea5f 0cdc 	movs.w	ip, ip, lsr #3
   da77e:	bf18      	it	ne
   da780:	3203      	addne	r2, #3
   da782:	ea5f 0cdc 	movs.w	ip, ip, lsr #3
   da786:	bf18      	it	ne
   da788:	3203      	addne	r2, #3
   da78a:	eb02 02dc 	add.w	r2, r2, ip, lsr #3
   da78e:	f1c2 0320 	rsb	r3, r2, #32
   da792:	fa00 fc03 	lsl.w	ip, r0, r3
   da796:	fa20 f002 	lsr.w	r0, r0, r2
   da79a:	fa01 fe03 	lsl.w	lr, r1, r3
   da79e:	ea40 000e 	orr.w	r0, r0, lr
   da7a2:	fa21 f102 	lsr.w	r1, r1, r2
   da7a6:	4414      	add	r4, r2
   da7a8:	e6bd      	b.n	da526 <__adddf3+0xe6>
   da7aa:	bf00      	nop

000da7ac <__aeabi_dmul>:
   da7ac:	b570      	push	{r4, r5, r6, lr}
   da7ae:	f04f 0cff 	mov.w	ip, #255	; 0xff
   da7b2:	f44c 6ce0 	orr.w	ip, ip, #1792	; 0x700
   da7b6:	ea1c 5411 	ands.w	r4, ip, r1, lsr #20
   da7ba:	bf1d      	ittte	ne
   da7bc:	ea1c 5513 	andsne.w	r5, ip, r3, lsr #20
   da7c0:	ea94 0f0c 	teqne	r4, ip
   da7c4:	ea95 0f0c 	teqne	r5, ip
   da7c8:	f000 f8de 	bleq	da988 <__aeabi_dmul+0x1dc>
   da7cc:	442c      	add	r4, r5
   da7ce:	ea81 0603 	eor.w	r6, r1, r3
   da7d2:	ea21 514c 	bic.w	r1, r1, ip, lsl #21
   da7d6:	ea23 534c 	bic.w	r3, r3, ip, lsl #21
   da7da:	ea50 3501 	orrs.w	r5, r0, r1, lsl #12
   da7de:	bf18      	it	ne
   da7e0:	ea52 3503 	orrsne.w	r5, r2, r3, lsl #12
   da7e4:	f441 1180 	orr.w	r1, r1, #1048576	; 0x100000
   da7e8:	f443 1380 	orr.w	r3, r3, #1048576	; 0x100000
   da7ec:	d038      	beq.n	da860 <__aeabi_dmul+0xb4>
   da7ee:	fba0 ce02 	umull	ip, lr, r0, r2
   da7f2:	f04f 0500 	mov.w	r5, #0
   da7f6:	fbe1 e502 	umlal	lr, r5, r1, r2
   da7fa:	f006 4200 	and.w	r2, r6, #2147483648	; 0x80000000
   da7fe:	fbe0 e503 	umlal	lr, r5, r0, r3
   da802:	f04f 0600 	mov.w	r6, #0
   da806:	fbe1 5603 	umlal	r5, r6, r1, r3
   da80a:	f09c 0f00 	teq	ip, #0
   da80e:	bf18      	it	ne
   da810:	f04e 0e01 	orrne.w	lr, lr, #1
   da814:	f1a4 04ff 	sub.w	r4, r4, #255	; 0xff
   da818:	f5b6 7f00 	cmp.w	r6, #512	; 0x200
   da81c:	f564 7440 	sbc.w	r4, r4, #768	; 0x300
   da820:	d204      	bcs.n	da82c <__aeabi_dmul+0x80>
   da822:	ea5f 0e4e 	movs.w	lr, lr, lsl #1
   da826:	416d      	adcs	r5, r5
   da828:	eb46 0606 	adc.w	r6, r6, r6
   da82c:	ea42 21c6 	orr.w	r1, r2, r6, lsl #11
   da830:	ea41 5155 	orr.w	r1, r1, r5, lsr #21
   da834:	ea4f 20c5 	mov.w	r0, r5, lsl #11
   da838:	ea40 505e 	orr.w	r0, r0, lr, lsr #21
   da83c:	ea4f 2ece 	mov.w	lr, lr, lsl #11
   da840:	f1b4 0cfd 	subs.w	ip, r4, #253	; 0xfd
   da844:	bf88      	it	hi
   da846:	f5bc 6fe0 	cmphi.w	ip, #1792	; 0x700
   da84a:	d81e      	bhi.n	da88a <__aeabi_dmul+0xde>
   da84c:	f1be 4f00 	cmp.w	lr, #2147483648	; 0x80000000
   da850:	bf08      	it	eq
   da852:	ea5f 0e50 	movseq.w	lr, r0, lsr #1
   da856:	f150 0000 	adcs.w	r0, r0, #0
   da85a:	eb41 5104 	adc.w	r1, r1, r4, lsl #20
   da85e:	bd70      	pop	{r4, r5, r6, pc}
   da860:	f006 4600 	and.w	r6, r6, #2147483648	; 0x80000000
   da864:	ea46 0101 	orr.w	r1, r6, r1
   da868:	ea40 0002 	orr.w	r0, r0, r2
   da86c:	ea81 0103 	eor.w	r1, r1, r3
   da870:	ebb4 045c 	subs.w	r4, r4, ip, lsr #1
   da874:	bfc2      	ittt	gt
   da876:	ebd4 050c 	rsbsgt	r5, r4, ip
   da87a:	ea41 5104 	orrgt.w	r1, r1, r4, lsl #20
   da87e:	bd70      	popgt	{r4, r5, r6, pc}
   da880:	f441 1180 	orr.w	r1, r1, #1048576	; 0x100000
   da884:	f04f 0e00 	mov.w	lr, #0
   da888:	3c01      	subs	r4, #1
   da88a:	f300 80ab 	bgt.w	da9e4 <__aeabi_dmul+0x238>
   da88e:	f114 0f36 	cmn.w	r4, #54	; 0x36
   da892:	bfde      	ittt	le
   da894:	2000      	movle	r0, #0
   da896:	f001 4100 	andle.w	r1, r1, #2147483648	; 0x80000000
   da89a:	bd70      	pople	{r4, r5, r6, pc}
   da89c:	f1c4 0400 	rsb	r4, r4, #0
   da8a0:	3c20      	subs	r4, #32
   da8a2:	da35      	bge.n	da910 <__aeabi_dmul+0x164>
   da8a4:	340c      	adds	r4, #12
   da8a6:	dc1b      	bgt.n	da8e0 <__aeabi_dmul+0x134>
   da8a8:	f104 0414 	add.w	r4, r4, #20
   da8ac:	f1c4 0520 	rsb	r5, r4, #32
   da8b0:	fa00 f305 	lsl.w	r3, r0, r5
   da8b4:	fa20 f004 	lsr.w	r0, r0, r4
   da8b8:	fa01 f205 	lsl.w	r2, r1, r5
   da8bc:	ea40 0002 	orr.w	r0, r0, r2
   da8c0:	f001 4200 	and.w	r2, r1, #2147483648	; 0x80000000
   da8c4:	f021 4100 	bic.w	r1, r1, #2147483648	; 0x80000000
   da8c8:	eb10 70d3 	adds.w	r0, r0, r3, lsr #31
   da8cc:	fa21 f604 	lsr.w	r6, r1, r4
   da8d0:	eb42 0106 	adc.w	r1, r2, r6
   da8d4:	ea5e 0e43 	orrs.w	lr, lr, r3, lsl #1
   da8d8:	bf08      	it	eq
   da8da:	ea20 70d3 	biceq.w	r0, r0, r3, lsr #31
   da8de:	bd70      	pop	{r4, r5, r6, pc}
   da8e0:	f1c4 040c 	rsb	r4, r4, #12
   da8e4:	f1c4 0520 	rsb	r5, r4, #32
   da8e8:	fa00 f304 	lsl.w	r3, r0, r4
   da8ec:	fa20 f005 	lsr.w	r0, r0, r5
   da8f0:	fa01 f204 	lsl.w	r2, r1, r4
   da8f4:	ea40 0002 	orr.w	r0, r0, r2
   da8f8:	f001 4100 	and.w	r1, r1, #2147483648	; 0x80000000
   da8fc:	eb10 70d3 	adds.w	r0, r0, r3, lsr #31
   da900:	f141 0100 	adc.w	r1, r1, #0
   da904:	ea5e 0e43 	orrs.w	lr, lr, r3, lsl #1
   da908:	bf08      	it	eq
   da90a:	ea20 70d3 	biceq.w	r0, r0, r3, lsr #31
   da90e:	bd70      	pop	{r4, r5, r6, pc}
   da910:	f1c4 0520 	rsb	r5, r4, #32
   da914:	fa00 f205 	lsl.w	r2, r0, r5
   da918:	ea4e 0e02 	orr.w	lr, lr, r2
   da91c:	fa20 f304 	lsr.w	r3, r0, r4
   da920:	fa01 f205 	lsl.w	r2, r1, r5
   da924:	ea43 0302 	orr.w	r3, r3, r2
   da928:	fa21 f004 	lsr.w	r0, r1, r4
   da92c:	f001 4100 	and.w	r1, r1, #2147483648	; 0x80000000
   da930:	fa21 f204 	lsr.w	r2, r1, r4
   da934:	ea20 0002 	bic.w	r0, r0, r2
   da938:	eb00 70d3 	add.w	r0, r0, r3, lsr #31
   da93c:	ea5e 0e43 	orrs.w	lr, lr, r3, lsl #1
   da940:	bf08      	it	eq
   da942:	ea20 70d3 	biceq.w	r0, r0, r3, lsr #31
   da946:	bd70      	pop	{r4, r5, r6, pc}
   da948:	f094 0f00 	teq	r4, #0
   da94c:	d10f      	bne.n	da96e <__aeabi_dmul+0x1c2>
   da94e:	f001 4600 	and.w	r6, r1, #2147483648	; 0x80000000
   da952:	0040      	lsls	r0, r0, #1
   da954:	eb41 0101 	adc.w	r1, r1, r1
   da958:	f411 1f80 	tst.w	r1, #1048576	; 0x100000
   da95c:	bf08      	it	eq
   da95e:	3c01      	subeq	r4, #1
   da960:	d0f7      	beq.n	da952 <__aeabi_dmul+0x1a6>
   da962:	ea41 0106 	orr.w	r1, r1, r6
   da966:	f095 0f00 	teq	r5, #0
   da96a:	bf18      	it	ne
   da96c:	4770      	bxne	lr
   da96e:	f003 4600 	and.w	r6, r3, #2147483648	; 0x80000000
   da972:	0052      	lsls	r2, r2, #1
   da974:	eb43 0303 	adc.w	r3, r3, r3
   da978:	f413 1f80 	tst.w	r3, #1048576	; 0x100000
   da97c:	bf08      	it	eq
   da97e:	3d01      	subeq	r5, #1
   da980:	d0f7      	beq.n	da972 <__aeabi_dmul+0x1c6>
   da982:	ea43 0306 	orr.w	r3, r3, r6
   da986:	4770      	bx	lr
   da988:	ea94 0f0c 	teq	r4, ip
   da98c:	ea0c 5513 	and.w	r5, ip, r3, lsr #20
   da990:	bf18      	it	ne
   da992:	ea95 0f0c 	teqne	r5, ip
   da996:	d00c      	beq.n	da9b2 <__aeabi_dmul+0x206>
   da998:	ea50 0641 	orrs.w	r6, r0, r1, lsl #1
   da99c:	bf18      	it	ne
   da99e:	ea52 0643 	orrsne.w	r6, r2, r3, lsl #1
   da9a2:	d1d1      	bne.n	da948 <__aeabi_dmul+0x19c>
   da9a4:	ea81 0103 	eor.w	r1, r1, r3
   da9a8:	f001 4100 	and.w	r1, r1, #2147483648	; 0x80000000
   da9ac:	f04f 0000 	mov.w	r0, #0
   da9b0:	bd70      	pop	{r4, r5, r6, pc}
   da9b2:	ea50 0641 	orrs.w	r6, r0, r1, lsl #1
   da9b6:	bf06      	itte	eq
   da9b8:	4610      	moveq	r0, r2
   da9ba:	4619      	moveq	r1, r3
   da9bc:	ea52 0643 	orrsne.w	r6, r2, r3, lsl #1
   da9c0:	d019      	beq.n	da9f6 <__aeabi_dmul+0x24a>
   da9c2:	ea94 0f0c 	teq	r4, ip
   da9c6:	d102      	bne.n	da9ce <__aeabi_dmul+0x222>
   da9c8:	ea50 3601 	orrs.w	r6, r0, r1, lsl #12
   da9cc:	d113      	bne.n	da9f6 <__aeabi_dmul+0x24a>
   da9ce:	ea95 0f0c 	teq	r5, ip
   da9d2:	d105      	bne.n	da9e0 <__aeabi_dmul+0x234>
   da9d4:	ea52 3603 	orrs.w	r6, r2, r3, lsl #12
   da9d8:	bf1c      	itt	ne
   da9da:	4610      	movne	r0, r2
   da9dc:	4619      	movne	r1, r3
   da9de:	d10a      	bne.n	da9f6 <__aeabi_dmul+0x24a>
   da9e0:	ea81 0103 	eor.w	r1, r1, r3
   da9e4:	f001 4100 	and.w	r1, r1, #2147483648	; 0x80000000
   da9e8:	f041 41fe 	orr.w	r1, r1, #2130706432	; 0x7f000000
   da9ec:	f441 0170 	orr.w	r1, r1, #15728640	; 0xf00000
   da9f0:	f04f 0000 	mov.w	r0, #0
   da9f4:	bd70      	pop	{r4, r5, r6, pc}
   da9f6:	f041 41fe 	orr.w	r1, r1, #2130706432	; 0x7f000000
   da9fa:	f441 0178 	orr.w	r1, r1, #16252928	; 0xf80000
   da9fe:	bd70      	pop	{r4, r5, r6, pc}

000daa00 <__aeabi_ddiv>:
   daa00:	b570      	push	{r4, r5, r6, lr}
   daa02:	f04f 0cff 	mov.w	ip, #255	; 0xff
   daa06:	f44c 6ce0 	orr.w	ip, ip, #1792	; 0x700
   daa0a:	ea1c 5411 	ands.w	r4, ip, r1, lsr #20
   daa0e:	bf1d      	ittte	ne
   daa10:	ea1c 5513 	andsne.w	r5, ip, r3, lsr #20
   daa14:	ea94 0f0c 	teqne	r4, ip
   daa18:	ea95 0f0c 	teqne	r5, ip
   daa1c:	f000 f8a7 	bleq	dab6e <__aeabi_ddiv+0x16e>
   daa20:	eba4 0405 	sub.w	r4, r4, r5
   daa24:	ea81 0e03 	eor.w	lr, r1, r3
   daa28:	ea52 3503 	orrs.w	r5, r2, r3, lsl #12
   daa2c:	ea4f 3101 	mov.w	r1, r1, lsl #12
   daa30:	f000 8088 	beq.w	dab44 <__aeabi_ddiv+0x144>
   daa34:	ea4f 3303 	mov.w	r3, r3, lsl #12
   daa38:	f04f 5580 	mov.w	r5, #268435456	; 0x10000000
   daa3c:	ea45 1313 	orr.w	r3, r5, r3, lsr #4
   daa40:	ea43 6312 	orr.w	r3, r3, r2, lsr #24
   daa44:	ea4f 2202 	mov.w	r2, r2, lsl #8
   daa48:	ea45 1511 	orr.w	r5, r5, r1, lsr #4
   daa4c:	ea45 6510 	orr.w	r5, r5, r0, lsr #24
   daa50:	ea4f 2600 	mov.w	r6, r0, lsl #8
   daa54:	f00e 4100 	and.w	r1, lr, #2147483648	; 0x80000000
   daa58:	429d      	cmp	r5, r3
   daa5a:	bf08      	it	eq
   daa5c:	4296      	cmpeq	r6, r2
   daa5e:	f144 04fd 	adc.w	r4, r4, #253	; 0xfd
   daa62:	f504 7440 	add.w	r4, r4, #768	; 0x300
   daa66:	d202      	bcs.n	daa6e <__aeabi_ddiv+0x6e>
   daa68:	085b      	lsrs	r3, r3, #1
   daa6a:	ea4f 0232 	mov.w	r2, r2, rrx
   daa6e:	1ab6      	subs	r6, r6, r2
   daa70:	eb65 0503 	sbc.w	r5, r5, r3
   daa74:	085b      	lsrs	r3, r3, #1
   daa76:	ea4f 0232 	mov.w	r2, r2, rrx
   daa7a:	f44f 1080 	mov.w	r0, #1048576	; 0x100000
   daa7e:	f44f 2c00 	mov.w	ip, #524288	; 0x80000
   daa82:	ebb6 0e02 	subs.w	lr, r6, r2
   daa86:	eb75 0e03 	sbcs.w	lr, r5, r3
   daa8a:	bf22      	ittt	cs
   daa8c:	1ab6      	subcs	r6, r6, r2
   daa8e:	4675      	movcs	r5, lr
   daa90:	ea40 000c 	orrcs.w	r0, r0, ip
   daa94:	085b      	lsrs	r3, r3, #1
   daa96:	ea4f 0232 	mov.w	r2, r2, rrx
   daa9a:	ebb6 0e02 	subs.w	lr, r6, r2
   daa9e:	eb75 0e03 	sbcs.w	lr, r5, r3
   daaa2:	bf22      	ittt	cs
   daaa4:	1ab6      	subcs	r6, r6, r2
   daaa6:	4675      	movcs	r5, lr
   daaa8:	ea40 005c 	orrcs.w	r0, r0, ip, lsr #1
   daaac:	085b      	lsrs	r3, r3, #1
   daaae:	ea4f 0232 	mov.w	r2, r2, rrx
   daab2:	ebb6 0e02 	subs.w	lr, r6, r2
   daab6:	eb75 0e03 	sbcs.w	lr, r5, r3
   daaba:	bf22      	ittt	cs
   daabc:	1ab6      	subcs	r6, r6, r2
   daabe:	4675      	movcs	r5, lr
   daac0:	ea40 009c 	orrcs.w	r0, r0, ip, lsr #2
   daac4:	085b      	lsrs	r3, r3, #1
   daac6:	ea4f 0232 	mov.w	r2, r2, rrx
   daaca:	ebb6 0e02 	subs.w	lr, r6, r2
   daace:	eb75 0e03 	sbcs.w	lr, r5, r3
   daad2:	bf22      	ittt	cs
   daad4:	1ab6      	subcs	r6, r6, r2
   daad6:	4675      	movcs	r5, lr
   daad8:	ea40 00dc 	orrcs.w	r0, r0, ip, lsr #3
   daadc:	ea55 0e06 	orrs.w	lr, r5, r6
   daae0:	d018      	beq.n	dab14 <__aeabi_ddiv+0x114>
   daae2:	ea4f 1505 	mov.w	r5, r5, lsl #4
   daae6:	ea45 7516 	orr.w	r5, r5, r6, lsr #28
   daaea:	ea4f 1606 	mov.w	r6, r6, lsl #4
   daaee:	ea4f 03c3 	mov.w	r3, r3, lsl #3
   daaf2:	ea43 7352 	orr.w	r3, r3, r2, lsr #29
   daaf6:	ea4f 02c2 	mov.w	r2, r2, lsl #3
   daafa:	ea5f 1c1c 	movs.w	ip, ip, lsr #4
   daafe:	d1c0      	bne.n	daa82 <__aeabi_ddiv+0x82>
   dab00:	f411 1f80 	tst.w	r1, #1048576	; 0x100000
   dab04:	d10b      	bne.n	dab1e <__aeabi_ddiv+0x11e>
   dab06:	ea41 0100 	orr.w	r1, r1, r0
   dab0a:	f04f 0000 	mov.w	r0, #0
   dab0e:	f04f 4c00 	mov.w	ip, #2147483648	; 0x80000000
   dab12:	e7b6      	b.n	daa82 <__aeabi_ddiv+0x82>
   dab14:	f411 1f80 	tst.w	r1, #1048576	; 0x100000
   dab18:	bf04      	itt	eq
   dab1a:	4301      	orreq	r1, r0
   dab1c:	2000      	moveq	r0, #0
   dab1e:	f1b4 0cfd 	subs.w	ip, r4, #253	; 0xfd
   dab22:	bf88      	it	hi
   dab24:	f5bc 6fe0 	cmphi.w	ip, #1792	; 0x700
   dab28:	f63f aeaf 	bhi.w	da88a <__aeabi_dmul+0xde>
   dab2c:	ebb5 0c03 	subs.w	ip, r5, r3
   dab30:	bf04      	itt	eq
   dab32:	ebb6 0c02 	subseq.w	ip, r6, r2
   dab36:	ea5f 0c50 	movseq.w	ip, r0, lsr #1
   dab3a:	f150 0000 	adcs.w	r0, r0, #0
   dab3e:	eb41 5104 	adc.w	r1, r1, r4, lsl #20
   dab42:	bd70      	pop	{r4, r5, r6, pc}
   dab44:	f00e 4e00 	and.w	lr, lr, #2147483648	; 0x80000000
   dab48:	ea4e 3111 	orr.w	r1, lr, r1, lsr #12
   dab4c:	eb14 045c 	adds.w	r4, r4, ip, lsr #1
   dab50:	bfc2      	ittt	gt
   dab52:	ebd4 050c 	rsbsgt	r5, r4, ip
   dab56:	ea41 5104 	orrgt.w	r1, r1, r4, lsl #20
   dab5a:	bd70      	popgt	{r4, r5, r6, pc}
   dab5c:	f441 1180 	orr.w	r1, r1, #1048576	; 0x100000
   dab60:	f04f 0e00 	mov.w	lr, #0
   dab64:	3c01      	subs	r4, #1
   dab66:	e690      	b.n	da88a <__aeabi_dmul+0xde>
   dab68:	ea45 0e06 	orr.w	lr, r5, r6
   dab6c:	e68d      	b.n	da88a <__aeabi_dmul+0xde>
   dab6e:	ea0c 5513 	and.w	r5, ip, r3, lsr #20
   dab72:	ea94 0f0c 	teq	r4, ip
   dab76:	bf08      	it	eq
   dab78:	ea95 0f0c 	teqeq	r5, ip
   dab7c:	f43f af3b 	beq.w	da9f6 <__aeabi_dmul+0x24a>
   dab80:	ea94 0f0c 	teq	r4, ip
   dab84:	d10a      	bne.n	dab9c <__aeabi_ddiv+0x19c>
   dab86:	ea50 3401 	orrs.w	r4, r0, r1, lsl #12
   dab8a:	f47f af34 	bne.w	da9f6 <__aeabi_dmul+0x24a>
   dab8e:	ea95 0f0c 	teq	r5, ip
   dab92:	f47f af25 	bne.w	da9e0 <__aeabi_dmul+0x234>
   dab96:	4610      	mov	r0, r2
   dab98:	4619      	mov	r1, r3
   dab9a:	e72c      	b.n	da9f6 <__aeabi_dmul+0x24a>
   dab9c:	ea95 0f0c 	teq	r5, ip
   daba0:	d106      	bne.n	dabb0 <__aeabi_ddiv+0x1b0>
   daba2:	ea52 3503 	orrs.w	r5, r2, r3, lsl #12
   daba6:	f43f aefd 	beq.w	da9a4 <__aeabi_dmul+0x1f8>
   dabaa:	4610      	mov	r0, r2
   dabac:	4619      	mov	r1, r3
   dabae:	e722      	b.n	da9f6 <__aeabi_dmul+0x24a>
   dabb0:	ea50 0641 	orrs.w	r6, r0, r1, lsl #1
   dabb4:	bf18      	it	ne
   dabb6:	ea52 0643 	orrsne.w	r6, r2, r3, lsl #1
   dabba:	f47f aec5 	bne.w	da948 <__aeabi_dmul+0x19c>
   dabbe:	ea50 0441 	orrs.w	r4, r0, r1, lsl #1
   dabc2:	f47f af0d 	bne.w	da9e0 <__aeabi_dmul+0x234>
   dabc6:	ea52 0543 	orrs.w	r5, r2, r3, lsl #1
   dabca:	f47f aeeb 	bne.w	da9a4 <__aeabi_dmul+0x1f8>
   dabce:	e712      	b.n	da9f6 <__aeabi_dmul+0x24a>

000dabd0 <__aeabi_d2uiz>:
   dabd0:	004a      	lsls	r2, r1, #1
   dabd2:	d211      	bcs.n	dabf8 <__aeabi_d2uiz+0x28>
   dabd4:	f512 1200 	adds.w	r2, r2, #2097152	; 0x200000
   dabd8:	d211      	bcs.n	dabfe <__aeabi_d2uiz+0x2e>
   dabda:	d50d      	bpl.n	dabf8 <__aeabi_d2uiz+0x28>
   dabdc:	f46f 7378 	mvn.w	r3, #992	; 0x3e0
   dabe0:	ebb3 5262 	subs.w	r2, r3, r2, asr #21
   dabe4:	d40e      	bmi.n	dac04 <__aeabi_d2uiz+0x34>
   dabe6:	ea4f 23c1 	mov.w	r3, r1, lsl #11
   dabea:	f043 4300 	orr.w	r3, r3, #2147483648	; 0x80000000
   dabee:	ea43 5350 	orr.w	r3, r3, r0, lsr #21
   dabf2:	fa23 f002 	lsr.w	r0, r3, r2
   dabf6:	4770      	bx	lr
   dabf8:	f04f 0000 	mov.w	r0, #0
   dabfc:	4770      	bx	lr
   dabfe:	ea50 3001 	orrs.w	r0, r0, r1, lsl #12
   dac02:	d102      	bne.n	dac0a <__aeabi_d2uiz+0x3a>
   dac04:	f04f 30ff 	mov.w	r0, #4294967295	; 0xffffffff
   dac08:	4770      	bx	lr
   dac0a:	f04f 0000 	mov.w	r0, #0
   dac0e:	4770      	bx	lr

000dac10 <__aeabi_d2f>:
   dac10:	ea4f 0241 	mov.w	r2, r1, lsl #1
   dac14:	f1b2 43e0 	subs.w	r3, r2, #1879048192	; 0x70000000
   dac18:	bf24      	itt	cs
   dac1a:	f5b3 1c00 	subscs.w	ip, r3, #2097152	; 0x200000
   dac1e:	f1dc 5cfe 	rsbscs	ip, ip, #532676608	; 0x1fc00000
   dac22:	d90d      	bls.n	dac40 <__aeabi_d2f+0x30>
   dac24:	f001 4c00 	and.w	ip, r1, #2147483648	; 0x80000000
   dac28:	ea4f 02c0 	mov.w	r2, r0, lsl #3
   dac2c:	ea4c 7050 	orr.w	r0, ip, r0, lsr #29
   dac30:	f1b2 4f00 	cmp.w	r2, #2147483648	; 0x80000000
   dac34:	eb40 0083 	adc.w	r0, r0, r3, lsl #2
   dac38:	bf08      	it	eq
   dac3a:	f020 0001 	biceq.w	r0, r0, #1
   dac3e:	4770      	bx	lr
   dac40:	f011 4f80 	tst.w	r1, #1073741824	; 0x40000000
   dac44:	d121      	bne.n	dac8a <__aeabi_d2f+0x7a>
   dac46:	f113 7238 	adds.w	r2, r3, #48234496	; 0x2e00000
   dac4a:	bfbc      	itt	lt
   dac4c:	f001 4000 	andlt.w	r0, r1, #2147483648	; 0x80000000
   dac50:	4770      	bxlt	lr
   dac52:	f441 1180 	orr.w	r1, r1, #1048576	; 0x100000
   dac56:	ea4f 5252 	mov.w	r2, r2, lsr #21
   dac5a:	f1c2 0218 	rsb	r2, r2, #24
   dac5e:	f1c2 0c20 	rsb	ip, r2, #32
   dac62:	fa10 f30c 	lsls.w	r3, r0, ip
   dac66:	fa20 f002 	lsr.w	r0, r0, r2
   dac6a:	bf18      	it	ne
   dac6c:	f040 0001 	orrne.w	r0, r0, #1
   dac70:	ea4f 23c1 	mov.w	r3, r1, lsl #11
   dac74:	ea4f 23d3 	mov.w	r3, r3, lsr #11
   dac78:	fa03 fc0c 	lsl.w	ip, r3, ip
   dac7c:	ea40 000c 	orr.w	r0, r0, ip
   dac80:	fa23 f302 	lsr.w	r3, r3, r2
   dac84:	ea4f 0343 	mov.w	r3, r3, lsl #1
   dac88:	e7cc      	b.n	dac24 <__aeabi_d2f+0x14>
   dac8a:	ea7f 5362 	mvns.w	r3, r2, asr #21
   dac8e:	d107      	bne.n	daca0 <__aeabi_d2f+0x90>
   dac90:	ea50 3301 	orrs.w	r3, r0, r1, lsl #12
   dac94:	bf1e      	ittt	ne
   dac96:	f04f 40fe 	movne.w	r0, #2130706432	; 0x7f000000
   dac9a:	f440 0040 	orrne.w	r0, r0, #12582912	; 0xc00000
   dac9e:	4770      	bxne	lr
   daca0:	f001 4000 	and.w	r0, r1, #2147483648	; 0x80000000
   daca4:	f040 40fe 	orr.w	r0, r0, #2130706432	; 0x7f000000
   daca8:	f440 0000 	orr.w	r0, r0, #8388608	; 0x800000
   dacac:	4770      	bx	lr
   dacae:	bf00      	nop

000dacb0 <__aeabi_f2lz>:
   dacb0:	ee07 0a90 	vmov	s15, r0
   dacb4:	eef5 7ac0 	vcmpe.f32	s15, #0.0
   dacb8:	eef1 fa10 	vmrs	APSR_nzcv, fpscr
   dacbc:	d401      	bmi.n	dacc2 <__aeabi_f2lz+0x12>
   dacbe:	f000 b80b 	b.w	dacd8 <__aeabi_f2ulz>
   dacc2:	eef1 7a67 	vneg.f32	s15, s15
   dacc6:	b508      	push	{r3, lr}
   dacc8:	ee17 0a90 	vmov	r0, s15
   daccc:	f000 f804 	bl	dacd8 <__aeabi_f2ulz>
   dacd0:	4240      	negs	r0, r0
   dacd2:	eb61 0141 	sbc.w	r1, r1, r1, lsl #1
   dacd6:	bd08      	pop	{r3, pc}

000dacd8 <__aeabi_f2ulz>:
   dacd8:	b5d0      	push	{r4, r6, r7, lr}
   dacda:	f7ff fd0f 	bl	da6fc <__aeabi_f2d>
   dacde:	4b0c      	ldr	r3, [pc, #48]	; (dad10 <__aeabi_f2ulz+0x38>)
   dace0:	2200      	movs	r2, #0
   dace2:	4606      	mov	r6, r0
   dace4:	460f      	mov	r7, r1
   dace6:	f7ff fd61 	bl	da7ac <__aeabi_dmul>
   dacea:	f7ff ff71 	bl	dabd0 <__aeabi_d2uiz>
   dacee:	4604      	mov	r4, r0
   dacf0:	f7ff fce2 	bl	da6b8 <__aeabi_ui2d>
   dacf4:	4b07      	ldr	r3, [pc, #28]	; (dad14 <__aeabi_f2ulz+0x3c>)
   dacf6:	2200      	movs	r2, #0
   dacf8:	f7ff fd58 	bl	da7ac <__aeabi_dmul>
   dacfc:	4602      	mov	r2, r0
   dacfe:	460b      	mov	r3, r1
   dad00:	4630      	mov	r0, r6
   dad02:	4639      	mov	r1, r7
   dad04:	f7ff fb9a 	bl	da43c <__aeabi_dsub>
   dad08:	f7ff ff62 	bl	dabd0 <__aeabi_d2uiz>
   dad0c:	4621      	mov	r1, r4
   dad0e:	bdd0      	pop	{r4, r6, r7, pc}
   dad10:	3df00000 	.word	0x3df00000
   dad14:	41f00000 	.word	0x41f00000

000dad18 <asctime_r>:
   dad18:	b510      	push	{r4, lr}
   dad1a:	460c      	mov	r4, r1
   dad1c:	6941      	ldr	r1, [r0, #20]
   dad1e:	6903      	ldr	r3, [r0, #16]
   dad20:	6982      	ldr	r2, [r0, #24]
   dad22:	b086      	sub	sp, #24
   dad24:	f201 716c 	addw	r1, r1, #1900	; 0x76c
   dad28:	9104      	str	r1, [sp, #16]
   dad2a:	6801      	ldr	r1, [r0, #0]
   dad2c:	9103      	str	r1, [sp, #12]
   dad2e:	6841      	ldr	r1, [r0, #4]
   dad30:	9102      	str	r1, [sp, #8]
   dad32:	6881      	ldr	r1, [r0, #8]
   dad34:	9101      	str	r1, [sp, #4]
   dad36:	68c1      	ldr	r1, [r0, #12]
   dad38:	9100      	str	r1, [sp, #0]
   dad3a:	4907      	ldr	r1, [pc, #28]	; (dad58 <asctime_r+0x40>)
   dad3c:	eb03 0343 	add.w	r3, r3, r3, lsl #1
   dad40:	440b      	add	r3, r1
   dad42:	4906      	ldr	r1, [pc, #24]	; (dad5c <asctime_r+0x44>)
   dad44:	eb02 0242 	add.w	r2, r2, r2, lsl #1
   dad48:	440a      	add	r2, r1
   dad4a:	4620      	mov	r0, r4
   dad4c:	4904      	ldr	r1, [pc, #16]	; (dad60 <asctime_r+0x48>)
   dad4e:	f7fd fd29 	bl	d87a4 <siprintf>
   dad52:	4620      	mov	r0, r4
   dad54:	b006      	add	sp, #24
   dad56:	bd10      	pop	{r4, pc}
   dad58:	000dbb76 	.word	0x000dbb76
   dad5c:	000dbb61 	.word	0x000dbb61
   dad60:	000dbb41 	.word	0x000dbb41

000dad64 <atoi>:
   dad64:	220a      	movs	r2, #10
   dad66:	2100      	movs	r1, #0
   dad68:	f000 b93c 	b.w	dafe4 <strtol>

000dad6c <atol>:
   dad6c:	220a      	movs	r2, #10
   dad6e:	2100      	movs	r1, #0
   dad70:	f000 b938 	b.w	dafe4 <strtol>

000dad74 <__cxa_atexit>:
   dad74:	b510      	push	{r4, lr}
   dad76:	4c05      	ldr	r4, [pc, #20]	; (dad8c <__cxa_atexit+0x18>)
   dad78:	4613      	mov	r3, r2
   dad7a:	b12c      	cbz	r4, dad88 <__cxa_atexit+0x14>
   dad7c:	460a      	mov	r2, r1
   dad7e:	4601      	mov	r1, r0
   dad80:	2002      	movs	r0, #2
   dad82:	f3af 8000 	nop.w
   dad86:	bd10      	pop	{r4, pc}
   dad88:	4620      	mov	r0, r4
   dad8a:	e7fc      	b.n	dad86 <__cxa_atexit+0x12>
   dad8c:	00000000 	.word	0x00000000

000dad90 <gmtime>:
   dad90:	b538      	push	{r3, r4, r5, lr}
   dad92:	4b07      	ldr	r3, [pc, #28]	; (dadb0 <gmtime+0x20>)
   dad94:	681d      	ldr	r5, [r3, #0]
   dad96:	6beb      	ldr	r3, [r5, #60]	; 0x3c
   dad98:	4604      	mov	r4, r0
   dad9a:	b91b      	cbnz	r3, dada4 <gmtime+0x14>
   dad9c:	2024      	movs	r0, #36	; 0x24
   dad9e:	f7fd fce9 	bl	d8774 <malloc>
   dada2:	63e8      	str	r0, [r5, #60]	; 0x3c
   dada4:	6be9      	ldr	r1, [r5, #60]	; 0x3c
   dada6:	4620      	mov	r0, r4
   dada8:	e8bd 4038 	ldmia.w	sp!, {r3, r4, r5, lr}
   dadac:	f7fd bd3a 	b.w	d8824 <gmtime_r>
   dadb0:	2003e190 	.word	0x2003e190

000dadb4 <memcpy>:
   dadb4:	440a      	add	r2, r1
   dadb6:	4291      	cmp	r1, r2
   dadb8:	f100 33ff 	add.w	r3, r0, #4294967295	; 0xffffffff
   dadbc:	d100      	bne.n	dadc0 <memcpy+0xc>
   dadbe:	4770      	bx	lr
   dadc0:	b510      	push	{r4, lr}
   dadc2:	f811 4b01 	ldrb.w	r4, [r1], #1
   dadc6:	f803 4f01 	strb.w	r4, [r3, #1]!
   dadca:	4291      	cmp	r1, r2
   dadcc:	d1f9      	bne.n	dadc2 <memcpy+0xe>
   dadce:	bd10      	pop	{r4, pc}

000dadd0 <memmove>:
   dadd0:	4288      	cmp	r0, r1
   dadd2:	b510      	push	{r4, lr}
   dadd4:	eb01 0402 	add.w	r4, r1, r2
   dadd8:	d902      	bls.n	dade0 <memmove+0x10>
   dadda:	4284      	cmp	r4, r0
   daddc:	4623      	mov	r3, r4
   dadde:	d807      	bhi.n	dadf0 <memmove+0x20>
   dade0:	1e43      	subs	r3, r0, #1
   dade2:	42a1      	cmp	r1, r4
   dade4:	d008      	beq.n	dadf8 <memmove+0x28>
   dade6:	f811 2b01 	ldrb.w	r2, [r1], #1
   dadea:	f803 2f01 	strb.w	r2, [r3, #1]!
   dadee:	e7f8      	b.n	dade2 <memmove+0x12>
   dadf0:	4402      	add	r2, r0
   dadf2:	4601      	mov	r1, r0
   dadf4:	428a      	cmp	r2, r1
   dadf6:	d100      	bne.n	dadfa <memmove+0x2a>
   dadf8:	bd10      	pop	{r4, pc}
   dadfa:	f813 4d01 	ldrb.w	r4, [r3, #-1]!
   dadfe:	f802 4d01 	strb.w	r4, [r2, #-1]!
   dae02:	e7f7      	b.n	dadf4 <memmove+0x24>

000dae04 <memset>:
   dae04:	4402      	add	r2, r0
   dae06:	4603      	mov	r3, r0
   dae08:	4293      	cmp	r3, r2
   dae0a:	d100      	bne.n	dae0e <memset+0xa>
   dae0c:	4770      	bx	lr
   dae0e:	f803 1b01 	strb.w	r1, [r3], #1
   dae12:	e7f9      	b.n	dae08 <memset+0x4>

000dae14 <srand>:
   dae14:	b538      	push	{r3, r4, r5, lr}
   dae16:	4b0d      	ldr	r3, [pc, #52]	; (dae4c <srand+0x38>)
   dae18:	681d      	ldr	r5, [r3, #0]
   dae1a:	6bab      	ldr	r3, [r5, #56]	; 0x38
   dae1c:	4604      	mov	r4, r0
   dae1e:	b97b      	cbnz	r3, dae40 <srand+0x2c>
   dae20:	2018      	movs	r0, #24
   dae22:	f7fd fca7 	bl	d8774 <malloc>
   dae26:	4a0a      	ldr	r2, [pc, #40]	; (dae50 <srand+0x3c>)
   dae28:	4b0a      	ldr	r3, [pc, #40]	; (dae54 <srand+0x40>)
   dae2a:	63a8      	str	r0, [r5, #56]	; 0x38
   dae2c:	e9c0 2300 	strd	r2, r3, [r0]
   dae30:	4b09      	ldr	r3, [pc, #36]	; (dae58 <srand+0x44>)
   dae32:	6083      	str	r3, [r0, #8]
   dae34:	230b      	movs	r3, #11
   dae36:	8183      	strh	r3, [r0, #12]
   dae38:	2201      	movs	r2, #1
   dae3a:	2300      	movs	r3, #0
   dae3c:	e9c0 2304 	strd	r2, r3, [r0, #16]
   dae40:	6bab      	ldr	r3, [r5, #56]	; 0x38
   dae42:	2200      	movs	r2, #0
   dae44:	611c      	str	r4, [r3, #16]
   dae46:	615a      	str	r2, [r3, #20]
   dae48:	bd38      	pop	{r3, r4, r5, pc}
   dae4a:	bf00      	nop
   dae4c:	2003e190 	.word	0x2003e190
   dae50:	abcd330e 	.word	0xabcd330e
   dae54:	e66d1234 	.word	0xe66d1234
   dae58:	0005deec 	.word	0x0005deec

000dae5c <strcmp>:
   dae5c:	f810 2b01 	ldrb.w	r2, [r0], #1
   dae60:	f811 3b01 	ldrb.w	r3, [r1], #1
   dae64:	2a01      	cmp	r2, #1
   dae66:	bf28      	it	cs
   dae68:	429a      	cmpcs	r2, r3
   dae6a:	d0f7      	beq.n	dae5c <strcmp>
   dae6c:	1ad0      	subs	r0, r2, r3
   dae6e:	4770      	bx	lr

000dae70 <strcpy>:
   dae70:	4603      	mov	r3, r0
   dae72:	f811 2b01 	ldrb.w	r2, [r1], #1
   dae76:	f803 2b01 	strb.w	r2, [r3], #1
   dae7a:	2a00      	cmp	r2, #0
   dae7c:	d1f9      	bne.n	dae72 <strcpy+0x2>
   dae7e:	4770      	bx	lr

000dae80 <strdup>:
   dae80:	4b02      	ldr	r3, [pc, #8]	; (dae8c <strdup+0xc>)
   dae82:	4601      	mov	r1, r0
   dae84:	6818      	ldr	r0, [r3, #0]
   dae86:	f000 b803 	b.w	dae90 <_strdup_r>
   dae8a:	bf00      	nop
   dae8c:	2003e190 	.word	0x2003e190

000dae90 <_strdup_r>:
   dae90:	b537      	push	{r0, r1, r2, r4, r5, lr}
   dae92:	4604      	mov	r4, r0
   dae94:	4608      	mov	r0, r1
   dae96:	460d      	mov	r5, r1
   dae98:	f000 f80f 	bl	daeba <strlen>
   dae9c:	1c42      	adds	r2, r0, #1
   dae9e:	4611      	mov	r1, r2
   daea0:	4620      	mov	r0, r4
   daea2:	9201      	str	r2, [sp, #4]
   daea4:	f7fd fc9e 	bl	d87e4 <_malloc_r>
   daea8:	4604      	mov	r4, r0
   daeaa:	b118      	cbz	r0, daeb4 <_strdup_r+0x24>
   daeac:	9a01      	ldr	r2, [sp, #4]
   daeae:	4629      	mov	r1, r5
   daeb0:	f7ff ff80 	bl	dadb4 <memcpy>
   daeb4:	4620      	mov	r0, r4
   daeb6:	b003      	add	sp, #12
   daeb8:	bd30      	pop	{r4, r5, pc}

000daeba <strlen>:
   daeba:	4603      	mov	r3, r0
   daebc:	f813 2b01 	ldrb.w	r2, [r3], #1
   daec0:	2a00      	cmp	r2, #0
   daec2:	d1fb      	bne.n	daebc <strlen+0x2>
   daec4:	1a18      	subs	r0, r3, r0
   daec6:	3801      	subs	r0, #1
   daec8:	4770      	bx	lr

000daeca <strncpy>:
   daeca:	b510      	push	{r4, lr}
   daecc:	3901      	subs	r1, #1
   daece:	4603      	mov	r3, r0
   daed0:	b132      	cbz	r2, daee0 <strncpy+0x16>
   daed2:	f811 4f01 	ldrb.w	r4, [r1, #1]!
   daed6:	f803 4b01 	strb.w	r4, [r3], #1
   daeda:	3a01      	subs	r2, #1
   daedc:	2c00      	cmp	r4, #0
   daede:	d1f7      	bne.n	daed0 <strncpy+0x6>
   daee0:	441a      	add	r2, r3
   daee2:	2100      	movs	r1, #0
   daee4:	4293      	cmp	r3, r2
   daee6:	d100      	bne.n	daeea <strncpy+0x20>
   daee8:	bd10      	pop	{r4, pc}
   daeea:	f803 1b01 	strb.w	r1, [r3], #1
   daeee:	e7f9      	b.n	daee4 <strncpy+0x1a>

000daef0 <_strtol_l.isra.0>:
   daef0:	e92d 47f0 	stmdb	sp!, {r4, r5, r6, r7, r8, r9, sl, lr}
   daef4:	4e3a      	ldr	r6, [pc, #232]	; (dafe0 <_strtol_l.isra.0+0xf0>)
   daef6:	4686      	mov	lr, r0
   daef8:	468c      	mov	ip, r1
   daefa:	4660      	mov	r0, ip
   daefc:	f81c 4b01 	ldrb.w	r4, [ip], #1
   daf00:	5da5      	ldrb	r5, [r4, r6]
   daf02:	f015 0508 	ands.w	r5, r5, #8
   daf06:	d1f8      	bne.n	daefa <_strtol_l.isra.0+0xa>
   daf08:	2c2d      	cmp	r4, #45	; 0x2d
   daf0a:	d133      	bne.n	daf74 <_strtol_l.isra.0+0x84>
   daf0c:	f89c 4000 	ldrb.w	r4, [ip]
   daf10:	f04f 0801 	mov.w	r8, #1
   daf14:	f100 0c02 	add.w	ip, r0, #2
   daf18:	2b00      	cmp	r3, #0
   daf1a:	d05c      	beq.n	dafd6 <_strtol_l.isra.0+0xe6>
   daf1c:	2b10      	cmp	r3, #16
   daf1e:	d10c      	bne.n	daf3a <_strtol_l.isra.0+0x4a>
   daf20:	2c30      	cmp	r4, #48	; 0x30
   daf22:	d10a      	bne.n	daf3a <_strtol_l.isra.0+0x4a>
   daf24:	f89c 0000 	ldrb.w	r0, [ip]
   daf28:	f000 00df 	and.w	r0, r0, #223	; 0xdf
   daf2c:	2858      	cmp	r0, #88	; 0x58
   daf2e:	d14d      	bne.n	dafcc <_strtol_l.isra.0+0xdc>
   daf30:	f89c 4001 	ldrb.w	r4, [ip, #1]
   daf34:	2310      	movs	r3, #16
   daf36:	f10c 0c02 	add.w	ip, ip, #2
   daf3a:	f108 4700 	add.w	r7, r8, #2147483648	; 0x80000000
   daf3e:	3f01      	subs	r7, #1
   daf40:	2600      	movs	r6, #0
   daf42:	fbb7 f9f3 	udiv	r9, r7, r3
   daf46:	4630      	mov	r0, r6
   daf48:	fb03 7a19 	mls	sl, r3, r9, r7
   daf4c:	f1a4 0530 	sub.w	r5, r4, #48	; 0x30
   daf50:	2d09      	cmp	r5, #9
   daf52:	d818      	bhi.n	daf86 <_strtol_l.isra.0+0x96>
   daf54:	462c      	mov	r4, r5
   daf56:	42a3      	cmp	r3, r4
   daf58:	dd24      	ble.n	dafa4 <_strtol_l.isra.0+0xb4>
   daf5a:	1c75      	adds	r5, r6, #1
   daf5c:	d007      	beq.n	daf6e <_strtol_l.isra.0+0x7e>
   daf5e:	4581      	cmp	r9, r0
   daf60:	d31d      	bcc.n	daf9e <_strtol_l.isra.0+0xae>
   daf62:	d101      	bne.n	daf68 <_strtol_l.isra.0+0x78>
   daf64:	45a2      	cmp	sl, r4
   daf66:	db1a      	blt.n	daf9e <_strtol_l.isra.0+0xae>
   daf68:	fb00 4003 	mla	r0, r0, r3, r4
   daf6c:	2601      	movs	r6, #1
   daf6e:	f81c 4b01 	ldrb.w	r4, [ip], #1
   daf72:	e7eb      	b.n	daf4c <_strtol_l.isra.0+0x5c>
   daf74:	2c2b      	cmp	r4, #43	; 0x2b
   daf76:	bf08      	it	eq
   daf78:	f89c 4000 	ldrbeq.w	r4, [ip]
   daf7c:	46a8      	mov	r8, r5
   daf7e:	bf08      	it	eq
   daf80:	f100 0c02 	addeq.w	ip, r0, #2
   daf84:	e7c8      	b.n	daf18 <_strtol_l.isra.0+0x28>
   daf86:	f1a4 0541 	sub.w	r5, r4, #65	; 0x41
   daf8a:	2d19      	cmp	r5, #25
   daf8c:	d801      	bhi.n	daf92 <_strtol_l.isra.0+0xa2>
   daf8e:	3c37      	subs	r4, #55	; 0x37
   daf90:	e7e1      	b.n	daf56 <_strtol_l.isra.0+0x66>
   daf92:	f1a4 0561 	sub.w	r5, r4, #97	; 0x61
   daf96:	2d19      	cmp	r5, #25
   daf98:	d804      	bhi.n	dafa4 <_strtol_l.isra.0+0xb4>
   daf9a:	3c57      	subs	r4, #87	; 0x57
   daf9c:	e7db      	b.n	daf56 <_strtol_l.isra.0+0x66>
   daf9e:	f04f 36ff 	mov.w	r6, #4294967295	; 0xffffffff
   dafa2:	e7e4      	b.n	daf6e <_strtol_l.isra.0+0x7e>
   dafa4:	1c73      	adds	r3, r6, #1
   dafa6:	d106      	bne.n	dafb6 <_strtol_l.isra.0+0xc6>
   dafa8:	2322      	movs	r3, #34	; 0x22
   dafaa:	f8ce 3000 	str.w	r3, [lr]
   dafae:	4638      	mov	r0, r7
   dafb0:	b942      	cbnz	r2, dafc4 <_strtol_l.isra.0+0xd4>
   dafb2:	e8bd 87f0 	ldmia.w	sp!, {r4, r5, r6, r7, r8, r9, sl, pc}
   dafb6:	f1b8 0f00 	cmp.w	r8, #0
   dafba:	d000      	beq.n	dafbe <_strtol_l.isra.0+0xce>
   dafbc:	4240      	negs	r0, r0
   dafbe:	2a00      	cmp	r2, #0
   dafc0:	d0f7      	beq.n	dafb2 <_strtol_l.isra.0+0xc2>
   dafc2:	b10e      	cbz	r6, dafc8 <_strtol_l.isra.0+0xd8>
   dafc4:	f10c 31ff 	add.w	r1, ip, #4294967295	; 0xffffffff
   dafc8:	6011      	str	r1, [r2, #0]
   dafca:	e7f2      	b.n	dafb2 <_strtol_l.isra.0+0xc2>
   dafcc:	2430      	movs	r4, #48	; 0x30
   dafce:	2b00      	cmp	r3, #0
   dafd0:	d1b3      	bne.n	daf3a <_strtol_l.isra.0+0x4a>
   dafd2:	2308      	movs	r3, #8
   dafd4:	e7b1      	b.n	daf3a <_strtol_l.isra.0+0x4a>
   dafd6:	2c30      	cmp	r4, #48	; 0x30
   dafd8:	d0a4      	beq.n	daf24 <_strtol_l.isra.0+0x34>
   dafda:	230a      	movs	r3, #10
   dafdc:	e7ad      	b.n	daf3a <_strtol_l.isra.0+0x4a>
   dafde:	bf00      	nop
   dafe0:	000dbb9b 	.word	0x000dbb9b

000dafe4 <strtol>:
   dafe4:	4613      	mov	r3, r2
   dafe6:	460a      	mov	r2, r1
   dafe8:	4601      	mov	r1, r0
   dafea:	4802      	ldr	r0, [pc, #8]	; (daff4 <strtol+0x10>)
   dafec:	6800      	ldr	r0, [r0, #0]
   dafee:	f7ff bf7f 	b.w	daef0 <_strtol_l.isra.0>
   daff2:	bf00      	nop
   daff4:	2003e190 	.word	0x2003e190

000daff8 <dynalib_user>:
   daff8:	000d4021 000d405d 000d4085 000d4089     !@..]@...@...@..
   db008:	00000000 6e6b6e55 006e776f 656e6f4e     ....Unknown.None
   db018:	46695700 53470069 4d55004d 43005354     .WiFi.GSM.UMTS.C
   db028:	00414d44 0045544c 45454549 31323038     DMA.LTE.IEEE8021
   db038:	4c003435 435f4554 4d5f5441 544c0031     54.LTE_CAT_M1.LT
   db048:	41435f45 424e5f54 6f4e0031 68432074     E_CAT_NB1.Not Ch
   db058:	69677261 4f00676e 6556206e 6c636968     arging.On Vehicl
   db068:	77502065 664f0072 65562066 6c636968     e Pwr.Off Vehicl
   db078:	77502065 61460072 00746c75 6f636944     e Pwr.Fault.Dico
   db088:	63656e6e 00646574 44206f4e 00617461     nnected.No Data.
   db098:	70736552 65736e6f 63655220 65766965     Response Receive
   db0a8:	6e550064 776f6e6b 6572206e 6e6f7073     d.Unknown respon
   db0b8:	72206573 76656365 20646569 55006925     se recevied %i.U
   db0c8:	6f646962 48207374 006b6f6f 20746553     bidots Hook.Set 
   db0d8:	62726556 2065736f 65646f4d 43003000     Verbose Mode.0.C
   db0e8:	7261656c 56206465 6f627265 4d206573     leared Verbose M
   db0f8:	0065646f 312e3225 54552066 69540043     ode.%2.1f UTC.Ti
   db108:	7a20656d 20656e6f 7366666f 25207465     me zone offset %
   db118:	69540069 5300656d 6c706d61 6e492065     i.Time.Sample In
   db128:	76726574 69206c61 6f6e2073 69252077     terval is now %i
   db138:	6e696d20 73657475 63227b00 6e696261      minutes.{"cabin
   db148:	253a2254 66322e34 7622202c 54746e65     T":%4.2f, "ventT
   db158:	34253a22 2c66322e 756f2220 64697374     ":%4.2f, "outsid
   db168:	3a225465 322e3425 22202c66 74746162     eT":%4.2f, "batt
   db178:	22797265 2c69253a 6b222020 22317965     ery":%i,  "key1"
   db188:	7325223a 22202c22 65736572 3a227374     :"%s", "resets":
   db198:	202c6925 656c6122 22737472 2c69253a     %i, "alerts":%i,
   db1a8:	69742220 7473656d 22706d61 756c253a      "timestamp":%lu
   db1b8:	2c303030 616c2220 253a2274 22202c66     000, "lat":%f, "
   db1c8:	22676e6c 7d66253a 69625500 73746f64     lng":%f}.Ubidots
   db1d8:	54424d2d 6f482d41 762d6b6f 61502d32     -MBTA-Hook-v2-Pa
   db1e8:	00657372 53207325 2e32253a 25256630     rse.%s S:%2.0f%%
   db1f8:	3a51202c 302e3225 20252566 6f724600     , Q:%2.0f%% .Fro
   db208:	7325206d 206f7420 53007325 65746174     m %s to %s.State
   db218:	61725420 7469736e 006e6f69 432b5441      Transition.AT+C
   db228:	3d4e5546 0a0d3531 6e755200 676e696e     FUN=15...Running
   db238:	69614400 4320796c 6e61656c 44007075     .Daily Cleanup.D
   db248:	6f205453 65736666 32252074 0066312e     ST offset %2.1f.
   db258:	6c206f6e 7461636f 206e6f69 65746173     no location sate
   db268:	74696c6c 253a7365 6f6c0064 69746163     llites:%d.locati
   db278:	253a6e6f 66252c66 746c6120 64757469     on:%f,%f altitud
   db288:	66253a65 74617320 696c6c65 3a736574     e:%f satellites:
   db298:	68206425 3a706f64 25006c25 6d20756c     %d hdop:%l.%lu m
   db2a8:	696c6c69 6f636573 2073646e 67206f74     illiseconds to g
   db2b8:	47207465 66205350 67007869 25007370     et GPS fix.gps.%
   db2c8:	66322e34 53004620 6b637574 206e6920     4.2f F.Stuck in 
   db2d8:	65656c73 74732070 00657461 74617453     sleep state.Stat
   db2e8:	70730065 2f6b7261 69766564 732f6563     e.spark/device/s
   db2f8:	69737365 652f6e6f 4500646e 726f7272     ession/end.Error
   db308:	61745320 2d206574 73655220 45007465      State - Reset.E
   db318:	726f7272 61745320 2d206574 776f5020     rror State - Pow
   db328:	43207265 656c6379 616f4c00 676e6964     er Cycle.Loading
   db338:	73795320 206d6574 61666544 73746c75      System Defaults
   db348:	67695300 006c616e 706d6153 6e49656c     .Signal.SampleIn
   db358:	76726574 52006c61 74657365 6e756f43     terval.ResetCoun
   db368:	61430074 546e6962 00706d65 746e6556     t.CabinTemp.Vent
   db378:	706d6554 74754f00 65646973 706d6554     Temp.OutsideTemp
   db388:	6c655200 65736165 61747300 664f6574     .Release.stateOf
   db398:	00676843 72656c41 54007374 4f656d69     Chg.Alerts.TimeO
   db3a8:	65736666 61420074 72657474 6e6f4379     ffset.BatteryCon
   db3b8:	74786574 73657200 52467465 53004d41     text.resetFRAM.S
   db3c8:	4e646e65 5600776f 6f627265 4d2d6573     endNow.Verbose-M
   db3d8:	0065646f 2d746553 656d6954 656e6f7a     ode.Set-Timezone
   db3e8:	74655300 5453442d 7366664f 53007465     .Set-DSTOffset.S
   db3f8:	74726174 43207075 6c706d6f 00657465     tartup Complete.

000db408 <_ZTV8MB85RC64>:
	...
   db410:	000d414d 000d4161 000d742d 000d74c3     MA..aA..-t...t..
   db420:	000d7545                                Eu..

000db424 <_ZTV17PublishQueueAsync>:
	...
   db42c:	000d4125 000d4139 000d7add 000d7c69     %A..9A...z..i|..
   db43c:	000d7c29 000d7c07 000d7daf 000d7c4f     )|...|...}..O|..
   db44c:	000db00c 000db014 000db019 000db01e     ................
   db45c:	000db022 000db027 000db02c 000db030     "...'...,...0...
   db46c:	000db03b 000db046 000db00c 000db052     ;...F.......R...
   db47c:	000db056 000db05f 000db06e 000db07e     V..._...n...~...
   db48c:	000db084                                ....

000db490 <_ZL17FRAMversionNumber>:
   db490:	00000001 6c696166 74206465 6572206f     ....failed to re
   db4a0:	72206461 64416765 253d7264 20783230     ad regAddr=%02x 
   db4b0:	6e756f63 75253d74 69616600 2064656c     count=%u.failed 
   db4c0:	72206f74 20646165 41676572 3d726464     to read regAddr=
   db4d0:	78323025 61747320 64253d74 554f4600     %02x stat=%d.FOU
   db4e0:	69642054 6f6e2064 6f672074 47494820     T did not go HIG
   db4f0:	6f6e0048 65642074 74636574 66006465     H.not detected.f
   db500:	656c6961 6f742064 69727720 72206574     ailed to write r
   db510:	64416765 253d7264 20783230 74617473     egAddr=%02x stat
   db520:	0064253d 57746573 25205444 61770064     =%d.setWDT %d.wa
   db530:	64686374 6320676f 7261656c 62206465     tchdog cleared b
   db540:	75736552 253d746c 61770064 64686374     Result=%d.watchd
   db550:	7320676f 66207465 5372756f 3d736365     og set fourSecs=
   db560:	62206425 75736552 253d746c 41570064     %d bResult=%d.WA
   db570:	44484354 4400474f 5f504545 45574f50     TCHDOG.DEEP_POWE
   db580:	4f445f52 43004e57 544e554f 4e574f44     R_DOWN.COUNTDOWN
   db590:	4d49545f 41005245 4d52414c 69616600     _TIMER.ALARM.fai
   db5a0:	6572756c 206e6920 61647075 61576574     lure in updateWa
   db5b0:	6552656b 6e6f7361 00642520 656b6177     keReason %d.wake
   db5c0:	61657220 206e6f73 7325203d 69616600      reason = %s.fai
   db5d0:	6572756c 206e6920 43746573 746e756f     lure in setCount
   db5e0:	6e776f64 656d6954 64252072 69616600     downTimer %d.fai
   db5f0:	6572756c 206e6920 70656564 65776f50     lure in deepPowe
   db600:	776f4472 6425206e 47455200 454c535f     rDown %d.REG_SLE
   db610:	435f5045 3d4c5254 32257830 69640078     EP_CTRL=0x%2x.di
   db620:	74276e64 776f7020 64207265 006e776f     dn't power down.
   db630:	64343025 3230252d 30252d64 25206432     %04d-%02d-%02d %
   db640:	3a643230 64323025 3230253a 65670064     02d:%02d:%02d.ge
   db650:	63745274 6d547341 00732520 20746573     tRtcAsTm %s.set 
   db660:	74737973 63206d65 6b636f6c 6f726620     system clock fro
   db670:	5452206d 73252043 69616600 2064656c     m RTC %s.failed 
   db680:	64206f74 63657465 42412074 35303831     to detect AB1805
   db690:	74657300 41637452 206d5473 66007325     .setRtcAsTm %s.f
   db6a0:	756c6961 69206572 6573206e 63745274     ailure in setRtc
   db6b0:	6d6f7246 25206d54 65730064 54522074     FromTm %d.set RT
   db6c0:	72662043 63206d6f 64756f6c 00732520     C from cloud %s.
   db6d0:	2e707061 38316261 00003530              app.ab1805..

000db6dc <_ZTV6AB1805>:
	...
   db6e4:	000d5925 000d5927 000d5f9d 000d6023     %Y..'Y..._..#`..
   db6f4:	61666564 20746c75 42534d00 42534c00     default .MSB.LSB
   db704:	50533c00 74655349 676e6974 65642073     .<SPISettings de
   db714:	6c756166 3c003e74 53495053 69747465     fault>.<SPISetti
   db724:	2073676e 75257325 20732520 45444f4d     ngs %s%u %s MODE
   db734:	003e7525 65737341 61725474 72656b63     %u>.AssetTracker
   db744:	00000000                                ....

000db748 <_ZTVN8particle11SPISettingsE>:
	...
   db750:	000d6459 000d642d 000d642f              Yd..-d../d..

000db75c <_ZTV12AssetTracker>:
	...
   db764:	000d6815 000d6845 fffffe14 00000000     .h..Eh..........
   db774:	000d683d 000d685b                       =h..[h..

000db77c <_ZTV16AssetTrackerBase>:
	...
   db784:	000d67bd 000d67fd                       .g...g..

000db78c <_ZTV13LegacyAdapter>:
	...
   db794:	000d6979 000d697b 4d525047 4e470043     yi..{i..GPRMC.GN
   db7a4:	00434d52 47475047 4e470041 00414747     RMC.GPGGA.GNGGA.
   db7b4:	2e707061 6f6c6275 00000078              app.ublox...

000db7c0 <_ZTV6LIS3DH>:
	...
   db7d0:	000d7345 000d40a5 000d40a5              Es...@...@..

000db7dc <_ZTV9LIS3DHSPI>:
	...
   db7e4:	000d7261 000d7263 000d7367 000d72a1     ar..cr..gs...r..
   db7f4:	000d72e3 000d7271 000d728b 74697277     .r..qr...r..writ
   db804:	74614465 61662061 64656c69 72756420     eData failed dur
   db814:	20676e69 73617265 72662065 64416d61     ing erase framAd
   db824:	253d7264 00000075                       dr=%u...

000db82c <_ZTV6MB85RC>:
	...
   db834:	000d737d 000d737f 000d742d 000d74c3     }s...s..-t...t..
   db844:	000d7545 6c627550 51687369 65756575     Eu..PublishQueue
   db854:	6e797341 75710063 69657565 6520676e     Async.queueing e
   db864:	746e6576 656d614e 2073253d 61746164     ventName=%s data
   db874:	2073253d 3d6c7474 66206425 7367616c     =%s ttl=%d flags
   db884:	64253d31 616c6620 3d327367 73206425     1=%d flags2=%d s
   db894:	3d657a69 70006425 696c6275 6e696873     ize=%d.publishin
   db8a4:	73252067 20732520 3d6c7474 66206425     g %s %s ttl=%d f
   db8b4:	7367616c 0078253d 6c627570 65687369     lags=%x.publishe
   db8c4:	75732064 73656363 6c756673 7000796c     d successfully.p
   db8d4:	696c6275 64656873 69616620 2c64656c     ublished failed,
   db8e4:	6c697720 6572206c 20797274 25206e69      will retry in %
   db8f4:	6d20756c 70610073 75702e70 00007162     lu ms.app.pubq..

000db904 <_ZTV21PublishQueueAsyncBase>:
	...
   db914:	000d7add 000d40a5 000d40a5 000d40a5     .z...@...@...@..
   db924:	000d40a5 000d40a5                       .@...@..

000db92c <_ZTV25PublishQueueAsyncRetained>:
	...
   db934:	000d7bc5 000d7bd9 000d7add 000d7c69     .{...{...z..i|..
   db944:	000d7c29 000d7c07 000d7daf 000d7c4f     )|...|...}..O|..

000db954 <_ZTVN5spark13CellularClassE>:
	...
   db95c:	000d8917 000d890d 000d8903 000d88b9     ................
   db96c:	000d88f7 000d88eb 000d88df 000d88d7     ................
   db97c:	000d88cd 000d88c3 000d93cd              ............

000db988 <_ZTV14CellularSignal>:
	...
   db990:	000d89c5 000d89cb 000d89c7 000d89d9     ................
   db9a0:	000d8a0d 000d8a39 000d8a6d 000d8abd     ....9...m.......
   db9b0:	fffffffc 00000000 000d8ae3              ............

000db9bc <_ZTVSt15_Sp_counted_ptrIPN8particle6detail10FutureImplIbNS1_13FutureContextEEELN9__gnu_cxx12_Lock_policyE0EE>:
	...
   db9c4:	000d8b03 000d8b09 000d8b47 000d8b17     ........G.......
   db9d4:	000d8b05                                ....

000db9d8 <_ZTVN5spark13EthernetClassE>:
	...
   db9e0:	000d9137 000d912d 000d9123 000d9119     7...-...#.......
   db9f0:	000d910d 000d9101 000d90f5 000d90ed     ................
   dba00:	000d90e3 000d90d9 000d93cd              ............

000dba0c <_ZTV7TwoWire>:
	...
   dba14:	000d9155 000d919f 000d9177 000d9157     U.......w...W...
   dba24:	000d917f 000d9187 000d918f 000d9197     ................

000dba34 <_ZTV9IPAddress>:
	...
   dba3c:	000d9281 000d9271 000d9273 00707061     ....q...s...app.

000dba4c <_ZTVN5spark12NetworkClassE>:
	...
   dba54:	000d9365 000d936f 000d9379 000d9383     e...o...y.......
   dba64:	000d938d 000d9399 000d93a5 000d93b1     ................
   dba74:	000d93b9 000d93c3 000d93cd              ............

000dba80 <_ZN12_GLOBAL__N_1L14clock_divisorsE>:
   dba80:	18100800 38302820 69726977 5300676e     .... (08wiring.S
   dba90:	65747379 6c73206d 20706565 666e6f63     ystem sleep conf
   dbaa0:	72756769 6f697461 7369206e 766e6920     iguration is inv
   dbab0:	64696c61 005a002e 33302b25 30253a64     alid..Z.%+03d:%0
   dbac0:	25007532 6d252d59 5464252d 253a4825     2u.%Y-%m-%dT%H:%
   dbad0:	53253a4d 61007a25 69746373 0000656d     M:%S%z.asctime..

000dbae0 <_ZTV11USARTSerial>:
	...
   dbae8:	000d9f49 000d9fb5 000d9f8d 000d94b5     I...............
   dbaf8:	000d9f5d 000d9f79 000d9f6b 000d9f87     ]...y...k.......
   dbb08:	000d9f4b 000d9f4f                       K...O...

000dbb10 <_ZTV9USBSerial>:
	...
   dbb18:	000da049 000da0b1 000da087 000d94b5     I...............
   dbb28:	000da079 000da04b 000da05b 000da0ab     y...K...[.......
   dbb38:	000da06b 000da045                       k...E...

000dbb40 <_ZSt7nothrow>:
   dbb40:	332e2500 2e252073 33257333 2e252064     .%.3s %.3s%3d %.
   dbb50:	253a6432 3a64322e 64322e25 0a642520     2d:%.2d:%.2d %d.
	...

000dbb61 <day_name.6145>:
   dbb61:	4d6e7553 75546e6f 64655765 46756854     SunMonTueWedThuF
   dbb71:	61536972                                 riSat

000dbb76 <mon_name.6146>:
   dbb76:	466e614a 614d6265 72704172 4a79614d     JanFebMarAprMayJ
   dbb86:	754a6e75 6775416c 4f706553 6f4e7463     unJulAugSepOctNo
   dbb96:	63654476                                vDec

000dbb9a <_ctype_>:
   dbb9a:	20202000 20202020 28282020 20282828     .         ((((( 
   dbbaa:	20202020 20202020 20202020 20202020                     
   dbbba:	10108820 10101010 10101010 10101010      ...............
   dbbca:	04040410 04040404 10040404 10101010     ................
   dbbda:	41411010 41414141 01010101 01010101     ..AAAAAA........
   dbbea:	01010101 01010101 01010101 10101010     ................
   dbbfa:	42421010 42424242 02020202 02020202     ..BBBBBB........
   dbc0a:	02020202 02020202 02020202 10101010     ................
   dbc1a:	00000020 00000000 00000000 00000000      ...............
	...

000dbc9b <link_const_variable_data_end>:
	...

000dbc9c <link_constructors_location>:
   dbc9c:	000d57c9 	.word	0x000d57c9
   dbca0:	000d641d 	.word	0x000d641d
   dbca4:	000d7011 	.word	0x000d7011
   dbca8:	000d8041 	.word	0x000d8041
   dbcac:	000d8051 	.word	0x000d8051
   dbcb0:	000d8891 	.word	0x000d8891
   dbcb4:	000d8995 	.word	0x000d8995
   dbcb8:	000d9141 	.word	0x000d9141
   dbcbc:	000d9355 	.word	0x000d9355
   dbcc0:	000d94a1 	.word	0x000d94a1
   dbcc4:	000d95d5 	.word	0x000d95d5
   dbcc8:	000d9ad1 	.word	0x000d9ad1
   dbccc:	000d9f35 	.word	0x000d9f35
